
PSUControllerF072.elf:     file format elf32-littlearm

Sections:
Idx Name          Size      VMA       LMA       File off  Algn
  0 .isr_vector   000000c0  08000000  08000000  00010000  2**0
                  CONTENTS, ALLOC, LOAD, READONLY, DATA
  1 .text         00008020  080000c0  080000c0  000100c0  2**2
                  CONTENTS, ALLOC, LOAD, READONLY, CODE
  2 .rodata       00000588  080080e0  080080e0  000180e0  2**3
                  CONTENTS, ALLOC, LOAD, READONLY, DATA
  3 .ARM.extab    00000000  08008668  08008668  000201e0  2**0
                  CONTENTS
  4 .ARM          00000000  08008668  08008668  000201e0  2**0
                  CONTENTS
  5 .preinit_array 00000000  08008668  08008668  000201e0  2**0
                  CONTENTS, ALLOC, LOAD, DATA
  6 .init_array   00000004  08008668  08008668  00018668  2**2
                  CONTENTS, ALLOC, LOAD, DATA
  7 .fini_array   00000004  0800866c  0800866c  0001866c  2**2
                  CONTENTS, ALLOC, LOAD, DATA
  8 .data         000001e0  20000000  08008670  00020000  2**2
                  CONTENTS, ALLOC, LOAD, DATA
  9 .bss          0000018c  200001e0  08008850  000201e0  2**2
                  ALLOC
 10 ._user_heap_stack 00000604  2000036c  08008850  0002036c  2**0
                  ALLOC
 11 .ARM.attributes 00000028  00000000  00000000  000201e0  2**0
                  CONTENTS, READONLY
 12 .debug_info   000106cd  00000000  00000000  00020208  2**0
                  CONTENTS, READONLY, DEBUGGING
 13 .debug_abbrev 00002914  00000000  00000000  000308d5  2**0
                  CONTENTS, READONLY, DEBUGGING
 14 .debug_aranges 00000e20  00000000  00000000  000331f0  2**3
                  CONTENTS, READONLY, DEBUGGING
 15 .debug_ranges 00000ca8  00000000  00000000  00034010  2**3
                  CONTENTS, READONLY, DEBUGGING
 16 .debug_macro  00018a17  00000000  00000000  00034cb8  2**0
                  CONTENTS, READONLY, DEBUGGING
 17 .debug_line   0000ec34  00000000  00000000  0004d6cf  2**0
                  CONTENTS, READONLY, DEBUGGING
 18 .debug_str    000819ae  00000000  00000000  0005c303  2**0
                  CONTENTS, READONLY, DEBUGGING
 19 .comment      0000007b  00000000  00000000  000ddcb1  2**0
                  CONTENTS, READONLY
 20 .debug_frame  00003b40  00000000  00000000  000ddd2c  2**2
                  CONTENTS, READONLY, DEBUGGING

Disassembly of section .text:

080000c0 <__do_global_dtors_aux>:
 80000c0:	b510      	push	{r4, lr}
 80000c2:	4c06      	ldr	r4, [pc, #24]	; (80000dc <__do_global_dtors_aux+0x1c>)
 80000c4:	7823      	ldrb	r3, [r4, #0]
 80000c6:	2b00      	cmp	r3, #0
 80000c8:	d107      	bne.n	80000da <__do_global_dtors_aux+0x1a>
 80000ca:	4b05      	ldr	r3, [pc, #20]	; (80000e0 <__do_global_dtors_aux+0x20>)
 80000cc:	2b00      	cmp	r3, #0
 80000ce:	d002      	beq.n	80000d6 <__do_global_dtors_aux+0x16>
 80000d0:	4804      	ldr	r0, [pc, #16]	; (80000e4 <__do_global_dtors_aux+0x24>)
 80000d2:	e000      	b.n	80000d6 <__do_global_dtors_aux+0x16>
 80000d4:	bf00      	nop
 80000d6:	2301      	movs	r3, #1
 80000d8:	7023      	strb	r3, [r4, #0]
 80000da:	bd10      	pop	{r4, pc}
 80000dc:	200001e0 	.word	0x200001e0
 80000e0:	00000000 	.word	0x00000000
 80000e4:	080080c8 	.word	0x080080c8

080000e8 <frame_dummy>:
 80000e8:	4b04      	ldr	r3, [pc, #16]	; (80000fc <frame_dummy+0x14>)
 80000ea:	b510      	push	{r4, lr}
 80000ec:	2b00      	cmp	r3, #0
 80000ee:	d003      	beq.n	80000f8 <frame_dummy+0x10>
 80000f0:	4903      	ldr	r1, [pc, #12]	; (8000100 <frame_dummy+0x18>)
 80000f2:	4804      	ldr	r0, [pc, #16]	; (8000104 <frame_dummy+0x1c>)
 80000f4:	e000      	b.n	80000f8 <frame_dummy+0x10>
 80000f6:	bf00      	nop
 80000f8:	bd10      	pop	{r4, pc}
 80000fa:	46c0      	nop			; (mov r8, r8)
 80000fc:	00000000 	.word	0x00000000
 8000100:	200001e4 	.word	0x200001e4
 8000104:	080080c8 	.word	0x080080c8

08000108 <strlen>:
 8000108:	2300      	movs	r3, #0
 800010a:	5cc2      	ldrb	r2, [r0, r3]
 800010c:	3301      	adds	r3, #1
 800010e:	2a00      	cmp	r2, #0
 8000110:	d1fb      	bne.n	800010a <strlen+0x2>
 8000112:	1e58      	subs	r0, r3, #1
 8000114:	4770      	bx	lr
	...

08000118 <__gnu_thumb1_case_uqi>:
 8000118:	b402      	push	{r1}
 800011a:	4671      	mov	r1, lr
 800011c:	0849      	lsrs	r1, r1, #1
 800011e:	0049      	lsls	r1, r1, #1
 8000120:	5c09      	ldrb	r1, [r1, r0]
 8000122:	0049      	lsls	r1, r1, #1
 8000124:	448e      	add	lr, r1
 8000126:	bc02      	pop	{r1}
 8000128:	4770      	bx	lr
 800012a:	46c0      	nop			; (mov r8, r8)

0800012c <__udivsi3>:
 800012c:	2200      	movs	r2, #0
 800012e:	0843      	lsrs	r3, r0, #1
 8000130:	428b      	cmp	r3, r1
 8000132:	d374      	bcc.n	800021e <__udivsi3+0xf2>
 8000134:	0903      	lsrs	r3, r0, #4
 8000136:	428b      	cmp	r3, r1
 8000138:	d35f      	bcc.n	80001fa <__udivsi3+0xce>
 800013a:	0a03      	lsrs	r3, r0, #8
 800013c:	428b      	cmp	r3, r1
 800013e:	d344      	bcc.n	80001ca <__udivsi3+0x9e>
 8000140:	0b03      	lsrs	r3, r0, #12
 8000142:	428b      	cmp	r3, r1
 8000144:	d328      	bcc.n	8000198 <__udivsi3+0x6c>
 8000146:	0c03      	lsrs	r3, r0, #16
 8000148:	428b      	cmp	r3, r1
 800014a:	d30d      	bcc.n	8000168 <__udivsi3+0x3c>
 800014c:	22ff      	movs	r2, #255	; 0xff
 800014e:	0209      	lsls	r1, r1, #8
 8000150:	ba12      	rev	r2, r2
 8000152:	0c03      	lsrs	r3, r0, #16
 8000154:	428b      	cmp	r3, r1
 8000156:	d302      	bcc.n	800015e <__udivsi3+0x32>
 8000158:	1212      	asrs	r2, r2, #8
 800015a:	0209      	lsls	r1, r1, #8
 800015c:	d065      	beq.n	800022a <__udivsi3+0xfe>
 800015e:	0b03      	lsrs	r3, r0, #12
 8000160:	428b      	cmp	r3, r1
 8000162:	d319      	bcc.n	8000198 <__udivsi3+0x6c>
 8000164:	e000      	b.n	8000168 <__udivsi3+0x3c>
 8000166:	0a09      	lsrs	r1, r1, #8
 8000168:	0bc3      	lsrs	r3, r0, #15
 800016a:	428b      	cmp	r3, r1
 800016c:	d301      	bcc.n	8000172 <__udivsi3+0x46>
 800016e:	03cb      	lsls	r3, r1, #15
 8000170:	1ac0      	subs	r0, r0, r3
 8000172:	4152      	adcs	r2, r2
 8000174:	0b83      	lsrs	r3, r0, #14
 8000176:	428b      	cmp	r3, r1
 8000178:	d301      	bcc.n	800017e <__udivsi3+0x52>
 800017a:	038b      	lsls	r3, r1, #14
 800017c:	1ac0      	subs	r0, r0, r3
 800017e:	4152      	adcs	r2, r2
 8000180:	0b43      	lsrs	r3, r0, #13
 8000182:	428b      	cmp	r3, r1
 8000184:	d301      	bcc.n	800018a <__udivsi3+0x5e>
 8000186:	034b      	lsls	r3, r1, #13
 8000188:	1ac0      	subs	r0, r0, r3
 800018a:	4152      	adcs	r2, r2
 800018c:	0b03      	lsrs	r3, r0, #12
 800018e:	428b      	cmp	r3, r1
 8000190:	d301      	bcc.n	8000196 <__udivsi3+0x6a>
 8000192:	030b      	lsls	r3, r1, #12
 8000194:	1ac0      	subs	r0, r0, r3
 8000196:	4152      	adcs	r2, r2
 8000198:	0ac3      	lsrs	r3, r0, #11
 800019a:	428b      	cmp	r3, r1
 800019c:	d301      	bcc.n	80001a2 <__udivsi3+0x76>
 800019e:	02cb      	lsls	r3, r1, #11
 80001a0:	1ac0      	subs	r0, r0, r3
 80001a2:	4152      	adcs	r2, r2
 80001a4:	0a83      	lsrs	r3, r0, #10
 80001a6:	428b      	cmp	r3, r1
 80001a8:	d301      	bcc.n	80001ae <__udivsi3+0x82>
 80001aa:	028b      	lsls	r3, r1, #10
 80001ac:	1ac0      	subs	r0, r0, r3
 80001ae:	4152      	adcs	r2, r2
 80001b0:	0a43      	lsrs	r3, r0, #9
 80001b2:	428b      	cmp	r3, r1
 80001b4:	d301      	bcc.n	80001ba <__udivsi3+0x8e>
 80001b6:	024b      	lsls	r3, r1, #9
 80001b8:	1ac0      	subs	r0, r0, r3
 80001ba:	4152      	adcs	r2, r2
 80001bc:	0a03      	lsrs	r3, r0, #8
 80001be:	428b      	cmp	r3, r1
 80001c0:	d301      	bcc.n	80001c6 <__udivsi3+0x9a>
 80001c2:	020b      	lsls	r3, r1, #8
 80001c4:	1ac0      	subs	r0, r0, r3
 80001c6:	4152      	adcs	r2, r2
 80001c8:	d2cd      	bcs.n	8000166 <__udivsi3+0x3a>
 80001ca:	09c3      	lsrs	r3, r0, #7
 80001cc:	428b      	cmp	r3, r1
 80001ce:	d301      	bcc.n	80001d4 <__udivsi3+0xa8>
 80001d0:	01cb      	lsls	r3, r1, #7
 80001d2:	1ac0      	subs	r0, r0, r3
 80001d4:	4152      	adcs	r2, r2
 80001d6:	0983      	lsrs	r3, r0, #6
 80001d8:	428b      	cmp	r3, r1
 80001da:	d301      	bcc.n	80001e0 <__udivsi3+0xb4>
 80001dc:	018b      	lsls	r3, r1, #6
 80001de:	1ac0      	subs	r0, r0, r3
 80001e0:	4152      	adcs	r2, r2
 80001e2:	0943      	lsrs	r3, r0, #5
 80001e4:	428b      	cmp	r3, r1
 80001e6:	d301      	bcc.n	80001ec <__udivsi3+0xc0>
 80001e8:	014b      	lsls	r3, r1, #5
 80001ea:	1ac0      	subs	r0, r0, r3
 80001ec:	4152      	adcs	r2, r2
 80001ee:	0903      	lsrs	r3, r0, #4
 80001f0:	428b      	cmp	r3, r1
 80001f2:	d301      	bcc.n	80001f8 <__udivsi3+0xcc>
 80001f4:	010b      	lsls	r3, r1, #4
 80001f6:	1ac0      	subs	r0, r0, r3
 80001f8:	4152      	adcs	r2, r2
 80001fa:	08c3      	lsrs	r3, r0, #3
 80001fc:	428b      	cmp	r3, r1
 80001fe:	d301      	bcc.n	8000204 <__udivsi3+0xd8>
 8000200:	00cb      	lsls	r3, r1, #3
 8000202:	1ac0      	subs	r0, r0, r3
 8000204:	4152      	adcs	r2, r2
 8000206:	0883      	lsrs	r3, r0, #2
 8000208:	428b      	cmp	r3, r1
 800020a:	d301      	bcc.n	8000210 <__udivsi3+0xe4>
 800020c:	008b      	lsls	r3, r1, #2
 800020e:	1ac0      	subs	r0, r0, r3
 8000210:	4152      	adcs	r2, r2
 8000212:	0843      	lsrs	r3, r0, #1
 8000214:	428b      	cmp	r3, r1
 8000216:	d301      	bcc.n	800021c <__udivsi3+0xf0>
 8000218:	004b      	lsls	r3, r1, #1
 800021a:	1ac0      	subs	r0, r0, r3
 800021c:	4152      	adcs	r2, r2
 800021e:	1a41      	subs	r1, r0, r1
 8000220:	d200      	bcs.n	8000224 <__udivsi3+0xf8>
 8000222:	4601      	mov	r1, r0
 8000224:	4152      	adcs	r2, r2
 8000226:	4610      	mov	r0, r2
 8000228:	4770      	bx	lr
 800022a:	e7ff      	b.n	800022c <__udivsi3+0x100>
 800022c:	b501      	push	{r0, lr}
 800022e:	2000      	movs	r0, #0
 8000230:	f000 f8f0 	bl	8000414 <__aeabi_idiv0>
 8000234:	bd02      	pop	{r1, pc}
 8000236:	46c0      	nop			; (mov r8, r8)

08000238 <__aeabi_uidivmod>:
 8000238:	2900      	cmp	r1, #0
 800023a:	d0f7      	beq.n	800022c <__udivsi3+0x100>
 800023c:	e776      	b.n	800012c <__udivsi3>
 800023e:	4770      	bx	lr

08000240 <__divsi3>:
 8000240:	4603      	mov	r3, r0
 8000242:	430b      	orrs	r3, r1
 8000244:	d47f      	bmi.n	8000346 <__divsi3+0x106>
 8000246:	2200      	movs	r2, #0
 8000248:	0843      	lsrs	r3, r0, #1
 800024a:	428b      	cmp	r3, r1
 800024c:	d374      	bcc.n	8000338 <__divsi3+0xf8>
 800024e:	0903      	lsrs	r3, r0, #4
 8000250:	428b      	cmp	r3, r1
 8000252:	d35f      	bcc.n	8000314 <__divsi3+0xd4>
 8000254:	0a03      	lsrs	r3, r0, #8
 8000256:	428b      	cmp	r3, r1
 8000258:	d344      	bcc.n	80002e4 <__divsi3+0xa4>
 800025a:	0b03      	lsrs	r3, r0, #12
 800025c:	428b      	cmp	r3, r1
 800025e:	d328      	bcc.n	80002b2 <__divsi3+0x72>
 8000260:	0c03      	lsrs	r3, r0, #16
 8000262:	428b      	cmp	r3, r1
 8000264:	d30d      	bcc.n	8000282 <__divsi3+0x42>
 8000266:	22ff      	movs	r2, #255	; 0xff
 8000268:	0209      	lsls	r1, r1, #8
 800026a:	ba12      	rev	r2, r2
 800026c:	0c03      	lsrs	r3, r0, #16
 800026e:	428b      	cmp	r3, r1
 8000270:	d302      	bcc.n	8000278 <__divsi3+0x38>
 8000272:	1212      	asrs	r2, r2, #8
 8000274:	0209      	lsls	r1, r1, #8
 8000276:	d065      	beq.n	8000344 <__divsi3+0x104>
 8000278:	0b03      	lsrs	r3, r0, #12
 800027a:	428b      	cmp	r3, r1
 800027c:	d319      	bcc.n	80002b2 <__divsi3+0x72>
 800027e:	e000      	b.n	8000282 <__divsi3+0x42>
 8000280:	0a09      	lsrs	r1, r1, #8
 8000282:	0bc3      	lsrs	r3, r0, #15
 8000284:	428b      	cmp	r3, r1
 8000286:	d301      	bcc.n	800028c <__divsi3+0x4c>
 8000288:	03cb      	lsls	r3, r1, #15
 800028a:	1ac0      	subs	r0, r0, r3
 800028c:	4152      	adcs	r2, r2
 800028e:	0b83      	lsrs	r3, r0, #14
 8000290:	428b      	cmp	r3, r1
 8000292:	d301      	bcc.n	8000298 <__divsi3+0x58>
 8000294:	038b      	lsls	r3, r1, #14
 8000296:	1ac0      	subs	r0, r0, r3
 8000298:	4152      	adcs	r2, r2
 800029a:	0b43      	lsrs	r3, r0, #13
 800029c:	428b      	cmp	r3, r1
 800029e:	d301      	bcc.n	80002a4 <__divsi3+0x64>
 80002a0:	034b      	lsls	r3, r1, #13
 80002a2:	1ac0      	subs	r0, r0, r3
 80002a4:	4152      	adcs	r2, r2
 80002a6:	0b03      	lsrs	r3, r0, #12
 80002a8:	428b      	cmp	r3, r1
 80002aa:	d301      	bcc.n	80002b0 <__divsi3+0x70>
 80002ac:	030b      	lsls	r3, r1, #12
 80002ae:	1ac0      	subs	r0, r0, r3
 80002b0:	4152      	adcs	r2, r2
 80002b2:	0ac3      	lsrs	r3, r0, #11
 80002b4:	428b      	cmp	r3, r1
 80002b6:	d301      	bcc.n	80002bc <__divsi3+0x7c>
 80002b8:	02cb      	lsls	r3, r1, #11
 80002ba:	1ac0      	subs	r0, r0, r3
 80002bc:	4152      	adcs	r2, r2
 80002be:	0a83      	lsrs	r3, r0, #10
 80002c0:	428b      	cmp	r3, r1
 80002c2:	d301      	bcc.n	80002c8 <__divsi3+0x88>
 80002c4:	028b      	lsls	r3, r1, #10
 80002c6:	1ac0      	subs	r0, r0, r3
 80002c8:	4152      	adcs	r2, r2
 80002ca:	0a43      	lsrs	r3, r0, #9
 80002cc:	428b      	cmp	r3, r1
 80002ce:	d301      	bcc.n	80002d4 <__divsi3+0x94>
 80002d0:	024b      	lsls	r3, r1, #9
 80002d2:	1ac0      	subs	r0, r0, r3
 80002d4:	4152      	adcs	r2, r2
 80002d6:	0a03      	lsrs	r3, r0, #8
 80002d8:	428b      	cmp	r3, r1
 80002da:	d301      	bcc.n	80002e0 <__divsi3+0xa0>
 80002dc:	020b      	lsls	r3, r1, #8
 80002de:	1ac0      	subs	r0, r0, r3
 80002e0:	4152      	adcs	r2, r2
 80002e2:	d2cd      	bcs.n	8000280 <__divsi3+0x40>
 80002e4:	09c3      	lsrs	r3, r0, #7
 80002e6:	428b      	cmp	r3, r1
 80002e8:	d301      	bcc.n	80002ee <__divsi3+0xae>
 80002ea:	01cb      	lsls	r3, r1, #7
 80002ec:	1ac0      	subs	r0, r0, r3
 80002ee:	4152      	adcs	r2, r2
 80002f0:	0983      	lsrs	r3, r0, #6
 80002f2:	428b      	cmp	r3, r1
 80002f4:	d301      	bcc.n	80002fa <__divsi3+0xba>
 80002f6:	018b      	lsls	r3, r1, #6
 80002f8:	1ac0      	subs	r0, r0, r3
 80002fa:	4152      	adcs	r2, r2
 80002fc:	0943      	lsrs	r3, r0, #5
 80002fe:	428b      	cmp	r3, r1
 8000300:	d301      	bcc.n	8000306 <__divsi3+0xc6>
 8000302:	014b      	lsls	r3, r1, #5
 8000304:	1ac0      	subs	r0, r0, r3
 8000306:	4152      	adcs	r2, r2
 8000308:	0903      	lsrs	r3, r0, #4
 800030a:	428b      	cmp	r3, r1
 800030c:	d301      	bcc.n	8000312 <__divsi3+0xd2>
 800030e:	010b      	lsls	r3, r1, #4
 8000310:	1ac0      	subs	r0, r0, r3
 8000312:	4152      	adcs	r2, r2
 8000314:	08c3      	lsrs	r3, r0, #3
 8000316:	428b      	cmp	r3, r1
 8000318:	d301      	bcc.n	800031e <__divsi3+0xde>
 800031a:	00cb      	lsls	r3, r1, #3
 800031c:	1ac0      	subs	r0, r0, r3
 800031e:	4152      	adcs	r2, r2
 8000320:	0883      	lsrs	r3, r0, #2
 8000322:	428b      	cmp	r3, r1
 8000324:	d301      	bcc.n	800032a <__divsi3+0xea>
 8000326:	008b      	lsls	r3, r1, #2
 8000328:	1ac0      	subs	r0, r0, r3
 800032a:	4152      	adcs	r2, r2
 800032c:	0843      	lsrs	r3, r0, #1
 800032e:	428b      	cmp	r3, r1
 8000330:	d301      	bcc.n	8000336 <__divsi3+0xf6>
 8000332:	004b      	lsls	r3, r1, #1
 8000334:	1ac0      	subs	r0, r0, r3
 8000336:	4152      	adcs	r2, r2
 8000338:	1a41      	subs	r1, r0, r1
 800033a:	d200      	bcs.n	800033e <__divsi3+0xfe>
 800033c:	4601      	mov	r1, r0
 800033e:	4152      	adcs	r2, r2
 8000340:	4610      	mov	r0, r2
 8000342:	4770      	bx	lr
 8000344:	e05d      	b.n	8000402 <__divsi3+0x1c2>
 8000346:	0fca      	lsrs	r2, r1, #31
 8000348:	d000      	beq.n	800034c <__divsi3+0x10c>
 800034a:	4249      	negs	r1, r1
 800034c:	1003      	asrs	r3, r0, #32
 800034e:	d300      	bcc.n	8000352 <__divsi3+0x112>
 8000350:	4240      	negs	r0, r0
 8000352:	4053      	eors	r3, r2
 8000354:	2200      	movs	r2, #0
 8000356:	469c      	mov	ip, r3
 8000358:	0903      	lsrs	r3, r0, #4
 800035a:	428b      	cmp	r3, r1
 800035c:	d32d      	bcc.n	80003ba <__divsi3+0x17a>
 800035e:	0a03      	lsrs	r3, r0, #8
 8000360:	428b      	cmp	r3, r1
 8000362:	d312      	bcc.n	800038a <__divsi3+0x14a>
 8000364:	22fc      	movs	r2, #252	; 0xfc
 8000366:	0189      	lsls	r1, r1, #6
 8000368:	ba12      	rev	r2, r2
 800036a:	0a03      	lsrs	r3, r0, #8
 800036c:	428b      	cmp	r3, r1
 800036e:	d30c      	bcc.n	800038a <__divsi3+0x14a>
 8000370:	0189      	lsls	r1, r1, #6
 8000372:	1192      	asrs	r2, r2, #6
 8000374:	428b      	cmp	r3, r1
 8000376:	d308      	bcc.n	800038a <__divsi3+0x14a>
 8000378:	0189      	lsls	r1, r1, #6
 800037a:	1192      	asrs	r2, r2, #6
 800037c:	428b      	cmp	r3, r1
 800037e:	d304      	bcc.n	800038a <__divsi3+0x14a>
 8000380:	0189      	lsls	r1, r1, #6
 8000382:	d03a      	beq.n	80003fa <__divsi3+0x1ba>
 8000384:	1192      	asrs	r2, r2, #6
 8000386:	e000      	b.n	800038a <__divsi3+0x14a>
 8000388:	0989      	lsrs	r1, r1, #6
 800038a:	09c3      	lsrs	r3, r0, #7
 800038c:	428b      	cmp	r3, r1
 800038e:	d301      	bcc.n	8000394 <__divsi3+0x154>
 8000390:	01cb      	lsls	r3, r1, #7
 8000392:	1ac0      	subs	r0, r0, r3
 8000394:	4152      	adcs	r2, r2
 8000396:	0983      	lsrs	r3, r0, #6
 8000398:	428b      	cmp	r3, r1
 800039a:	d301      	bcc.n	80003a0 <__divsi3+0x160>
 800039c:	018b      	lsls	r3, r1, #6
 800039e:	1ac0      	subs	r0, r0, r3
 80003a0:	4152      	adcs	r2, r2
 80003a2:	0943      	lsrs	r3, r0, #5
 80003a4:	428b      	cmp	r3, r1
 80003a6:	d301      	bcc.n	80003ac <__divsi3+0x16c>
 80003a8:	014b      	lsls	r3, r1, #5
 80003aa:	1ac0      	subs	r0, r0, r3
 80003ac:	4152      	adcs	r2, r2
 80003ae:	0903      	lsrs	r3, r0, #4
 80003b0:	428b      	cmp	r3, r1
 80003b2:	d301      	bcc.n	80003b8 <__divsi3+0x178>
 80003b4:	010b      	lsls	r3, r1, #4
 80003b6:	1ac0      	subs	r0, r0, r3
 80003b8:	4152      	adcs	r2, r2
 80003ba:	08c3      	lsrs	r3, r0, #3
 80003bc:	428b      	cmp	r3, r1
 80003be:	d301      	bcc.n	80003c4 <__divsi3+0x184>
 80003c0:	00cb      	lsls	r3, r1, #3
 80003c2:	1ac0      	subs	r0, r0, r3
 80003c4:	4152      	adcs	r2, r2
 80003c6:	0883      	lsrs	r3, r0, #2
 80003c8:	428b      	cmp	r3, r1
 80003ca:	d301      	bcc.n	80003d0 <__divsi3+0x190>
 80003cc:	008b      	lsls	r3, r1, #2
 80003ce:	1ac0      	subs	r0, r0, r3
 80003d0:	4152      	adcs	r2, r2
 80003d2:	d2d9      	bcs.n	8000388 <__divsi3+0x148>
 80003d4:	0843      	lsrs	r3, r0, #1
 80003d6:	428b      	cmp	r3, r1
 80003d8:	d301      	bcc.n	80003de <__divsi3+0x19e>
 80003da:	004b      	lsls	r3, r1, #1
 80003dc:	1ac0      	subs	r0, r0, r3
 80003de:	4152      	adcs	r2, r2
 80003e0:	1a41      	subs	r1, r0, r1
 80003e2:	d200      	bcs.n	80003e6 <__divsi3+0x1a6>
 80003e4:	4601      	mov	r1, r0
 80003e6:	4663      	mov	r3, ip
 80003e8:	4152      	adcs	r2, r2
 80003ea:	105b      	asrs	r3, r3, #1
 80003ec:	4610      	mov	r0, r2
 80003ee:	d301      	bcc.n	80003f4 <__divsi3+0x1b4>
 80003f0:	4240      	negs	r0, r0
 80003f2:	2b00      	cmp	r3, #0
 80003f4:	d500      	bpl.n	80003f8 <__divsi3+0x1b8>
 80003f6:	4249      	negs	r1, r1
 80003f8:	4770      	bx	lr
 80003fa:	4663      	mov	r3, ip
 80003fc:	105b      	asrs	r3, r3, #1
 80003fe:	d300      	bcc.n	8000402 <__divsi3+0x1c2>
 8000400:	4240      	negs	r0, r0
 8000402:	b501      	push	{r0, lr}
 8000404:	2000      	movs	r0, #0
 8000406:	f000 f805 	bl	8000414 <__aeabi_idiv0>
 800040a:	bd02      	pop	{r1, pc}

0800040c <__aeabi_idivmod>:
 800040c:	2900      	cmp	r1, #0
 800040e:	d0f8      	beq.n	8000402 <__divsi3+0x1c2>
 8000410:	e716      	b.n	8000240 <__divsi3>
 8000412:	4770      	bx	lr

08000414 <__aeabi_idiv0>:
 8000414:	4770      	bx	lr
 8000416:	46c0      	nop			; (mov r8, r8)

08000418 <__aeabi_cdrcmple>:
 8000418:	4684      	mov	ip, r0
 800041a:	1c10      	adds	r0, r2, #0
 800041c:	4662      	mov	r2, ip
 800041e:	468c      	mov	ip, r1
 8000420:	1c19      	adds	r1, r3, #0
 8000422:	4663      	mov	r3, ip
 8000424:	e000      	b.n	8000428 <__aeabi_cdcmpeq>
 8000426:	46c0      	nop			; (mov r8, r8)

08000428 <__aeabi_cdcmpeq>:
 8000428:	b51f      	push	{r0, r1, r2, r3, r4, lr}
 800042a:	f000 ff31 	bl	8001290 <__ledf2>
 800042e:	2800      	cmp	r0, #0
 8000430:	d401      	bmi.n	8000436 <__aeabi_cdcmpeq+0xe>
 8000432:	2100      	movs	r1, #0
 8000434:	42c8      	cmn	r0, r1
 8000436:	bd1f      	pop	{r0, r1, r2, r3, r4, pc}

08000438 <__aeabi_dcmpeq>:
 8000438:	b510      	push	{r4, lr}
 800043a:	f000 fe89 	bl	8001150 <__eqdf2>
 800043e:	4240      	negs	r0, r0
 8000440:	3001      	adds	r0, #1
 8000442:	bd10      	pop	{r4, pc}

08000444 <__aeabi_dcmplt>:
 8000444:	b510      	push	{r4, lr}
 8000446:	f000 ff23 	bl	8001290 <__ledf2>
 800044a:	2800      	cmp	r0, #0
 800044c:	db01      	blt.n	8000452 <__aeabi_dcmplt+0xe>
 800044e:	2000      	movs	r0, #0
 8000450:	bd10      	pop	{r4, pc}
 8000452:	2001      	movs	r0, #1
 8000454:	bd10      	pop	{r4, pc}
 8000456:	46c0      	nop			; (mov r8, r8)

08000458 <__aeabi_dcmple>:
 8000458:	b510      	push	{r4, lr}
 800045a:	f000 ff19 	bl	8001290 <__ledf2>
 800045e:	2800      	cmp	r0, #0
 8000460:	dd01      	ble.n	8000466 <__aeabi_dcmple+0xe>
 8000462:	2000      	movs	r0, #0
 8000464:	bd10      	pop	{r4, pc}
 8000466:	2001      	movs	r0, #1
 8000468:	bd10      	pop	{r4, pc}
 800046a:	46c0      	nop			; (mov r8, r8)

0800046c <__aeabi_dcmpgt>:
 800046c:	b510      	push	{r4, lr}
 800046e:	f000 feab 	bl	80011c8 <__gedf2>
 8000472:	2800      	cmp	r0, #0
 8000474:	dc01      	bgt.n	800047a <__aeabi_dcmpgt+0xe>
 8000476:	2000      	movs	r0, #0
 8000478:	bd10      	pop	{r4, pc}
 800047a:	2001      	movs	r0, #1
 800047c:	bd10      	pop	{r4, pc}
 800047e:	46c0      	nop			; (mov r8, r8)

08000480 <__aeabi_dcmpge>:
 8000480:	b510      	push	{r4, lr}
 8000482:	f000 fea1 	bl	80011c8 <__gedf2>
 8000486:	2800      	cmp	r0, #0
 8000488:	da01      	bge.n	800048e <__aeabi_dcmpge+0xe>
 800048a:	2000      	movs	r0, #0
 800048c:	bd10      	pop	{r4, pc}
 800048e:	2001      	movs	r0, #1
 8000490:	bd10      	pop	{r4, pc}
 8000492:	46c0      	nop			; (mov r8, r8)

08000494 <__aeabi_ui2f>:
 8000494:	b570      	push	{r4, r5, r6, lr}
 8000496:	1e04      	subs	r4, r0, #0
 8000498:	d034      	beq.n	8000504 <__aeabi_ui2f+0x70>
 800049a:	f001 feaf 	bl	80021fc <__clzsi2>
 800049e:	229e      	movs	r2, #158	; 0x9e
 80004a0:	1a12      	subs	r2, r2, r0
 80004a2:	2a96      	cmp	r2, #150	; 0x96
 80004a4:	dc07      	bgt.n	80004b6 <__aeabi_ui2f+0x22>
 80004a6:	b2d2      	uxtb	r2, r2
 80004a8:	2808      	cmp	r0, #8
 80004aa:	dd2e      	ble.n	800050a <__aeabi_ui2f+0x76>
 80004ac:	3808      	subs	r0, #8
 80004ae:	4084      	lsls	r4, r0
 80004b0:	0260      	lsls	r0, r4, #9
 80004b2:	0a40      	lsrs	r0, r0, #9
 80004b4:	e021      	b.n	80004fa <__aeabi_ui2f+0x66>
 80004b6:	2a99      	cmp	r2, #153	; 0x99
 80004b8:	dd09      	ble.n	80004ce <__aeabi_ui2f+0x3a>
 80004ba:	0003      	movs	r3, r0
 80004bc:	0021      	movs	r1, r4
 80004be:	331b      	adds	r3, #27
 80004c0:	4099      	lsls	r1, r3
 80004c2:	1e4b      	subs	r3, r1, #1
 80004c4:	4199      	sbcs	r1, r3
 80004c6:	2305      	movs	r3, #5
 80004c8:	1a1b      	subs	r3, r3, r0
 80004ca:	40dc      	lsrs	r4, r3
 80004cc:	430c      	orrs	r4, r1
 80004ce:	2805      	cmp	r0, #5
 80004d0:	dd01      	ble.n	80004d6 <__aeabi_ui2f+0x42>
 80004d2:	1f43      	subs	r3, r0, #5
 80004d4:	409c      	lsls	r4, r3
 80004d6:	0023      	movs	r3, r4
 80004d8:	490d      	ldr	r1, [pc, #52]	; (8000510 <__aeabi_ui2f+0x7c>)
 80004da:	400b      	ands	r3, r1
 80004dc:	0765      	lsls	r5, r4, #29
 80004de:	d009      	beq.n	80004f4 <__aeabi_ui2f+0x60>
 80004e0:	250f      	movs	r5, #15
 80004e2:	402c      	ands	r4, r5
 80004e4:	2c04      	cmp	r4, #4
 80004e6:	d005      	beq.n	80004f4 <__aeabi_ui2f+0x60>
 80004e8:	3304      	adds	r3, #4
 80004ea:	015c      	lsls	r4, r3, #5
 80004ec:	d502      	bpl.n	80004f4 <__aeabi_ui2f+0x60>
 80004ee:	229f      	movs	r2, #159	; 0x9f
 80004f0:	400b      	ands	r3, r1
 80004f2:	1a12      	subs	r2, r2, r0
 80004f4:	019b      	lsls	r3, r3, #6
 80004f6:	0a58      	lsrs	r0, r3, #9
 80004f8:	b2d2      	uxtb	r2, r2
 80004fa:	0240      	lsls	r0, r0, #9
 80004fc:	05d2      	lsls	r2, r2, #23
 80004fe:	0a40      	lsrs	r0, r0, #9
 8000500:	4310      	orrs	r0, r2
 8000502:	bd70      	pop	{r4, r5, r6, pc}
 8000504:	2200      	movs	r2, #0
 8000506:	2000      	movs	r0, #0
 8000508:	e7f7      	b.n	80004fa <__aeabi_ui2f+0x66>
 800050a:	0260      	lsls	r0, r4, #9
 800050c:	0a40      	lsrs	r0, r0, #9
 800050e:	e7f4      	b.n	80004fa <__aeabi_ui2f+0x66>
 8000510:	fbffffff 	.word	0xfbffffff

08000514 <__aeabi_dadd>:
 8000514:	b5f0      	push	{r4, r5, r6, r7, lr}
 8000516:	464f      	mov	r7, r9
 8000518:	4646      	mov	r6, r8
 800051a:	46d6      	mov	lr, sl
 800051c:	000c      	movs	r4, r1
 800051e:	0309      	lsls	r1, r1, #12
 8000520:	b5c0      	push	{r6, r7, lr}
 8000522:	0a49      	lsrs	r1, r1, #9
 8000524:	0f47      	lsrs	r7, r0, #29
 8000526:	005e      	lsls	r6, r3, #1
 8000528:	4339      	orrs	r1, r7
 800052a:	031f      	lsls	r7, r3, #12
 800052c:	0fdb      	lsrs	r3, r3, #31
 800052e:	469c      	mov	ip, r3
 8000530:	0065      	lsls	r5, r4, #1
 8000532:	0a7b      	lsrs	r3, r7, #9
 8000534:	0f57      	lsrs	r7, r2, #29
 8000536:	431f      	orrs	r7, r3
 8000538:	0d6d      	lsrs	r5, r5, #21
 800053a:	0fe4      	lsrs	r4, r4, #31
 800053c:	0d76      	lsrs	r6, r6, #21
 800053e:	46a1      	mov	r9, r4
 8000540:	00c0      	lsls	r0, r0, #3
 8000542:	46b8      	mov	r8, r7
 8000544:	00d2      	lsls	r2, r2, #3
 8000546:	1bab      	subs	r3, r5, r6
 8000548:	4564      	cmp	r4, ip
 800054a:	d07b      	beq.n	8000644 <__aeabi_dadd+0x130>
 800054c:	2b00      	cmp	r3, #0
 800054e:	dd5f      	ble.n	8000610 <__aeabi_dadd+0xfc>
 8000550:	2e00      	cmp	r6, #0
 8000552:	d000      	beq.n	8000556 <__aeabi_dadd+0x42>
 8000554:	e0a4      	b.n	80006a0 <__aeabi_dadd+0x18c>
 8000556:	003e      	movs	r6, r7
 8000558:	4316      	orrs	r6, r2
 800055a:	d100      	bne.n	800055e <__aeabi_dadd+0x4a>
 800055c:	e112      	b.n	8000784 <__aeabi_dadd+0x270>
 800055e:	1e5e      	subs	r6, r3, #1
 8000560:	2e00      	cmp	r6, #0
 8000562:	d000      	beq.n	8000566 <__aeabi_dadd+0x52>
 8000564:	e19e      	b.n	80008a4 <__aeabi_dadd+0x390>
 8000566:	1a87      	subs	r7, r0, r2
 8000568:	4643      	mov	r3, r8
 800056a:	42b8      	cmp	r0, r7
 800056c:	4180      	sbcs	r0, r0
 800056e:	2501      	movs	r5, #1
 8000570:	1ac9      	subs	r1, r1, r3
 8000572:	4240      	negs	r0, r0
 8000574:	1a09      	subs	r1, r1, r0
 8000576:	020b      	lsls	r3, r1, #8
 8000578:	d400      	bmi.n	800057c <__aeabi_dadd+0x68>
 800057a:	e131      	b.n	80007e0 <__aeabi_dadd+0x2cc>
 800057c:	0249      	lsls	r1, r1, #9
 800057e:	0a4e      	lsrs	r6, r1, #9
 8000580:	2e00      	cmp	r6, #0
 8000582:	d100      	bne.n	8000586 <__aeabi_dadd+0x72>
 8000584:	e16e      	b.n	8000864 <__aeabi_dadd+0x350>
 8000586:	0030      	movs	r0, r6
 8000588:	f001 fe38 	bl	80021fc <__clzsi2>
 800058c:	0003      	movs	r3, r0
 800058e:	3b08      	subs	r3, #8
 8000590:	2b1f      	cmp	r3, #31
 8000592:	dd00      	ble.n	8000596 <__aeabi_dadd+0x82>
 8000594:	e161      	b.n	800085a <__aeabi_dadd+0x346>
 8000596:	2220      	movs	r2, #32
 8000598:	0039      	movs	r1, r7
 800059a:	1ad2      	subs	r2, r2, r3
 800059c:	409e      	lsls	r6, r3
 800059e:	40d1      	lsrs	r1, r2
 80005a0:	409f      	lsls	r7, r3
 80005a2:	430e      	orrs	r6, r1
 80005a4:	429d      	cmp	r5, r3
 80005a6:	dd00      	ble.n	80005aa <__aeabi_dadd+0x96>
 80005a8:	e151      	b.n	800084e <__aeabi_dadd+0x33a>
 80005aa:	1b5d      	subs	r5, r3, r5
 80005ac:	1c6b      	adds	r3, r5, #1
 80005ae:	2b1f      	cmp	r3, #31
 80005b0:	dd00      	ble.n	80005b4 <__aeabi_dadd+0xa0>
 80005b2:	e17c      	b.n	80008ae <__aeabi_dadd+0x39a>
 80005b4:	2120      	movs	r1, #32
 80005b6:	1ac9      	subs	r1, r1, r3
 80005b8:	003d      	movs	r5, r7
 80005ba:	0030      	movs	r0, r6
 80005bc:	408f      	lsls	r7, r1
 80005be:	4088      	lsls	r0, r1
 80005c0:	40dd      	lsrs	r5, r3
 80005c2:	1e79      	subs	r1, r7, #1
 80005c4:	418f      	sbcs	r7, r1
 80005c6:	0031      	movs	r1, r6
 80005c8:	2207      	movs	r2, #7
 80005ca:	4328      	orrs	r0, r5
 80005cc:	40d9      	lsrs	r1, r3
 80005ce:	2500      	movs	r5, #0
 80005d0:	4307      	orrs	r7, r0
 80005d2:	403a      	ands	r2, r7
 80005d4:	2a00      	cmp	r2, #0
 80005d6:	d009      	beq.n	80005ec <__aeabi_dadd+0xd8>
 80005d8:	230f      	movs	r3, #15
 80005da:	403b      	ands	r3, r7
 80005dc:	2b04      	cmp	r3, #4
 80005de:	d005      	beq.n	80005ec <__aeabi_dadd+0xd8>
 80005e0:	1d3b      	adds	r3, r7, #4
 80005e2:	42bb      	cmp	r3, r7
 80005e4:	41bf      	sbcs	r7, r7
 80005e6:	427f      	negs	r7, r7
 80005e8:	19c9      	adds	r1, r1, r7
 80005ea:	001f      	movs	r7, r3
 80005ec:	020b      	lsls	r3, r1, #8
 80005ee:	d400      	bmi.n	80005f2 <__aeabi_dadd+0xde>
 80005f0:	e226      	b.n	8000a40 <__aeabi_dadd+0x52c>
 80005f2:	1c6a      	adds	r2, r5, #1
 80005f4:	4bc6      	ldr	r3, [pc, #792]	; (8000910 <__aeabi_dadd+0x3fc>)
 80005f6:	0555      	lsls	r5, r2, #21
 80005f8:	0d6d      	lsrs	r5, r5, #21
 80005fa:	429a      	cmp	r2, r3
 80005fc:	d100      	bne.n	8000600 <__aeabi_dadd+0xec>
 80005fe:	e106      	b.n	800080e <__aeabi_dadd+0x2fa>
 8000600:	4ac4      	ldr	r2, [pc, #784]	; (8000914 <__aeabi_dadd+0x400>)
 8000602:	08ff      	lsrs	r7, r7, #3
 8000604:	400a      	ands	r2, r1
 8000606:	0753      	lsls	r3, r2, #29
 8000608:	0252      	lsls	r2, r2, #9
 800060a:	433b      	orrs	r3, r7
 800060c:	0b12      	lsrs	r2, r2, #12
 800060e:	e08e      	b.n	800072e <__aeabi_dadd+0x21a>
 8000610:	2b00      	cmp	r3, #0
 8000612:	d000      	beq.n	8000616 <__aeabi_dadd+0x102>
 8000614:	e0b8      	b.n	8000788 <__aeabi_dadd+0x274>
 8000616:	1c6b      	adds	r3, r5, #1
 8000618:	055b      	lsls	r3, r3, #21
 800061a:	0d5b      	lsrs	r3, r3, #21
 800061c:	2b01      	cmp	r3, #1
 800061e:	dc00      	bgt.n	8000622 <__aeabi_dadd+0x10e>
 8000620:	e130      	b.n	8000884 <__aeabi_dadd+0x370>
 8000622:	1a87      	subs	r7, r0, r2
 8000624:	4643      	mov	r3, r8
 8000626:	42b8      	cmp	r0, r7
 8000628:	41b6      	sbcs	r6, r6
 800062a:	1acb      	subs	r3, r1, r3
 800062c:	4276      	negs	r6, r6
 800062e:	1b9e      	subs	r6, r3, r6
 8000630:	0233      	lsls	r3, r6, #8
 8000632:	d500      	bpl.n	8000636 <__aeabi_dadd+0x122>
 8000634:	e14c      	b.n	80008d0 <__aeabi_dadd+0x3bc>
 8000636:	003b      	movs	r3, r7
 8000638:	4333      	orrs	r3, r6
 800063a:	d1a1      	bne.n	8000580 <__aeabi_dadd+0x6c>
 800063c:	2200      	movs	r2, #0
 800063e:	2400      	movs	r4, #0
 8000640:	2500      	movs	r5, #0
 8000642:	e070      	b.n	8000726 <__aeabi_dadd+0x212>
 8000644:	2b00      	cmp	r3, #0
 8000646:	dc00      	bgt.n	800064a <__aeabi_dadd+0x136>
 8000648:	e0e5      	b.n	8000816 <__aeabi_dadd+0x302>
 800064a:	2e00      	cmp	r6, #0
 800064c:	d100      	bne.n	8000650 <__aeabi_dadd+0x13c>
 800064e:	e083      	b.n	8000758 <__aeabi_dadd+0x244>
 8000650:	4eaf      	ldr	r6, [pc, #700]	; (8000910 <__aeabi_dadd+0x3fc>)
 8000652:	42b5      	cmp	r5, r6
 8000654:	d060      	beq.n	8000718 <__aeabi_dadd+0x204>
 8000656:	2680      	movs	r6, #128	; 0x80
 8000658:	0436      	lsls	r6, r6, #16
 800065a:	4337      	orrs	r7, r6
 800065c:	46b8      	mov	r8, r7
 800065e:	2b38      	cmp	r3, #56	; 0x38
 8000660:	dc00      	bgt.n	8000664 <__aeabi_dadd+0x150>
 8000662:	e13e      	b.n	80008e2 <__aeabi_dadd+0x3ce>
 8000664:	4643      	mov	r3, r8
 8000666:	4313      	orrs	r3, r2
 8000668:	001f      	movs	r7, r3
 800066a:	1e7a      	subs	r2, r7, #1
 800066c:	4197      	sbcs	r7, r2
 800066e:	183f      	adds	r7, r7, r0
 8000670:	4287      	cmp	r7, r0
 8000672:	4180      	sbcs	r0, r0
 8000674:	4240      	negs	r0, r0
 8000676:	1809      	adds	r1, r1, r0
 8000678:	020b      	lsls	r3, r1, #8
 800067a:	d400      	bmi.n	800067e <__aeabi_dadd+0x16a>
 800067c:	e0b0      	b.n	80007e0 <__aeabi_dadd+0x2cc>
 800067e:	4ba4      	ldr	r3, [pc, #656]	; (8000910 <__aeabi_dadd+0x3fc>)
 8000680:	3501      	adds	r5, #1
 8000682:	429d      	cmp	r5, r3
 8000684:	d100      	bne.n	8000688 <__aeabi_dadd+0x174>
 8000686:	e0c3      	b.n	8000810 <__aeabi_dadd+0x2fc>
 8000688:	4aa2      	ldr	r2, [pc, #648]	; (8000914 <__aeabi_dadd+0x400>)
 800068a:	087b      	lsrs	r3, r7, #1
 800068c:	400a      	ands	r2, r1
 800068e:	2101      	movs	r1, #1
 8000690:	400f      	ands	r7, r1
 8000692:	431f      	orrs	r7, r3
 8000694:	0851      	lsrs	r1, r2, #1
 8000696:	07d3      	lsls	r3, r2, #31
 8000698:	2207      	movs	r2, #7
 800069a:	431f      	orrs	r7, r3
 800069c:	403a      	ands	r2, r7
 800069e:	e799      	b.n	80005d4 <__aeabi_dadd+0xc0>
 80006a0:	4e9b      	ldr	r6, [pc, #620]	; (8000910 <__aeabi_dadd+0x3fc>)
 80006a2:	42b5      	cmp	r5, r6
 80006a4:	d038      	beq.n	8000718 <__aeabi_dadd+0x204>
 80006a6:	2680      	movs	r6, #128	; 0x80
 80006a8:	0436      	lsls	r6, r6, #16
 80006aa:	4337      	orrs	r7, r6
 80006ac:	46b8      	mov	r8, r7
 80006ae:	2b38      	cmp	r3, #56	; 0x38
 80006b0:	dd00      	ble.n	80006b4 <__aeabi_dadd+0x1a0>
 80006b2:	e0dc      	b.n	800086e <__aeabi_dadd+0x35a>
 80006b4:	2b1f      	cmp	r3, #31
 80006b6:	dc00      	bgt.n	80006ba <__aeabi_dadd+0x1a6>
 80006b8:	e130      	b.n	800091c <__aeabi_dadd+0x408>
 80006ba:	001e      	movs	r6, r3
 80006bc:	4647      	mov	r7, r8
 80006be:	3e20      	subs	r6, #32
 80006c0:	40f7      	lsrs	r7, r6
 80006c2:	46bc      	mov	ip, r7
 80006c4:	2b20      	cmp	r3, #32
 80006c6:	d004      	beq.n	80006d2 <__aeabi_dadd+0x1be>
 80006c8:	2640      	movs	r6, #64	; 0x40
 80006ca:	1af3      	subs	r3, r6, r3
 80006cc:	4646      	mov	r6, r8
 80006ce:	409e      	lsls	r6, r3
 80006d0:	4332      	orrs	r2, r6
 80006d2:	0017      	movs	r7, r2
 80006d4:	4663      	mov	r3, ip
 80006d6:	1e7a      	subs	r2, r7, #1
 80006d8:	4197      	sbcs	r7, r2
 80006da:	431f      	orrs	r7, r3
 80006dc:	e0cc      	b.n	8000878 <__aeabi_dadd+0x364>
 80006de:	2b00      	cmp	r3, #0
 80006e0:	d100      	bne.n	80006e4 <__aeabi_dadd+0x1d0>
 80006e2:	e204      	b.n	8000aee <__aeabi_dadd+0x5da>
 80006e4:	4643      	mov	r3, r8
 80006e6:	4313      	orrs	r3, r2
 80006e8:	d100      	bne.n	80006ec <__aeabi_dadd+0x1d8>
 80006ea:	e159      	b.n	80009a0 <__aeabi_dadd+0x48c>
 80006ec:	074b      	lsls	r3, r1, #29
 80006ee:	08c0      	lsrs	r0, r0, #3
 80006f0:	4318      	orrs	r0, r3
 80006f2:	2380      	movs	r3, #128	; 0x80
 80006f4:	08c9      	lsrs	r1, r1, #3
 80006f6:	031b      	lsls	r3, r3, #12
 80006f8:	4219      	tst	r1, r3
 80006fa:	d008      	beq.n	800070e <__aeabi_dadd+0x1fa>
 80006fc:	4645      	mov	r5, r8
 80006fe:	08ed      	lsrs	r5, r5, #3
 8000700:	421d      	tst	r5, r3
 8000702:	d104      	bne.n	800070e <__aeabi_dadd+0x1fa>
 8000704:	4643      	mov	r3, r8
 8000706:	08d0      	lsrs	r0, r2, #3
 8000708:	0759      	lsls	r1, r3, #29
 800070a:	4308      	orrs	r0, r1
 800070c:	0029      	movs	r1, r5
 800070e:	0f42      	lsrs	r2, r0, #29
 8000710:	00c9      	lsls	r1, r1, #3
 8000712:	4d7f      	ldr	r5, [pc, #508]	; (8000910 <__aeabi_dadd+0x3fc>)
 8000714:	4311      	orrs	r1, r2
 8000716:	00c0      	lsls	r0, r0, #3
 8000718:	074b      	lsls	r3, r1, #29
 800071a:	08ca      	lsrs	r2, r1, #3
 800071c:	497c      	ldr	r1, [pc, #496]	; (8000910 <__aeabi_dadd+0x3fc>)
 800071e:	08c0      	lsrs	r0, r0, #3
 8000720:	4303      	orrs	r3, r0
 8000722:	428d      	cmp	r5, r1
 8000724:	d068      	beq.n	80007f8 <__aeabi_dadd+0x2e4>
 8000726:	0312      	lsls	r2, r2, #12
 8000728:	056d      	lsls	r5, r5, #21
 800072a:	0b12      	lsrs	r2, r2, #12
 800072c:	0d6d      	lsrs	r5, r5, #21
 800072e:	2100      	movs	r1, #0
 8000730:	0312      	lsls	r2, r2, #12
 8000732:	0018      	movs	r0, r3
 8000734:	0b13      	lsrs	r3, r2, #12
 8000736:	0d0a      	lsrs	r2, r1, #20
 8000738:	0512      	lsls	r2, r2, #20
 800073a:	431a      	orrs	r2, r3
 800073c:	4b76      	ldr	r3, [pc, #472]	; (8000918 <__aeabi_dadd+0x404>)
 800073e:	052d      	lsls	r5, r5, #20
 8000740:	4013      	ands	r3, r2
 8000742:	432b      	orrs	r3, r5
 8000744:	005b      	lsls	r3, r3, #1
 8000746:	07e4      	lsls	r4, r4, #31
 8000748:	085b      	lsrs	r3, r3, #1
 800074a:	4323      	orrs	r3, r4
 800074c:	0019      	movs	r1, r3
 800074e:	bc1c      	pop	{r2, r3, r4}
 8000750:	4690      	mov	r8, r2
 8000752:	4699      	mov	r9, r3
 8000754:	46a2      	mov	sl, r4
 8000756:	bdf0      	pop	{r4, r5, r6, r7, pc}
 8000758:	003e      	movs	r6, r7
 800075a:	4316      	orrs	r6, r2
 800075c:	d012      	beq.n	8000784 <__aeabi_dadd+0x270>
 800075e:	1e5e      	subs	r6, r3, #1
 8000760:	2e00      	cmp	r6, #0
 8000762:	d000      	beq.n	8000766 <__aeabi_dadd+0x252>
 8000764:	e100      	b.n	8000968 <__aeabi_dadd+0x454>
 8000766:	1887      	adds	r7, r0, r2
 8000768:	4287      	cmp	r7, r0
 800076a:	4180      	sbcs	r0, r0
 800076c:	4441      	add	r1, r8
 800076e:	4240      	negs	r0, r0
 8000770:	1809      	adds	r1, r1, r0
 8000772:	2501      	movs	r5, #1
 8000774:	020b      	lsls	r3, r1, #8
 8000776:	d533      	bpl.n	80007e0 <__aeabi_dadd+0x2cc>
 8000778:	2502      	movs	r5, #2
 800077a:	e785      	b.n	8000688 <__aeabi_dadd+0x174>
 800077c:	4664      	mov	r4, ip
 800077e:	0033      	movs	r3, r6
 8000780:	4641      	mov	r1, r8
 8000782:	0010      	movs	r0, r2
 8000784:	001d      	movs	r5, r3
 8000786:	e7c7      	b.n	8000718 <__aeabi_dadd+0x204>
 8000788:	2d00      	cmp	r5, #0
 800078a:	d000      	beq.n	800078e <__aeabi_dadd+0x27a>
 800078c:	e0da      	b.n	8000944 <__aeabi_dadd+0x430>
 800078e:	000c      	movs	r4, r1
 8000790:	4304      	orrs	r4, r0
 8000792:	d0f3      	beq.n	800077c <__aeabi_dadd+0x268>
 8000794:	1c5c      	adds	r4, r3, #1
 8000796:	d100      	bne.n	800079a <__aeabi_dadd+0x286>
 8000798:	e19f      	b.n	8000ada <__aeabi_dadd+0x5c6>
 800079a:	4c5d      	ldr	r4, [pc, #372]	; (8000910 <__aeabi_dadd+0x3fc>)
 800079c:	42a6      	cmp	r6, r4
 800079e:	d100      	bne.n	80007a2 <__aeabi_dadd+0x28e>
 80007a0:	e12f      	b.n	8000a02 <__aeabi_dadd+0x4ee>
 80007a2:	43db      	mvns	r3, r3
 80007a4:	2b38      	cmp	r3, #56	; 0x38
 80007a6:	dd00      	ble.n	80007aa <__aeabi_dadd+0x296>
 80007a8:	e166      	b.n	8000a78 <__aeabi_dadd+0x564>
 80007aa:	2b1f      	cmp	r3, #31
 80007ac:	dd00      	ble.n	80007b0 <__aeabi_dadd+0x29c>
 80007ae:	e183      	b.n	8000ab8 <__aeabi_dadd+0x5a4>
 80007b0:	2420      	movs	r4, #32
 80007b2:	0005      	movs	r5, r0
 80007b4:	1ae4      	subs	r4, r4, r3
 80007b6:	000f      	movs	r7, r1
 80007b8:	40dd      	lsrs	r5, r3
 80007ba:	40d9      	lsrs	r1, r3
 80007bc:	40a0      	lsls	r0, r4
 80007be:	4643      	mov	r3, r8
 80007c0:	40a7      	lsls	r7, r4
 80007c2:	1a5b      	subs	r3, r3, r1
 80007c4:	1e44      	subs	r4, r0, #1
 80007c6:	41a0      	sbcs	r0, r4
 80007c8:	4698      	mov	r8, r3
 80007ca:	432f      	orrs	r7, r5
 80007cc:	4338      	orrs	r0, r7
 80007ce:	1a17      	subs	r7, r2, r0
 80007d0:	42ba      	cmp	r2, r7
 80007d2:	4192      	sbcs	r2, r2
 80007d4:	4643      	mov	r3, r8
 80007d6:	4252      	negs	r2, r2
 80007d8:	1a99      	subs	r1, r3, r2
 80007da:	4664      	mov	r4, ip
 80007dc:	0035      	movs	r5, r6
 80007de:	e6ca      	b.n	8000576 <__aeabi_dadd+0x62>
 80007e0:	2207      	movs	r2, #7
 80007e2:	403a      	ands	r2, r7
 80007e4:	2a00      	cmp	r2, #0
 80007e6:	d000      	beq.n	80007ea <__aeabi_dadd+0x2d6>
 80007e8:	e6f6      	b.n	80005d8 <__aeabi_dadd+0xc4>
 80007ea:	074b      	lsls	r3, r1, #29
 80007ec:	08ca      	lsrs	r2, r1, #3
 80007ee:	4948      	ldr	r1, [pc, #288]	; (8000910 <__aeabi_dadd+0x3fc>)
 80007f0:	08ff      	lsrs	r7, r7, #3
 80007f2:	433b      	orrs	r3, r7
 80007f4:	428d      	cmp	r5, r1
 80007f6:	d196      	bne.n	8000726 <__aeabi_dadd+0x212>
 80007f8:	0019      	movs	r1, r3
 80007fa:	4311      	orrs	r1, r2
 80007fc:	d100      	bne.n	8000800 <__aeabi_dadd+0x2ec>
 80007fe:	e19e      	b.n	8000b3e <__aeabi_dadd+0x62a>
 8000800:	2180      	movs	r1, #128	; 0x80
 8000802:	0309      	lsls	r1, r1, #12
 8000804:	430a      	orrs	r2, r1
 8000806:	0312      	lsls	r2, r2, #12
 8000808:	0b12      	lsrs	r2, r2, #12
 800080a:	4d41      	ldr	r5, [pc, #260]	; (8000910 <__aeabi_dadd+0x3fc>)
 800080c:	e78f      	b.n	800072e <__aeabi_dadd+0x21a>
 800080e:	0015      	movs	r5, r2
 8000810:	2200      	movs	r2, #0
 8000812:	2300      	movs	r3, #0
 8000814:	e78b      	b.n	800072e <__aeabi_dadd+0x21a>
 8000816:	2b00      	cmp	r3, #0
 8000818:	d000      	beq.n	800081c <__aeabi_dadd+0x308>
 800081a:	e0c7      	b.n	80009ac <__aeabi_dadd+0x498>
 800081c:	1c6b      	adds	r3, r5, #1
 800081e:	055f      	lsls	r7, r3, #21
 8000820:	0d7f      	lsrs	r7, r7, #21
 8000822:	2f01      	cmp	r7, #1
 8000824:	dc00      	bgt.n	8000828 <__aeabi_dadd+0x314>
 8000826:	e0f1      	b.n	8000a0c <__aeabi_dadd+0x4f8>
 8000828:	4d39      	ldr	r5, [pc, #228]	; (8000910 <__aeabi_dadd+0x3fc>)
 800082a:	42ab      	cmp	r3, r5
 800082c:	d100      	bne.n	8000830 <__aeabi_dadd+0x31c>
 800082e:	e0b9      	b.n	80009a4 <__aeabi_dadd+0x490>
 8000830:	1885      	adds	r5, r0, r2
 8000832:	000a      	movs	r2, r1
 8000834:	4285      	cmp	r5, r0
 8000836:	4189      	sbcs	r1, r1
 8000838:	4442      	add	r2, r8
 800083a:	4249      	negs	r1, r1
 800083c:	1851      	adds	r1, r2, r1
 800083e:	2207      	movs	r2, #7
 8000840:	07cf      	lsls	r7, r1, #31
 8000842:	086d      	lsrs	r5, r5, #1
 8000844:	432f      	orrs	r7, r5
 8000846:	0849      	lsrs	r1, r1, #1
 8000848:	403a      	ands	r2, r7
 800084a:	001d      	movs	r5, r3
 800084c:	e6c2      	b.n	80005d4 <__aeabi_dadd+0xc0>
 800084e:	2207      	movs	r2, #7
 8000850:	4930      	ldr	r1, [pc, #192]	; (8000914 <__aeabi_dadd+0x400>)
 8000852:	1aed      	subs	r5, r5, r3
 8000854:	4031      	ands	r1, r6
 8000856:	403a      	ands	r2, r7
 8000858:	e6bc      	b.n	80005d4 <__aeabi_dadd+0xc0>
 800085a:	003e      	movs	r6, r7
 800085c:	3828      	subs	r0, #40	; 0x28
 800085e:	4086      	lsls	r6, r0
 8000860:	2700      	movs	r7, #0
 8000862:	e69f      	b.n	80005a4 <__aeabi_dadd+0x90>
 8000864:	0038      	movs	r0, r7
 8000866:	f001 fcc9 	bl	80021fc <__clzsi2>
 800086a:	3020      	adds	r0, #32
 800086c:	e68e      	b.n	800058c <__aeabi_dadd+0x78>
 800086e:	4643      	mov	r3, r8
 8000870:	4313      	orrs	r3, r2
 8000872:	001f      	movs	r7, r3
 8000874:	1e7a      	subs	r2, r7, #1
 8000876:	4197      	sbcs	r7, r2
 8000878:	1bc7      	subs	r7, r0, r7
 800087a:	42b8      	cmp	r0, r7
 800087c:	4180      	sbcs	r0, r0
 800087e:	4240      	negs	r0, r0
 8000880:	1a09      	subs	r1, r1, r0
 8000882:	e678      	b.n	8000576 <__aeabi_dadd+0x62>
 8000884:	000e      	movs	r6, r1
 8000886:	003b      	movs	r3, r7
 8000888:	4306      	orrs	r6, r0
 800088a:	4313      	orrs	r3, r2
 800088c:	2d00      	cmp	r5, #0
 800088e:	d161      	bne.n	8000954 <__aeabi_dadd+0x440>
 8000890:	2e00      	cmp	r6, #0
 8000892:	d000      	beq.n	8000896 <__aeabi_dadd+0x382>
 8000894:	e0f4      	b.n	8000a80 <__aeabi_dadd+0x56c>
 8000896:	2b00      	cmp	r3, #0
 8000898:	d100      	bne.n	800089c <__aeabi_dadd+0x388>
 800089a:	e11b      	b.n	8000ad4 <__aeabi_dadd+0x5c0>
 800089c:	4664      	mov	r4, ip
 800089e:	0039      	movs	r1, r7
 80008a0:	0010      	movs	r0, r2
 80008a2:	e739      	b.n	8000718 <__aeabi_dadd+0x204>
 80008a4:	4f1a      	ldr	r7, [pc, #104]	; (8000910 <__aeabi_dadd+0x3fc>)
 80008a6:	42bb      	cmp	r3, r7
 80008a8:	d07a      	beq.n	80009a0 <__aeabi_dadd+0x48c>
 80008aa:	0033      	movs	r3, r6
 80008ac:	e6ff      	b.n	80006ae <__aeabi_dadd+0x19a>
 80008ae:	0030      	movs	r0, r6
 80008b0:	3d1f      	subs	r5, #31
 80008b2:	40e8      	lsrs	r0, r5
 80008b4:	2b20      	cmp	r3, #32
 80008b6:	d003      	beq.n	80008c0 <__aeabi_dadd+0x3ac>
 80008b8:	2140      	movs	r1, #64	; 0x40
 80008ba:	1acb      	subs	r3, r1, r3
 80008bc:	409e      	lsls	r6, r3
 80008be:	4337      	orrs	r7, r6
 80008c0:	1e7b      	subs	r3, r7, #1
 80008c2:	419f      	sbcs	r7, r3
 80008c4:	2207      	movs	r2, #7
 80008c6:	4307      	orrs	r7, r0
 80008c8:	403a      	ands	r2, r7
 80008ca:	2100      	movs	r1, #0
 80008cc:	2500      	movs	r5, #0
 80008ce:	e789      	b.n	80007e4 <__aeabi_dadd+0x2d0>
 80008d0:	1a17      	subs	r7, r2, r0
 80008d2:	4643      	mov	r3, r8
 80008d4:	42ba      	cmp	r2, r7
 80008d6:	41b6      	sbcs	r6, r6
 80008d8:	1a59      	subs	r1, r3, r1
 80008da:	4276      	negs	r6, r6
 80008dc:	1b8e      	subs	r6, r1, r6
 80008de:	4664      	mov	r4, ip
 80008e0:	e64e      	b.n	8000580 <__aeabi_dadd+0x6c>
 80008e2:	2b1f      	cmp	r3, #31
 80008e4:	dd00      	ble.n	80008e8 <__aeabi_dadd+0x3d4>
 80008e6:	e0ad      	b.n	8000a44 <__aeabi_dadd+0x530>
 80008e8:	2620      	movs	r6, #32
 80008ea:	4647      	mov	r7, r8
 80008ec:	1af6      	subs	r6, r6, r3
 80008ee:	40b7      	lsls	r7, r6
 80008f0:	46b9      	mov	r9, r7
 80008f2:	0017      	movs	r7, r2
 80008f4:	46b2      	mov	sl, r6
 80008f6:	40df      	lsrs	r7, r3
 80008f8:	464e      	mov	r6, r9
 80008fa:	433e      	orrs	r6, r7
 80008fc:	0037      	movs	r7, r6
 80008fe:	4656      	mov	r6, sl
 8000900:	40b2      	lsls	r2, r6
 8000902:	1e56      	subs	r6, r2, #1
 8000904:	41b2      	sbcs	r2, r6
 8000906:	4317      	orrs	r7, r2
 8000908:	4642      	mov	r2, r8
 800090a:	40da      	lsrs	r2, r3
 800090c:	1889      	adds	r1, r1, r2
 800090e:	e6ae      	b.n	800066e <__aeabi_dadd+0x15a>
 8000910:	000007ff 	.word	0x000007ff
 8000914:	ff7fffff 	.word	0xff7fffff
 8000918:	800fffff 	.word	0x800fffff
 800091c:	2620      	movs	r6, #32
 800091e:	4647      	mov	r7, r8
 8000920:	1af6      	subs	r6, r6, r3
 8000922:	40b7      	lsls	r7, r6
 8000924:	46b9      	mov	r9, r7
 8000926:	0017      	movs	r7, r2
 8000928:	46b2      	mov	sl, r6
 800092a:	40df      	lsrs	r7, r3
 800092c:	464e      	mov	r6, r9
 800092e:	433e      	orrs	r6, r7
 8000930:	0037      	movs	r7, r6
 8000932:	4656      	mov	r6, sl
 8000934:	40b2      	lsls	r2, r6
 8000936:	1e56      	subs	r6, r2, #1
 8000938:	41b2      	sbcs	r2, r6
 800093a:	4317      	orrs	r7, r2
 800093c:	4642      	mov	r2, r8
 800093e:	40da      	lsrs	r2, r3
 8000940:	1a89      	subs	r1, r1, r2
 8000942:	e799      	b.n	8000878 <__aeabi_dadd+0x364>
 8000944:	4c7f      	ldr	r4, [pc, #508]	; (8000b44 <__aeabi_dadd+0x630>)
 8000946:	42a6      	cmp	r6, r4
 8000948:	d05b      	beq.n	8000a02 <__aeabi_dadd+0x4ee>
 800094a:	2480      	movs	r4, #128	; 0x80
 800094c:	0424      	lsls	r4, r4, #16
 800094e:	425b      	negs	r3, r3
 8000950:	4321      	orrs	r1, r4
 8000952:	e727      	b.n	80007a4 <__aeabi_dadd+0x290>
 8000954:	2e00      	cmp	r6, #0
 8000956:	d10c      	bne.n	8000972 <__aeabi_dadd+0x45e>
 8000958:	2b00      	cmp	r3, #0
 800095a:	d100      	bne.n	800095e <__aeabi_dadd+0x44a>
 800095c:	e0cb      	b.n	8000af6 <__aeabi_dadd+0x5e2>
 800095e:	4664      	mov	r4, ip
 8000960:	0039      	movs	r1, r7
 8000962:	0010      	movs	r0, r2
 8000964:	4d77      	ldr	r5, [pc, #476]	; (8000b44 <__aeabi_dadd+0x630>)
 8000966:	e6d7      	b.n	8000718 <__aeabi_dadd+0x204>
 8000968:	4f76      	ldr	r7, [pc, #472]	; (8000b44 <__aeabi_dadd+0x630>)
 800096a:	42bb      	cmp	r3, r7
 800096c:	d018      	beq.n	80009a0 <__aeabi_dadd+0x48c>
 800096e:	0033      	movs	r3, r6
 8000970:	e675      	b.n	800065e <__aeabi_dadd+0x14a>
 8000972:	2b00      	cmp	r3, #0
 8000974:	d014      	beq.n	80009a0 <__aeabi_dadd+0x48c>
 8000976:	074b      	lsls	r3, r1, #29
 8000978:	08c0      	lsrs	r0, r0, #3
 800097a:	4318      	orrs	r0, r3
 800097c:	2380      	movs	r3, #128	; 0x80
 800097e:	08c9      	lsrs	r1, r1, #3
 8000980:	031b      	lsls	r3, r3, #12
 8000982:	4219      	tst	r1, r3
 8000984:	d007      	beq.n	8000996 <__aeabi_dadd+0x482>
 8000986:	08fc      	lsrs	r4, r7, #3
 8000988:	421c      	tst	r4, r3
 800098a:	d104      	bne.n	8000996 <__aeabi_dadd+0x482>
 800098c:	0779      	lsls	r1, r7, #29
 800098e:	08d0      	lsrs	r0, r2, #3
 8000990:	4308      	orrs	r0, r1
 8000992:	46e1      	mov	r9, ip
 8000994:	0021      	movs	r1, r4
 8000996:	464c      	mov	r4, r9
 8000998:	0f42      	lsrs	r2, r0, #29
 800099a:	00c9      	lsls	r1, r1, #3
 800099c:	4311      	orrs	r1, r2
 800099e:	00c0      	lsls	r0, r0, #3
 80009a0:	4d68      	ldr	r5, [pc, #416]	; (8000b44 <__aeabi_dadd+0x630>)
 80009a2:	e6b9      	b.n	8000718 <__aeabi_dadd+0x204>
 80009a4:	001d      	movs	r5, r3
 80009a6:	2200      	movs	r2, #0
 80009a8:	2300      	movs	r3, #0
 80009aa:	e6c0      	b.n	800072e <__aeabi_dadd+0x21a>
 80009ac:	2d00      	cmp	r5, #0
 80009ae:	d15b      	bne.n	8000a68 <__aeabi_dadd+0x554>
 80009b0:	000d      	movs	r5, r1
 80009b2:	4305      	orrs	r5, r0
 80009b4:	d100      	bne.n	80009b8 <__aeabi_dadd+0x4a4>
 80009b6:	e6e2      	b.n	800077e <__aeabi_dadd+0x26a>
 80009b8:	1c5d      	adds	r5, r3, #1
 80009ba:	d100      	bne.n	80009be <__aeabi_dadd+0x4aa>
 80009bc:	e0b0      	b.n	8000b20 <__aeabi_dadd+0x60c>
 80009be:	4d61      	ldr	r5, [pc, #388]	; (8000b44 <__aeabi_dadd+0x630>)
 80009c0:	42ae      	cmp	r6, r5
 80009c2:	d01f      	beq.n	8000a04 <__aeabi_dadd+0x4f0>
 80009c4:	43db      	mvns	r3, r3
 80009c6:	2b38      	cmp	r3, #56	; 0x38
 80009c8:	dc71      	bgt.n	8000aae <__aeabi_dadd+0x59a>
 80009ca:	2b1f      	cmp	r3, #31
 80009cc:	dd00      	ble.n	80009d0 <__aeabi_dadd+0x4bc>
 80009ce:	e096      	b.n	8000afe <__aeabi_dadd+0x5ea>
 80009d0:	2520      	movs	r5, #32
 80009d2:	000f      	movs	r7, r1
 80009d4:	1aed      	subs	r5, r5, r3
 80009d6:	40af      	lsls	r7, r5
 80009d8:	46b9      	mov	r9, r7
 80009da:	0007      	movs	r7, r0
 80009dc:	46aa      	mov	sl, r5
 80009de:	40df      	lsrs	r7, r3
 80009e0:	464d      	mov	r5, r9
 80009e2:	433d      	orrs	r5, r7
 80009e4:	002f      	movs	r7, r5
 80009e6:	4655      	mov	r5, sl
 80009e8:	40a8      	lsls	r0, r5
 80009ea:	40d9      	lsrs	r1, r3
 80009ec:	1e45      	subs	r5, r0, #1
 80009ee:	41a8      	sbcs	r0, r5
 80009f0:	4488      	add	r8, r1
 80009f2:	4307      	orrs	r7, r0
 80009f4:	18bf      	adds	r7, r7, r2
 80009f6:	4297      	cmp	r7, r2
 80009f8:	4192      	sbcs	r2, r2
 80009fa:	4251      	negs	r1, r2
 80009fc:	4441      	add	r1, r8
 80009fe:	0035      	movs	r5, r6
 8000a00:	e63a      	b.n	8000678 <__aeabi_dadd+0x164>
 8000a02:	4664      	mov	r4, ip
 8000a04:	0035      	movs	r5, r6
 8000a06:	4641      	mov	r1, r8
 8000a08:	0010      	movs	r0, r2
 8000a0a:	e685      	b.n	8000718 <__aeabi_dadd+0x204>
 8000a0c:	000b      	movs	r3, r1
 8000a0e:	4303      	orrs	r3, r0
 8000a10:	2d00      	cmp	r5, #0
 8000a12:	d000      	beq.n	8000a16 <__aeabi_dadd+0x502>
 8000a14:	e663      	b.n	80006de <__aeabi_dadd+0x1ca>
 8000a16:	2b00      	cmp	r3, #0
 8000a18:	d0f5      	beq.n	8000a06 <__aeabi_dadd+0x4f2>
 8000a1a:	4643      	mov	r3, r8
 8000a1c:	4313      	orrs	r3, r2
 8000a1e:	d100      	bne.n	8000a22 <__aeabi_dadd+0x50e>
 8000a20:	e67a      	b.n	8000718 <__aeabi_dadd+0x204>
 8000a22:	1887      	adds	r7, r0, r2
 8000a24:	4287      	cmp	r7, r0
 8000a26:	4180      	sbcs	r0, r0
 8000a28:	2207      	movs	r2, #7
 8000a2a:	4441      	add	r1, r8
 8000a2c:	4240      	negs	r0, r0
 8000a2e:	1809      	adds	r1, r1, r0
 8000a30:	403a      	ands	r2, r7
 8000a32:	020b      	lsls	r3, r1, #8
 8000a34:	d400      	bmi.n	8000a38 <__aeabi_dadd+0x524>
 8000a36:	e6d5      	b.n	80007e4 <__aeabi_dadd+0x2d0>
 8000a38:	4b43      	ldr	r3, [pc, #268]	; (8000b48 <__aeabi_dadd+0x634>)
 8000a3a:	3501      	adds	r5, #1
 8000a3c:	4019      	ands	r1, r3
 8000a3e:	e5c9      	b.n	80005d4 <__aeabi_dadd+0xc0>
 8000a40:	0038      	movs	r0, r7
 8000a42:	e669      	b.n	8000718 <__aeabi_dadd+0x204>
 8000a44:	001e      	movs	r6, r3
 8000a46:	4647      	mov	r7, r8
 8000a48:	3e20      	subs	r6, #32
 8000a4a:	40f7      	lsrs	r7, r6
 8000a4c:	46bc      	mov	ip, r7
 8000a4e:	2b20      	cmp	r3, #32
 8000a50:	d004      	beq.n	8000a5c <__aeabi_dadd+0x548>
 8000a52:	2640      	movs	r6, #64	; 0x40
 8000a54:	1af3      	subs	r3, r6, r3
 8000a56:	4646      	mov	r6, r8
 8000a58:	409e      	lsls	r6, r3
 8000a5a:	4332      	orrs	r2, r6
 8000a5c:	0017      	movs	r7, r2
 8000a5e:	4663      	mov	r3, ip
 8000a60:	1e7a      	subs	r2, r7, #1
 8000a62:	4197      	sbcs	r7, r2
 8000a64:	431f      	orrs	r7, r3
 8000a66:	e602      	b.n	800066e <__aeabi_dadd+0x15a>
 8000a68:	4d36      	ldr	r5, [pc, #216]	; (8000b44 <__aeabi_dadd+0x630>)
 8000a6a:	42ae      	cmp	r6, r5
 8000a6c:	d0ca      	beq.n	8000a04 <__aeabi_dadd+0x4f0>
 8000a6e:	2580      	movs	r5, #128	; 0x80
 8000a70:	042d      	lsls	r5, r5, #16
 8000a72:	425b      	negs	r3, r3
 8000a74:	4329      	orrs	r1, r5
 8000a76:	e7a6      	b.n	80009c6 <__aeabi_dadd+0x4b2>
 8000a78:	4308      	orrs	r0, r1
 8000a7a:	1e41      	subs	r1, r0, #1
 8000a7c:	4188      	sbcs	r0, r1
 8000a7e:	e6a6      	b.n	80007ce <__aeabi_dadd+0x2ba>
 8000a80:	2b00      	cmp	r3, #0
 8000a82:	d100      	bne.n	8000a86 <__aeabi_dadd+0x572>
 8000a84:	e648      	b.n	8000718 <__aeabi_dadd+0x204>
 8000a86:	1a87      	subs	r7, r0, r2
 8000a88:	4643      	mov	r3, r8
 8000a8a:	42b8      	cmp	r0, r7
 8000a8c:	41b6      	sbcs	r6, r6
 8000a8e:	1acb      	subs	r3, r1, r3
 8000a90:	4276      	negs	r6, r6
 8000a92:	1b9e      	subs	r6, r3, r6
 8000a94:	0233      	lsls	r3, r6, #8
 8000a96:	d54b      	bpl.n	8000b30 <__aeabi_dadd+0x61c>
 8000a98:	1a17      	subs	r7, r2, r0
 8000a9a:	4643      	mov	r3, r8
 8000a9c:	42ba      	cmp	r2, r7
 8000a9e:	4192      	sbcs	r2, r2
 8000aa0:	1a59      	subs	r1, r3, r1
 8000aa2:	4252      	negs	r2, r2
 8000aa4:	1a89      	subs	r1, r1, r2
 8000aa6:	2207      	movs	r2, #7
 8000aa8:	4664      	mov	r4, ip
 8000aaa:	403a      	ands	r2, r7
 8000aac:	e592      	b.n	80005d4 <__aeabi_dadd+0xc0>
 8000aae:	4301      	orrs	r1, r0
 8000ab0:	000f      	movs	r7, r1
 8000ab2:	1e79      	subs	r1, r7, #1
 8000ab4:	418f      	sbcs	r7, r1
 8000ab6:	e79d      	b.n	80009f4 <__aeabi_dadd+0x4e0>
 8000ab8:	001c      	movs	r4, r3
 8000aba:	000f      	movs	r7, r1
 8000abc:	3c20      	subs	r4, #32
 8000abe:	40e7      	lsrs	r7, r4
 8000ac0:	2b20      	cmp	r3, #32
 8000ac2:	d003      	beq.n	8000acc <__aeabi_dadd+0x5b8>
 8000ac4:	2440      	movs	r4, #64	; 0x40
 8000ac6:	1ae3      	subs	r3, r4, r3
 8000ac8:	4099      	lsls	r1, r3
 8000aca:	4308      	orrs	r0, r1
 8000acc:	1e41      	subs	r1, r0, #1
 8000ace:	4188      	sbcs	r0, r1
 8000ad0:	4338      	orrs	r0, r7
 8000ad2:	e67c      	b.n	80007ce <__aeabi_dadd+0x2ba>
 8000ad4:	2200      	movs	r2, #0
 8000ad6:	2400      	movs	r4, #0
 8000ad8:	e625      	b.n	8000726 <__aeabi_dadd+0x212>
 8000ada:	1a17      	subs	r7, r2, r0
 8000adc:	4643      	mov	r3, r8
 8000ade:	42ba      	cmp	r2, r7
 8000ae0:	4192      	sbcs	r2, r2
 8000ae2:	1a59      	subs	r1, r3, r1
 8000ae4:	4252      	negs	r2, r2
 8000ae6:	1a89      	subs	r1, r1, r2
 8000ae8:	4664      	mov	r4, ip
 8000aea:	0035      	movs	r5, r6
 8000aec:	e543      	b.n	8000576 <__aeabi_dadd+0x62>
 8000aee:	4641      	mov	r1, r8
 8000af0:	0010      	movs	r0, r2
 8000af2:	4d14      	ldr	r5, [pc, #80]	; (8000b44 <__aeabi_dadd+0x630>)
 8000af4:	e610      	b.n	8000718 <__aeabi_dadd+0x204>
 8000af6:	2280      	movs	r2, #128	; 0x80
 8000af8:	2400      	movs	r4, #0
 8000afa:	0312      	lsls	r2, r2, #12
 8000afc:	e680      	b.n	8000800 <__aeabi_dadd+0x2ec>
 8000afe:	001d      	movs	r5, r3
 8000b00:	000f      	movs	r7, r1
 8000b02:	3d20      	subs	r5, #32
 8000b04:	40ef      	lsrs	r7, r5
 8000b06:	46bc      	mov	ip, r7
 8000b08:	2b20      	cmp	r3, #32
 8000b0a:	d003      	beq.n	8000b14 <__aeabi_dadd+0x600>
 8000b0c:	2540      	movs	r5, #64	; 0x40
 8000b0e:	1aeb      	subs	r3, r5, r3
 8000b10:	4099      	lsls	r1, r3
 8000b12:	4308      	orrs	r0, r1
 8000b14:	0007      	movs	r7, r0
 8000b16:	4663      	mov	r3, ip
 8000b18:	1e78      	subs	r0, r7, #1
 8000b1a:	4187      	sbcs	r7, r0
 8000b1c:	431f      	orrs	r7, r3
 8000b1e:	e769      	b.n	80009f4 <__aeabi_dadd+0x4e0>
 8000b20:	1887      	adds	r7, r0, r2
 8000b22:	4297      	cmp	r7, r2
 8000b24:	419b      	sbcs	r3, r3
 8000b26:	4441      	add	r1, r8
 8000b28:	425b      	negs	r3, r3
 8000b2a:	18c9      	adds	r1, r1, r3
 8000b2c:	0035      	movs	r5, r6
 8000b2e:	e5a3      	b.n	8000678 <__aeabi_dadd+0x164>
 8000b30:	003b      	movs	r3, r7
 8000b32:	4333      	orrs	r3, r6
 8000b34:	d0ce      	beq.n	8000ad4 <__aeabi_dadd+0x5c0>
 8000b36:	2207      	movs	r2, #7
 8000b38:	0031      	movs	r1, r6
 8000b3a:	403a      	ands	r2, r7
 8000b3c:	e652      	b.n	80007e4 <__aeabi_dadd+0x2d0>
 8000b3e:	2300      	movs	r3, #0
 8000b40:	001a      	movs	r2, r3
 8000b42:	e5f4      	b.n	800072e <__aeabi_dadd+0x21a>
 8000b44:	000007ff 	.word	0x000007ff
 8000b48:	ff7fffff 	.word	0xff7fffff

08000b4c <__aeabi_ddiv>:
 8000b4c:	b5f0      	push	{r4, r5, r6, r7, lr}
 8000b4e:	4657      	mov	r7, sl
 8000b50:	46de      	mov	lr, fp
 8000b52:	464e      	mov	r6, r9
 8000b54:	4645      	mov	r5, r8
 8000b56:	b5e0      	push	{r5, r6, r7, lr}
 8000b58:	4683      	mov	fp, r0
 8000b5a:	0007      	movs	r7, r0
 8000b5c:	030e      	lsls	r6, r1, #12
 8000b5e:	0048      	lsls	r0, r1, #1
 8000b60:	b085      	sub	sp, #20
 8000b62:	4692      	mov	sl, r2
 8000b64:	001c      	movs	r4, r3
 8000b66:	0b36      	lsrs	r6, r6, #12
 8000b68:	0d40      	lsrs	r0, r0, #21
 8000b6a:	0fcd      	lsrs	r5, r1, #31
 8000b6c:	2800      	cmp	r0, #0
 8000b6e:	d100      	bne.n	8000b72 <__aeabi_ddiv+0x26>
 8000b70:	e09d      	b.n	8000cae <__aeabi_ddiv+0x162>
 8000b72:	4b95      	ldr	r3, [pc, #596]	; (8000dc8 <__aeabi_ddiv+0x27c>)
 8000b74:	4298      	cmp	r0, r3
 8000b76:	d039      	beq.n	8000bec <__aeabi_ddiv+0xa0>
 8000b78:	2380      	movs	r3, #128	; 0x80
 8000b7a:	00f6      	lsls	r6, r6, #3
 8000b7c:	041b      	lsls	r3, r3, #16
 8000b7e:	431e      	orrs	r6, r3
 8000b80:	4a92      	ldr	r2, [pc, #584]	; (8000dcc <__aeabi_ddiv+0x280>)
 8000b82:	0f7b      	lsrs	r3, r7, #29
 8000b84:	4333      	orrs	r3, r6
 8000b86:	4699      	mov	r9, r3
 8000b88:	4694      	mov	ip, r2
 8000b8a:	0003      	movs	r3, r0
 8000b8c:	4463      	add	r3, ip
 8000b8e:	9300      	str	r3, [sp, #0]
 8000b90:	2300      	movs	r3, #0
 8000b92:	2600      	movs	r6, #0
 8000b94:	00ff      	lsls	r7, r7, #3
 8000b96:	9302      	str	r3, [sp, #8]
 8000b98:	0323      	lsls	r3, r4, #12
 8000b9a:	0b1b      	lsrs	r3, r3, #12
 8000b9c:	4698      	mov	r8, r3
 8000b9e:	0063      	lsls	r3, r4, #1
 8000ba0:	0fe4      	lsrs	r4, r4, #31
 8000ba2:	4652      	mov	r2, sl
 8000ba4:	0d5b      	lsrs	r3, r3, #21
 8000ba6:	9401      	str	r4, [sp, #4]
 8000ba8:	d100      	bne.n	8000bac <__aeabi_ddiv+0x60>
 8000baa:	e0b3      	b.n	8000d14 <__aeabi_ddiv+0x1c8>
 8000bac:	4986      	ldr	r1, [pc, #536]	; (8000dc8 <__aeabi_ddiv+0x27c>)
 8000bae:	428b      	cmp	r3, r1
 8000bb0:	d100      	bne.n	8000bb4 <__aeabi_ddiv+0x68>
 8000bb2:	e09e      	b.n	8000cf2 <__aeabi_ddiv+0x1a6>
 8000bb4:	4642      	mov	r2, r8
 8000bb6:	00d1      	lsls	r1, r2, #3
 8000bb8:	2280      	movs	r2, #128	; 0x80
 8000bba:	0412      	lsls	r2, r2, #16
 8000bbc:	430a      	orrs	r2, r1
 8000bbe:	4651      	mov	r1, sl
 8000bc0:	0f49      	lsrs	r1, r1, #29
 8000bc2:	4311      	orrs	r1, r2
 8000bc4:	468b      	mov	fp, r1
 8000bc6:	4981      	ldr	r1, [pc, #516]	; (8000dcc <__aeabi_ddiv+0x280>)
 8000bc8:	4652      	mov	r2, sl
 8000bca:	468c      	mov	ip, r1
 8000bcc:	9900      	ldr	r1, [sp, #0]
 8000bce:	4463      	add	r3, ip
 8000bd0:	1acb      	subs	r3, r1, r3
 8000bd2:	2100      	movs	r1, #0
 8000bd4:	00d2      	lsls	r2, r2, #3
 8000bd6:	9300      	str	r3, [sp, #0]
 8000bd8:	002b      	movs	r3, r5
 8000bda:	4063      	eors	r3, r4
 8000bdc:	469a      	mov	sl, r3
 8000bde:	2e0f      	cmp	r6, #15
 8000be0:	d900      	bls.n	8000be4 <__aeabi_ddiv+0x98>
 8000be2:	e105      	b.n	8000df0 <__aeabi_ddiv+0x2a4>
 8000be4:	4b7a      	ldr	r3, [pc, #488]	; (8000dd0 <__aeabi_ddiv+0x284>)
 8000be6:	00b6      	lsls	r6, r6, #2
 8000be8:	599b      	ldr	r3, [r3, r6]
 8000bea:	469f      	mov	pc, r3
 8000bec:	465b      	mov	r3, fp
 8000bee:	4333      	orrs	r3, r6
 8000bf0:	4699      	mov	r9, r3
 8000bf2:	d000      	beq.n	8000bf6 <__aeabi_ddiv+0xaa>
 8000bf4:	e0b8      	b.n	8000d68 <__aeabi_ddiv+0x21c>
 8000bf6:	2302      	movs	r3, #2
 8000bf8:	2608      	movs	r6, #8
 8000bfa:	2700      	movs	r7, #0
 8000bfc:	9000      	str	r0, [sp, #0]
 8000bfe:	9302      	str	r3, [sp, #8]
 8000c00:	e7ca      	b.n	8000b98 <__aeabi_ddiv+0x4c>
 8000c02:	46cb      	mov	fp, r9
 8000c04:	003a      	movs	r2, r7
 8000c06:	9902      	ldr	r1, [sp, #8]
 8000c08:	9501      	str	r5, [sp, #4]
 8000c0a:	9b01      	ldr	r3, [sp, #4]
 8000c0c:	469a      	mov	sl, r3
 8000c0e:	2902      	cmp	r1, #2
 8000c10:	d027      	beq.n	8000c62 <__aeabi_ddiv+0x116>
 8000c12:	2903      	cmp	r1, #3
 8000c14:	d100      	bne.n	8000c18 <__aeabi_ddiv+0xcc>
 8000c16:	e280      	b.n	800111a <__aeabi_ddiv+0x5ce>
 8000c18:	2901      	cmp	r1, #1
 8000c1a:	d044      	beq.n	8000ca6 <__aeabi_ddiv+0x15a>
 8000c1c:	496d      	ldr	r1, [pc, #436]	; (8000dd4 <__aeabi_ddiv+0x288>)
 8000c1e:	9b00      	ldr	r3, [sp, #0]
 8000c20:	468c      	mov	ip, r1
 8000c22:	4463      	add	r3, ip
 8000c24:	001c      	movs	r4, r3
 8000c26:	2c00      	cmp	r4, #0
 8000c28:	dd38      	ble.n	8000c9c <__aeabi_ddiv+0x150>
 8000c2a:	0753      	lsls	r3, r2, #29
 8000c2c:	d000      	beq.n	8000c30 <__aeabi_ddiv+0xe4>
 8000c2e:	e213      	b.n	8001058 <__aeabi_ddiv+0x50c>
 8000c30:	08d2      	lsrs	r2, r2, #3
 8000c32:	465b      	mov	r3, fp
 8000c34:	01db      	lsls	r3, r3, #7
 8000c36:	d509      	bpl.n	8000c4c <__aeabi_ddiv+0x100>
 8000c38:	4659      	mov	r1, fp
 8000c3a:	4b67      	ldr	r3, [pc, #412]	; (8000dd8 <__aeabi_ddiv+0x28c>)
 8000c3c:	4019      	ands	r1, r3
 8000c3e:	468b      	mov	fp, r1
 8000c40:	2180      	movs	r1, #128	; 0x80
 8000c42:	00c9      	lsls	r1, r1, #3
 8000c44:	468c      	mov	ip, r1
 8000c46:	9b00      	ldr	r3, [sp, #0]
 8000c48:	4463      	add	r3, ip
 8000c4a:	001c      	movs	r4, r3
 8000c4c:	4b63      	ldr	r3, [pc, #396]	; (8000ddc <__aeabi_ddiv+0x290>)
 8000c4e:	429c      	cmp	r4, r3
 8000c50:	dc07      	bgt.n	8000c62 <__aeabi_ddiv+0x116>
 8000c52:	465b      	mov	r3, fp
 8000c54:	0564      	lsls	r4, r4, #21
 8000c56:	075f      	lsls	r7, r3, #29
 8000c58:	025b      	lsls	r3, r3, #9
 8000c5a:	4317      	orrs	r7, r2
 8000c5c:	0b1b      	lsrs	r3, r3, #12
 8000c5e:	0d62      	lsrs	r2, r4, #21
 8000c60:	e002      	b.n	8000c68 <__aeabi_ddiv+0x11c>
 8000c62:	2300      	movs	r3, #0
 8000c64:	2700      	movs	r7, #0
 8000c66:	4a58      	ldr	r2, [pc, #352]	; (8000dc8 <__aeabi_ddiv+0x27c>)
 8000c68:	2100      	movs	r1, #0
 8000c6a:	031b      	lsls	r3, r3, #12
 8000c6c:	0b1c      	lsrs	r4, r3, #12
 8000c6e:	0d0b      	lsrs	r3, r1, #20
 8000c70:	051b      	lsls	r3, r3, #20
 8000c72:	4323      	orrs	r3, r4
 8000c74:	0514      	lsls	r4, r2, #20
 8000c76:	4a5a      	ldr	r2, [pc, #360]	; (8000de0 <__aeabi_ddiv+0x294>)
 8000c78:	0038      	movs	r0, r7
 8000c7a:	4013      	ands	r3, r2
 8000c7c:	431c      	orrs	r4, r3
 8000c7e:	4653      	mov	r3, sl
 8000c80:	0064      	lsls	r4, r4, #1
 8000c82:	07db      	lsls	r3, r3, #31
 8000c84:	0864      	lsrs	r4, r4, #1
 8000c86:	431c      	orrs	r4, r3
 8000c88:	0021      	movs	r1, r4
 8000c8a:	b005      	add	sp, #20
 8000c8c:	bc3c      	pop	{r2, r3, r4, r5}
 8000c8e:	4690      	mov	r8, r2
 8000c90:	4699      	mov	r9, r3
 8000c92:	46a2      	mov	sl, r4
 8000c94:	46ab      	mov	fp, r5
 8000c96:	bdf0      	pop	{r4, r5, r6, r7, pc}
 8000c98:	2201      	movs	r2, #1
 8000c9a:	4252      	negs	r2, r2
 8000c9c:	2301      	movs	r3, #1
 8000c9e:	1b1b      	subs	r3, r3, r4
 8000ca0:	2b38      	cmp	r3, #56	; 0x38
 8000ca2:	dc00      	bgt.n	8000ca6 <__aeabi_ddiv+0x15a>
 8000ca4:	e1ad      	b.n	8001002 <__aeabi_ddiv+0x4b6>
 8000ca6:	2200      	movs	r2, #0
 8000ca8:	2300      	movs	r3, #0
 8000caa:	2700      	movs	r7, #0
 8000cac:	e7dc      	b.n	8000c68 <__aeabi_ddiv+0x11c>
 8000cae:	465b      	mov	r3, fp
 8000cb0:	4333      	orrs	r3, r6
 8000cb2:	4699      	mov	r9, r3
 8000cb4:	d05e      	beq.n	8000d74 <__aeabi_ddiv+0x228>
 8000cb6:	2e00      	cmp	r6, #0
 8000cb8:	d100      	bne.n	8000cbc <__aeabi_ddiv+0x170>
 8000cba:	e18a      	b.n	8000fd2 <__aeabi_ddiv+0x486>
 8000cbc:	0030      	movs	r0, r6
 8000cbe:	f001 fa9d 	bl	80021fc <__clzsi2>
 8000cc2:	0003      	movs	r3, r0
 8000cc4:	3b0b      	subs	r3, #11
 8000cc6:	2b1c      	cmp	r3, #28
 8000cc8:	dd00      	ble.n	8000ccc <__aeabi_ddiv+0x180>
 8000cca:	e17b      	b.n	8000fc4 <__aeabi_ddiv+0x478>
 8000ccc:	221d      	movs	r2, #29
 8000cce:	1ad3      	subs	r3, r2, r3
 8000cd0:	465a      	mov	r2, fp
 8000cd2:	0001      	movs	r1, r0
 8000cd4:	40da      	lsrs	r2, r3
 8000cd6:	3908      	subs	r1, #8
 8000cd8:	408e      	lsls	r6, r1
 8000cda:	0013      	movs	r3, r2
 8000cdc:	465f      	mov	r7, fp
 8000cde:	4333      	orrs	r3, r6
 8000ce0:	4699      	mov	r9, r3
 8000ce2:	408f      	lsls	r7, r1
 8000ce4:	4b3f      	ldr	r3, [pc, #252]	; (8000de4 <__aeabi_ddiv+0x298>)
 8000ce6:	2600      	movs	r6, #0
 8000ce8:	1a1b      	subs	r3, r3, r0
 8000cea:	9300      	str	r3, [sp, #0]
 8000cec:	2300      	movs	r3, #0
 8000cee:	9302      	str	r3, [sp, #8]
 8000cf0:	e752      	b.n	8000b98 <__aeabi_ddiv+0x4c>
 8000cf2:	4641      	mov	r1, r8
 8000cf4:	4653      	mov	r3, sl
 8000cf6:	430b      	orrs	r3, r1
 8000cf8:	493b      	ldr	r1, [pc, #236]	; (8000de8 <__aeabi_ddiv+0x29c>)
 8000cfa:	469b      	mov	fp, r3
 8000cfc:	468c      	mov	ip, r1
 8000cfe:	9b00      	ldr	r3, [sp, #0]
 8000d00:	4463      	add	r3, ip
 8000d02:	9300      	str	r3, [sp, #0]
 8000d04:	465b      	mov	r3, fp
 8000d06:	2b00      	cmp	r3, #0
 8000d08:	d13b      	bne.n	8000d82 <__aeabi_ddiv+0x236>
 8000d0a:	2302      	movs	r3, #2
 8000d0c:	2200      	movs	r2, #0
 8000d0e:	431e      	orrs	r6, r3
 8000d10:	2102      	movs	r1, #2
 8000d12:	e761      	b.n	8000bd8 <__aeabi_ddiv+0x8c>
 8000d14:	4643      	mov	r3, r8
 8000d16:	4313      	orrs	r3, r2
 8000d18:	469b      	mov	fp, r3
 8000d1a:	d037      	beq.n	8000d8c <__aeabi_ddiv+0x240>
 8000d1c:	4643      	mov	r3, r8
 8000d1e:	2b00      	cmp	r3, #0
 8000d20:	d100      	bne.n	8000d24 <__aeabi_ddiv+0x1d8>
 8000d22:	e162      	b.n	8000fea <__aeabi_ddiv+0x49e>
 8000d24:	4640      	mov	r0, r8
 8000d26:	f001 fa69 	bl	80021fc <__clzsi2>
 8000d2a:	0003      	movs	r3, r0
 8000d2c:	3b0b      	subs	r3, #11
 8000d2e:	2b1c      	cmp	r3, #28
 8000d30:	dd00      	ble.n	8000d34 <__aeabi_ddiv+0x1e8>
 8000d32:	e153      	b.n	8000fdc <__aeabi_ddiv+0x490>
 8000d34:	0002      	movs	r2, r0
 8000d36:	4641      	mov	r1, r8
 8000d38:	3a08      	subs	r2, #8
 8000d3a:	4091      	lsls	r1, r2
 8000d3c:	4688      	mov	r8, r1
 8000d3e:	211d      	movs	r1, #29
 8000d40:	1acb      	subs	r3, r1, r3
 8000d42:	4651      	mov	r1, sl
 8000d44:	40d9      	lsrs	r1, r3
 8000d46:	000b      	movs	r3, r1
 8000d48:	4641      	mov	r1, r8
 8000d4a:	430b      	orrs	r3, r1
 8000d4c:	469b      	mov	fp, r3
 8000d4e:	4653      	mov	r3, sl
 8000d50:	4093      	lsls	r3, r2
 8000d52:	001a      	movs	r2, r3
 8000d54:	9b00      	ldr	r3, [sp, #0]
 8000d56:	4925      	ldr	r1, [pc, #148]	; (8000dec <__aeabi_ddiv+0x2a0>)
 8000d58:	469c      	mov	ip, r3
 8000d5a:	4460      	add	r0, ip
 8000d5c:	0003      	movs	r3, r0
 8000d5e:	468c      	mov	ip, r1
 8000d60:	4463      	add	r3, ip
 8000d62:	9300      	str	r3, [sp, #0]
 8000d64:	2100      	movs	r1, #0
 8000d66:	e737      	b.n	8000bd8 <__aeabi_ddiv+0x8c>
 8000d68:	2303      	movs	r3, #3
 8000d6a:	46b1      	mov	r9, r6
 8000d6c:	9000      	str	r0, [sp, #0]
 8000d6e:	260c      	movs	r6, #12
 8000d70:	9302      	str	r3, [sp, #8]
 8000d72:	e711      	b.n	8000b98 <__aeabi_ddiv+0x4c>
 8000d74:	2300      	movs	r3, #0
 8000d76:	9300      	str	r3, [sp, #0]
 8000d78:	3301      	adds	r3, #1
 8000d7a:	2604      	movs	r6, #4
 8000d7c:	2700      	movs	r7, #0
 8000d7e:	9302      	str	r3, [sp, #8]
 8000d80:	e70a      	b.n	8000b98 <__aeabi_ddiv+0x4c>
 8000d82:	2303      	movs	r3, #3
 8000d84:	46c3      	mov	fp, r8
 8000d86:	431e      	orrs	r6, r3
 8000d88:	2103      	movs	r1, #3
 8000d8a:	e725      	b.n	8000bd8 <__aeabi_ddiv+0x8c>
 8000d8c:	3301      	adds	r3, #1
 8000d8e:	431e      	orrs	r6, r3
 8000d90:	2200      	movs	r2, #0
 8000d92:	2101      	movs	r1, #1
 8000d94:	e720      	b.n	8000bd8 <__aeabi_ddiv+0x8c>
 8000d96:	2300      	movs	r3, #0
 8000d98:	469a      	mov	sl, r3
 8000d9a:	2380      	movs	r3, #128	; 0x80
 8000d9c:	2700      	movs	r7, #0
 8000d9e:	031b      	lsls	r3, r3, #12
 8000da0:	4a09      	ldr	r2, [pc, #36]	; (8000dc8 <__aeabi_ddiv+0x27c>)
 8000da2:	e761      	b.n	8000c68 <__aeabi_ddiv+0x11c>
 8000da4:	2380      	movs	r3, #128	; 0x80
 8000da6:	4649      	mov	r1, r9
 8000da8:	031b      	lsls	r3, r3, #12
 8000daa:	4219      	tst	r1, r3
 8000dac:	d100      	bne.n	8000db0 <__aeabi_ddiv+0x264>
 8000dae:	e0e2      	b.n	8000f76 <__aeabi_ddiv+0x42a>
 8000db0:	4659      	mov	r1, fp
 8000db2:	4219      	tst	r1, r3
 8000db4:	d000      	beq.n	8000db8 <__aeabi_ddiv+0x26c>
 8000db6:	e0de      	b.n	8000f76 <__aeabi_ddiv+0x42a>
 8000db8:	430b      	orrs	r3, r1
 8000dba:	031b      	lsls	r3, r3, #12
 8000dbc:	0017      	movs	r7, r2
 8000dbe:	0b1b      	lsrs	r3, r3, #12
 8000dc0:	46a2      	mov	sl, r4
 8000dc2:	4a01      	ldr	r2, [pc, #4]	; (8000dc8 <__aeabi_ddiv+0x27c>)
 8000dc4:	e750      	b.n	8000c68 <__aeabi_ddiv+0x11c>
 8000dc6:	46c0      	nop			; (mov r8, r8)
 8000dc8:	000007ff 	.word	0x000007ff
 8000dcc:	fffffc01 	.word	0xfffffc01
 8000dd0:	0800813c 	.word	0x0800813c
 8000dd4:	000003ff 	.word	0x000003ff
 8000dd8:	feffffff 	.word	0xfeffffff
 8000ddc:	000007fe 	.word	0x000007fe
 8000de0:	800fffff 	.word	0x800fffff
 8000de4:	fffffc0d 	.word	0xfffffc0d
 8000de8:	fffff801 	.word	0xfffff801
 8000dec:	000003f3 	.word	0x000003f3
 8000df0:	45d9      	cmp	r9, fp
 8000df2:	d900      	bls.n	8000df6 <__aeabi_ddiv+0x2aa>
 8000df4:	e0cb      	b.n	8000f8e <__aeabi_ddiv+0x442>
 8000df6:	d100      	bne.n	8000dfa <__aeabi_ddiv+0x2ae>
 8000df8:	e0c6      	b.n	8000f88 <__aeabi_ddiv+0x43c>
 8000dfa:	003c      	movs	r4, r7
 8000dfc:	4648      	mov	r0, r9
 8000dfe:	2700      	movs	r7, #0
 8000e00:	9b00      	ldr	r3, [sp, #0]
 8000e02:	3b01      	subs	r3, #1
 8000e04:	9300      	str	r3, [sp, #0]
 8000e06:	465b      	mov	r3, fp
 8000e08:	0e16      	lsrs	r6, r2, #24
 8000e0a:	021b      	lsls	r3, r3, #8
 8000e0c:	431e      	orrs	r6, r3
 8000e0e:	0213      	lsls	r3, r2, #8
 8000e10:	4698      	mov	r8, r3
 8000e12:	0433      	lsls	r3, r6, #16
 8000e14:	0c1b      	lsrs	r3, r3, #16
 8000e16:	4699      	mov	r9, r3
 8000e18:	0c31      	lsrs	r1, r6, #16
 8000e1a:	9101      	str	r1, [sp, #4]
 8000e1c:	f7ff fa0c 	bl	8000238 <__aeabi_uidivmod>
 8000e20:	464a      	mov	r2, r9
 8000e22:	4342      	muls	r2, r0
 8000e24:	040b      	lsls	r3, r1, #16
 8000e26:	0c21      	lsrs	r1, r4, #16
 8000e28:	0005      	movs	r5, r0
 8000e2a:	4319      	orrs	r1, r3
 8000e2c:	428a      	cmp	r2, r1
 8000e2e:	d907      	bls.n	8000e40 <__aeabi_ddiv+0x2f4>
 8000e30:	1989      	adds	r1, r1, r6
 8000e32:	3d01      	subs	r5, #1
 8000e34:	428e      	cmp	r6, r1
 8000e36:	d803      	bhi.n	8000e40 <__aeabi_ddiv+0x2f4>
 8000e38:	428a      	cmp	r2, r1
 8000e3a:	d901      	bls.n	8000e40 <__aeabi_ddiv+0x2f4>
 8000e3c:	1e85      	subs	r5, r0, #2
 8000e3e:	1989      	adds	r1, r1, r6
 8000e40:	1a88      	subs	r0, r1, r2
 8000e42:	9901      	ldr	r1, [sp, #4]
 8000e44:	f7ff f9f8 	bl	8000238 <__aeabi_uidivmod>
 8000e48:	0409      	lsls	r1, r1, #16
 8000e4a:	468c      	mov	ip, r1
 8000e4c:	464a      	mov	r2, r9
 8000e4e:	0421      	lsls	r1, r4, #16
 8000e50:	4664      	mov	r4, ip
 8000e52:	4342      	muls	r2, r0
 8000e54:	0c09      	lsrs	r1, r1, #16
 8000e56:	0003      	movs	r3, r0
 8000e58:	4321      	orrs	r1, r4
 8000e5a:	428a      	cmp	r2, r1
 8000e5c:	d904      	bls.n	8000e68 <__aeabi_ddiv+0x31c>
 8000e5e:	1989      	adds	r1, r1, r6
 8000e60:	3b01      	subs	r3, #1
 8000e62:	428e      	cmp	r6, r1
 8000e64:	d800      	bhi.n	8000e68 <__aeabi_ddiv+0x31c>
 8000e66:	e0f1      	b.n	800104c <__aeabi_ddiv+0x500>
 8000e68:	042d      	lsls	r5, r5, #16
 8000e6a:	431d      	orrs	r5, r3
 8000e6c:	46ab      	mov	fp, r5
 8000e6e:	4643      	mov	r3, r8
 8000e70:	1a89      	subs	r1, r1, r2
 8000e72:	4642      	mov	r2, r8
 8000e74:	0c28      	lsrs	r0, r5, #16
 8000e76:	0412      	lsls	r2, r2, #16
 8000e78:	0c1d      	lsrs	r5, r3, #16
 8000e7a:	465b      	mov	r3, fp
 8000e7c:	0c14      	lsrs	r4, r2, #16
 8000e7e:	0022      	movs	r2, r4
 8000e80:	041b      	lsls	r3, r3, #16
 8000e82:	0c1b      	lsrs	r3, r3, #16
 8000e84:	435a      	muls	r2, r3
 8000e86:	9403      	str	r4, [sp, #12]
 8000e88:	436b      	muls	r3, r5
 8000e8a:	4344      	muls	r4, r0
 8000e8c:	9502      	str	r5, [sp, #8]
 8000e8e:	4368      	muls	r0, r5
 8000e90:	191b      	adds	r3, r3, r4
 8000e92:	0c15      	lsrs	r5, r2, #16
 8000e94:	18eb      	adds	r3, r5, r3
 8000e96:	429c      	cmp	r4, r3
 8000e98:	d903      	bls.n	8000ea2 <__aeabi_ddiv+0x356>
 8000e9a:	2480      	movs	r4, #128	; 0x80
 8000e9c:	0264      	lsls	r4, r4, #9
 8000e9e:	46a4      	mov	ip, r4
 8000ea0:	4460      	add	r0, ip
 8000ea2:	0c1c      	lsrs	r4, r3, #16
 8000ea4:	0415      	lsls	r5, r2, #16
 8000ea6:	041b      	lsls	r3, r3, #16
 8000ea8:	0c2d      	lsrs	r5, r5, #16
 8000eaa:	1820      	adds	r0, r4, r0
 8000eac:	195d      	adds	r5, r3, r5
 8000eae:	4281      	cmp	r1, r0
 8000eb0:	d377      	bcc.n	8000fa2 <__aeabi_ddiv+0x456>
 8000eb2:	d073      	beq.n	8000f9c <__aeabi_ddiv+0x450>
 8000eb4:	1a0c      	subs	r4, r1, r0
 8000eb6:	4aa2      	ldr	r2, [pc, #648]	; (8001140 <__aeabi_ddiv+0x5f4>)
 8000eb8:	1b7d      	subs	r5, r7, r5
 8000eba:	42af      	cmp	r7, r5
 8000ebc:	41bf      	sbcs	r7, r7
 8000ebe:	4694      	mov	ip, r2
 8000ec0:	9b00      	ldr	r3, [sp, #0]
 8000ec2:	427f      	negs	r7, r7
 8000ec4:	4463      	add	r3, ip
 8000ec6:	1be0      	subs	r0, r4, r7
 8000ec8:	001c      	movs	r4, r3
 8000eca:	4286      	cmp	r6, r0
 8000ecc:	d100      	bne.n	8000ed0 <__aeabi_ddiv+0x384>
 8000ece:	e0db      	b.n	8001088 <__aeabi_ddiv+0x53c>
 8000ed0:	9901      	ldr	r1, [sp, #4]
 8000ed2:	f7ff f9b1 	bl	8000238 <__aeabi_uidivmod>
 8000ed6:	464a      	mov	r2, r9
 8000ed8:	4342      	muls	r2, r0
 8000eda:	040b      	lsls	r3, r1, #16
 8000edc:	0c29      	lsrs	r1, r5, #16
 8000ede:	0007      	movs	r7, r0
 8000ee0:	4319      	orrs	r1, r3
 8000ee2:	428a      	cmp	r2, r1
 8000ee4:	d907      	bls.n	8000ef6 <__aeabi_ddiv+0x3aa>
 8000ee6:	1989      	adds	r1, r1, r6
 8000ee8:	3f01      	subs	r7, #1
 8000eea:	428e      	cmp	r6, r1
 8000eec:	d803      	bhi.n	8000ef6 <__aeabi_ddiv+0x3aa>
 8000eee:	428a      	cmp	r2, r1
 8000ef0:	d901      	bls.n	8000ef6 <__aeabi_ddiv+0x3aa>
 8000ef2:	1e87      	subs	r7, r0, #2
 8000ef4:	1989      	adds	r1, r1, r6
 8000ef6:	1a88      	subs	r0, r1, r2
 8000ef8:	9901      	ldr	r1, [sp, #4]
 8000efa:	f7ff f99d 	bl	8000238 <__aeabi_uidivmod>
 8000efe:	0409      	lsls	r1, r1, #16
 8000f00:	464a      	mov	r2, r9
 8000f02:	4689      	mov	r9, r1
 8000f04:	0429      	lsls	r1, r5, #16
 8000f06:	464d      	mov	r5, r9
 8000f08:	4342      	muls	r2, r0
 8000f0a:	0c09      	lsrs	r1, r1, #16
 8000f0c:	0003      	movs	r3, r0
 8000f0e:	4329      	orrs	r1, r5
 8000f10:	428a      	cmp	r2, r1
 8000f12:	d907      	bls.n	8000f24 <__aeabi_ddiv+0x3d8>
 8000f14:	1989      	adds	r1, r1, r6
 8000f16:	3b01      	subs	r3, #1
 8000f18:	428e      	cmp	r6, r1
 8000f1a:	d803      	bhi.n	8000f24 <__aeabi_ddiv+0x3d8>
 8000f1c:	428a      	cmp	r2, r1
 8000f1e:	d901      	bls.n	8000f24 <__aeabi_ddiv+0x3d8>
 8000f20:	1e83      	subs	r3, r0, #2
 8000f22:	1989      	adds	r1, r1, r6
 8000f24:	043f      	lsls	r7, r7, #16
 8000f26:	1a89      	subs	r1, r1, r2
 8000f28:	003a      	movs	r2, r7
 8000f2a:	9f03      	ldr	r7, [sp, #12]
 8000f2c:	431a      	orrs	r2, r3
 8000f2e:	0038      	movs	r0, r7
 8000f30:	0413      	lsls	r3, r2, #16
 8000f32:	0c1b      	lsrs	r3, r3, #16
 8000f34:	4358      	muls	r0, r3
 8000f36:	4681      	mov	r9, r0
 8000f38:	9802      	ldr	r0, [sp, #8]
 8000f3a:	0c15      	lsrs	r5, r2, #16
 8000f3c:	436f      	muls	r7, r5
 8000f3e:	4343      	muls	r3, r0
 8000f40:	4345      	muls	r5, r0
 8000f42:	4648      	mov	r0, r9
 8000f44:	0c00      	lsrs	r0, r0, #16
 8000f46:	4684      	mov	ip, r0
 8000f48:	19db      	adds	r3, r3, r7
 8000f4a:	4463      	add	r3, ip
 8000f4c:	429f      	cmp	r7, r3
 8000f4e:	d903      	bls.n	8000f58 <__aeabi_ddiv+0x40c>
 8000f50:	2080      	movs	r0, #128	; 0x80
 8000f52:	0240      	lsls	r0, r0, #9
 8000f54:	4684      	mov	ip, r0
 8000f56:	4465      	add	r5, ip
 8000f58:	4648      	mov	r0, r9
 8000f5a:	0c1f      	lsrs	r7, r3, #16
 8000f5c:	0400      	lsls	r0, r0, #16
 8000f5e:	041b      	lsls	r3, r3, #16
 8000f60:	0c00      	lsrs	r0, r0, #16
 8000f62:	197d      	adds	r5, r7, r5
 8000f64:	1818      	adds	r0, r3, r0
 8000f66:	42a9      	cmp	r1, r5
 8000f68:	d200      	bcs.n	8000f6c <__aeabi_ddiv+0x420>
 8000f6a:	e084      	b.n	8001076 <__aeabi_ddiv+0x52a>
 8000f6c:	d100      	bne.n	8000f70 <__aeabi_ddiv+0x424>
 8000f6e:	e07f      	b.n	8001070 <__aeabi_ddiv+0x524>
 8000f70:	2301      	movs	r3, #1
 8000f72:	431a      	orrs	r2, r3
 8000f74:	e657      	b.n	8000c26 <__aeabi_ddiv+0xda>
 8000f76:	2380      	movs	r3, #128	; 0x80
 8000f78:	464a      	mov	r2, r9
 8000f7a:	031b      	lsls	r3, r3, #12
 8000f7c:	4313      	orrs	r3, r2
 8000f7e:	031b      	lsls	r3, r3, #12
 8000f80:	0b1b      	lsrs	r3, r3, #12
 8000f82:	46aa      	mov	sl, r5
 8000f84:	4a6f      	ldr	r2, [pc, #444]	; (8001144 <__aeabi_ddiv+0x5f8>)
 8000f86:	e66f      	b.n	8000c68 <__aeabi_ddiv+0x11c>
 8000f88:	42ba      	cmp	r2, r7
 8000f8a:	d900      	bls.n	8000f8e <__aeabi_ddiv+0x442>
 8000f8c:	e735      	b.n	8000dfa <__aeabi_ddiv+0x2ae>
 8000f8e:	464b      	mov	r3, r9
 8000f90:	07dc      	lsls	r4, r3, #31
 8000f92:	0858      	lsrs	r0, r3, #1
 8000f94:	087b      	lsrs	r3, r7, #1
 8000f96:	431c      	orrs	r4, r3
 8000f98:	07ff      	lsls	r7, r7, #31
 8000f9a:	e734      	b.n	8000e06 <__aeabi_ddiv+0x2ba>
 8000f9c:	2400      	movs	r4, #0
 8000f9e:	42af      	cmp	r7, r5
 8000fa0:	d289      	bcs.n	8000eb6 <__aeabi_ddiv+0x36a>
 8000fa2:	4447      	add	r7, r8
 8000fa4:	4547      	cmp	r7, r8
 8000fa6:	41a4      	sbcs	r4, r4
 8000fa8:	465b      	mov	r3, fp
 8000faa:	4264      	negs	r4, r4
 8000fac:	19a4      	adds	r4, r4, r6
 8000fae:	1864      	adds	r4, r4, r1
 8000fb0:	3b01      	subs	r3, #1
 8000fb2:	42a6      	cmp	r6, r4
 8000fb4:	d21e      	bcs.n	8000ff4 <__aeabi_ddiv+0x4a8>
 8000fb6:	42a0      	cmp	r0, r4
 8000fb8:	d86d      	bhi.n	8001096 <__aeabi_ddiv+0x54a>
 8000fba:	d100      	bne.n	8000fbe <__aeabi_ddiv+0x472>
 8000fbc:	e0b6      	b.n	800112c <__aeabi_ddiv+0x5e0>
 8000fbe:	1a24      	subs	r4, r4, r0
 8000fc0:	469b      	mov	fp, r3
 8000fc2:	e778      	b.n	8000eb6 <__aeabi_ddiv+0x36a>
 8000fc4:	0003      	movs	r3, r0
 8000fc6:	465a      	mov	r2, fp
 8000fc8:	3b28      	subs	r3, #40	; 0x28
 8000fca:	409a      	lsls	r2, r3
 8000fcc:	2700      	movs	r7, #0
 8000fce:	4691      	mov	r9, r2
 8000fd0:	e688      	b.n	8000ce4 <__aeabi_ddiv+0x198>
 8000fd2:	4658      	mov	r0, fp
 8000fd4:	f001 f912 	bl	80021fc <__clzsi2>
 8000fd8:	3020      	adds	r0, #32
 8000fda:	e672      	b.n	8000cc2 <__aeabi_ddiv+0x176>
 8000fdc:	0003      	movs	r3, r0
 8000fde:	4652      	mov	r2, sl
 8000fe0:	3b28      	subs	r3, #40	; 0x28
 8000fe2:	409a      	lsls	r2, r3
 8000fe4:	4693      	mov	fp, r2
 8000fe6:	2200      	movs	r2, #0
 8000fe8:	e6b4      	b.n	8000d54 <__aeabi_ddiv+0x208>
 8000fea:	4650      	mov	r0, sl
 8000fec:	f001 f906 	bl	80021fc <__clzsi2>
 8000ff0:	3020      	adds	r0, #32
 8000ff2:	e69a      	b.n	8000d2a <__aeabi_ddiv+0x1de>
 8000ff4:	42a6      	cmp	r6, r4
 8000ff6:	d1e2      	bne.n	8000fbe <__aeabi_ddiv+0x472>
 8000ff8:	45b8      	cmp	r8, r7
 8000ffa:	d9dc      	bls.n	8000fb6 <__aeabi_ddiv+0x46a>
 8000ffc:	1a34      	subs	r4, r6, r0
 8000ffe:	469b      	mov	fp, r3
 8001000:	e759      	b.n	8000eb6 <__aeabi_ddiv+0x36a>
 8001002:	2b1f      	cmp	r3, #31
 8001004:	dc65      	bgt.n	80010d2 <__aeabi_ddiv+0x586>
 8001006:	4c50      	ldr	r4, [pc, #320]	; (8001148 <__aeabi_ddiv+0x5fc>)
 8001008:	9900      	ldr	r1, [sp, #0]
 800100a:	46a4      	mov	ip, r4
 800100c:	465c      	mov	r4, fp
 800100e:	4461      	add	r1, ip
 8001010:	0008      	movs	r0, r1
 8001012:	408c      	lsls	r4, r1
 8001014:	0011      	movs	r1, r2
 8001016:	4082      	lsls	r2, r0
 8001018:	40d9      	lsrs	r1, r3
 800101a:	1e50      	subs	r0, r2, #1
 800101c:	4182      	sbcs	r2, r0
 800101e:	430c      	orrs	r4, r1
 8001020:	4314      	orrs	r4, r2
 8001022:	465a      	mov	r2, fp
 8001024:	40da      	lsrs	r2, r3
 8001026:	0013      	movs	r3, r2
 8001028:	0762      	lsls	r2, r4, #29
 800102a:	d009      	beq.n	8001040 <__aeabi_ddiv+0x4f4>
 800102c:	220f      	movs	r2, #15
 800102e:	4022      	ands	r2, r4
 8001030:	2a04      	cmp	r2, #4
 8001032:	d005      	beq.n	8001040 <__aeabi_ddiv+0x4f4>
 8001034:	0022      	movs	r2, r4
 8001036:	1d14      	adds	r4, r2, #4
 8001038:	4294      	cmp	r4, r2
 800103a:	4189      	sbcs	r1, r1
 800103c:	4249      	negs	r1, r1
 800103e:	185b      	adds	r3, r3, r1
 8001040:	021a      	lsls	r2, r3, #8
 8001042:	d562      	bpl.n	800110a <__aeabi_ddiv+0x5be>
 8001044:	2201      	movs	r2, #1
 8001046:	2300      	movs	r3, #0
 8001048:	2700      	movs	r7, #0
 800104a:	e60d      	b.n	8000c68 <__aeabi_ddiv+0x11c>
 800104c:	428a      	cmp	r2, r1
 800104e:	d800      	bhi.n	8001052 <__aeabi_ddiv+0x506>
 8001050:	e70a      	b.n	8000e68 <__aeabi_ddiv+0x31c>
 8001052:	1e83      	subs	r3, r0, #2
 8001054:	1989      	adds	r1, r1, r6
 8001056:	e707      	b.n	8000e68 <__aeabi_ddiv+0x31c>
 8001058:	230f      	movs	r3, #15
 800105a:	4013      	ands	r3, r2
 800105c:	2b04      	cmp	r3, #4
 800105e:	d100      	bne.n	8001062 <__aeabi_ddiv+0x516>
 8001060:	e5e6      	b.n	8000c30 <__aeabi_ddiv+0xe4>
 8001062:	1d17      	adds	r7, r2, #4
 8001064:	4297      	cmp	r7, r2
 8001066:	4192      	sbcs	r2, r2
 8001068:	4253      	negs	r3, r2
 800106a:	449b      	add	fp, r3
 800106c:	08fa      	lsrs	r2, r7, #3
 800106e:	e5e0      	b.n	8000c32 <__aeabi_ddiv+0xe6>
 8001070:	2800      	cmp	r0, #0
 8001072:	d100      	bne.n	8001076 <__aeabi_ddiv+0x52a>
 8001074:	e5d7      	b.n	8000c26 <__aeabi_ddiv+0xda>
 8001076:	1871      	adds	r1, r6, r1
 8001078:	1e53      	subs	r3, r2, #1
 800107a:	42b1      	cmp	r1, r6
 800107c:	d327      	bcc.n	80010ce <__aeabi_ddiv+0x582>
 800107e:	42a9      	cmp	r1, r5
 8001080:	d315      	bcc.n	80010ae <__aeabi_ddiv+0x562>
 8001082:	d058      	beq.n	8001136 <__aeabi_ddiv+0x5ea>
 8001084:	001a      	movs	r2, r3
 8001086:	e773      	b.n	8000f70 <__aeabi_ddiv+0x424>
 8001088:	2b00      	cmp	r3, #0
 800108a:	dc00      	bgt.n	800108e <__aeabi_ddiv+0x542>
 800108c:	e604      	b.n	8000c98 <__aeabi_ddiv+0x14c>
 800108e:	2301      	movs	r3, #1
 8001090:	2200      	movs	r2, #0
 8001092:	449b      	add	fp, r3
 8001094:	e5cd      	b.n	8000c32 <__aeabi_ddiv+0xe6>
 8001096:	2302      	movs	r3, #2
 8001098:	4447      	add	r7, r8
 800109a:	4547      	cmp	r7, r8
 800109c:	4189      	sbcs	r1, r1
 800109e:	425b      	negs	r3, r3
 80010a0:	469c      	mov	ip, r3
 80010a2:	4249      	negs	r1, r1
 80010a4:	1989      	adds	r1, r1, r6
 80010a6:	190c      	adds	r4, r1, r4
 80010a8:	44e3      	add	fp, ip
 80010aa:	1a24      	subs	r4, r4, r0
 80010ac:	e703      	b.n	8000eb6 <__aeabi_ddiv+0x36a>
 80010ae:	4643      	mov	r3, r8
 80010b0:	005f      	lsls	r7, r3, #1
 80010b2:	4547      	cmp	r7, r8
 80010b4:	419b      	sbcs	r3, r3
 80010b6:	46b8      	mov	r8, r7
 80010b8:	425b      	negs	r3, r3
 80010ba:	199e      	adds	r6, r3, r6
 80010bc:	3a02      	subs	r2, #2
 80010be:	1989      	adds	r1, r1, r6
 80010c0:	42a9      	cmp	r1, r5
 80010c2:	d000      	beq.n	80010c6 <__aeabi_ddiv+0x57a>
 80010c4:	e754      	b.n	8000f70 <__aeabi_ddiv+0x424>
 80010c6:	4540      	cmp	r0, r8
 80010c8:	d000      	beq.n	80010cc <__aeabi_ddiv+0x580>
 80010ca:	e751      	b.n	8000f70 <__aeabi_ddiv+0x424>
 80010cc:	e5ab      	b.n	8000c26 <__aeabi_ddiv+0xda>
 80010ce:	001a      	movs	r2, r3
 80010d0:	e7f6      	b.n	80010c0 <__aeabi_ddiv+0x574>
 80010d2:	211f      	movs	r1, #31
 80010d4:	465f      	mov	r7, fp
 80010d6:	4249      	negs	r1, r1
 80010d8:	1b0c      	subs	r4, r1, r4
 80010da:	40e7      	lsrs	r7, r4
 80010dc:	2b20      	cmp	r3, #32
 80010de:	d007      	beq.n	80010f0 <__aeabi_ddiv+0x5a4>
 80010e0:	491a      	ldr	r1, [pc, #104]	; (800114c <__aeabi_ddiv+0x600>)
 80010e2:	9b00      	ldr	r3, [sp, #0]
 80010e4:	468c      	mov	ip, r1
 80010e6:	4463      	add	r3, ip
 80010e8:	0018      	movs	r0, r3
 80010ea:	465b      	mov	r3, fp
 80010ec:	4083      	lsls	r3, r0
 80010ee:	431a      	orrs	r2, r3
 80010f0:	1e50      	subs	r0, r2, #1
 80010f2:	4182      	sbcs	r2, r0
 80010f4:	433a      	orrs	r2, r7
 80010f6:	2707      	movs	r7, #7
 80010f8:	2300      	movs	r3, #0
 80010fa:	4017      	ands	r7, r2
 80010fc:	d009      	beq.n	8001112 <__aeabi_ddiv+0x5c6>
 80010fe:	210f      	movs	r1, #15
 8001100:	2300      	movs	r3, #0
 8001102:	4011      	ands	r1, r2
 8001104:	0014      	movs	r4, r2
 8001106:	2904      	cmp	r1, #4
 8001108:	d195      	bne.n	8001036 <__aeabi_ddiv+0x4ea>
 800110a:	0022      	movs	r2, r4
 800110c:	075f      	lsls	r7, r3, #29
 800110e:	025b      	lsls	r3, r3, #9
 8001110:	0b1b      	lsrs	r3, r3, #12
 8001112:	08d2      	lsrs	r2, r2, #3
 8001114:	4317      	orrs	r7, r2
 8001116:	2200      	movs	r2, #0
 8001118:	e5a6      	b.n	8000c68 <__aeabi_ddiv+0x11c>
 800111a:	2380      	movs	r3, #128	; 0x80
 800111c:	4659      	mov	r1, fp
 800111e:	031b      	lsls	r3, r3, #12
 8001120:	430b      	orrs	r3, r1
 8001122:	031b      	lsls	r3, r3, #12
 8001124:	0017      	movs	r7, r2
 8001126:	0b1b      	lsrs	r3, r3, #12
 8001128:	4a06      	ldr	r2, [pc, #24]	; (8001144 <__aeabi_ddiv+0x5f8>)
 800112a:	e59d      	b.n	8000c68 <__aeabi_ddiv+0x11c>
 800112c:	42bd      	cmp	r5, r7
 800112e:	d8b2      	bhi.n	8001096 <__aeabi_ddiv+0x54a>
 8001130:	469b      	mov	fp, r3
 8001132:	2400      	movs	r4, #0
 8001134:	e6bf      	b.n	8000eb6 <__aeabi_ddiv+0x36a>
 8001136:	4580      	cmp	r8, r0
 8001138:	d3b9      	bcc.n	80010ae <__aeabi_ddiv+0x562>
 800113a:	001a      	movs	r2, r3
 800113c:	e7c3      	b.n	80010c6 <__aeabi_ddiv+0x57a>
 800113e:	46c0      	nop			; (mov r8, r8)
 8001140:	000003ff 	.word	0x000003ff
 8001144:	000007ff 	.word	0x000007ff
 8001148:	0000041e 	.word	0x0000041e
 800114c:	0000043e 	.word	0x0000043e

08001150 <__eqdf2>:
 8001150:	b5f0      	push	{r4, r5, r6, r7, lr}
 8001152:	464f      	mov	r7, r9
 8001154:	4646      	mov	r6, r8
 8001156:	46d6      	mov	lr, sl
 8001158:	4684      	mov	ip, r0
 800115a:	b5c0      	push	{r6, r7, lr}
 800115c:	4680      	mov	r8, r0
 800115e:	4e19      	ldr	r6, [pc, #100]	; (80011c4 <__eqdf2+0x74>)
 8001160:	0318      	lsls	r0, r3, #12
 8001162:	030f      	lsls	r7, r1, #12
 8001164:	004d      	lsls	r5, r1, #1
 8001166:	0b00      	lsrs	r0, r0, #12
 8001168:	005c      	lsls	r4, r3, #1
 800116a:	4682      	mov	sl, r0
 800116c:	0b3f      	lsrs	r7, r7, #12
 800116e:	0d6d      	lsrs	r5, r5, #21
 8001170:	0fc9      	lsrs	r1, r1, #31
 8001172:	4691      	mov	r9, r2
 8001174:	0d64      	lsrs	r4, r4, #21
 8001176:	0fdb      	lsrs	r3, r3, #31
 8001178:	2001      	movs	r0, #1
 800117a:	42b5      	cmp	r5, r6
 800117c:	d00a      	beq.n	8001194 <__eqdf2+0x44>
 800117e:	42b4      	cmp	r4, r6
 8001180:	d003      	beq.n	800118a <__eqdf2+0x3a>
 8001182:	42a5      	cmp	r5, r4
 8001184:	d101      	bne.n	800118a <__eqdf2+0x3a>
 8001186:	4557      	cmp	r7, sl
 8001188:	d00c      	beq.n	80011a4 <__eqdf2+0x54>
 800118a:	bc1c      	pop	{r2, r3, r4}
 800118c:	4690      	mov	r8, r2
 800118e:	4699      	mov	r9, r3
 8001190:	46a2      	mov	sl, r4
 8001192:	bdf0      	pop	{r4, r5, r6, r7, pc}
 8001194:	4666      	mov	r6, ip
 8001196:	433e      	orrs	r6, r7
 8001198:	d1f7      	bne.n	800118a <__eqdf2+0x3a>
 800119a:	42ac      	cmp	r4, r5
 800119c:	d1f5      	bne.n	800118a <__eqdf2+0x3a>
 800119e:	4654      	mov	r4, sl
 80011a0:	4314      	orrs	r4, r2
 80011a2:	d1f2      	bne.n	800118a <__eqdf2+0x3a>
 80011a4:	2001      	movs	r0, #1
 80011a6:	45c8      	cmp	r8, r9
 80011a8:	d1ef      	bne.n	800118a <__eqdf2+0x3a>
 80011aa:	4299      	cmp	r1, r3
 80011ac:	d007      	beq.n	80011be <__eqdf2+0x6e>
 80011ae:	2d00      	cmp	r5, #0
 80011b0:	d1eb      	bne.n	800118a <__eqdf2+0x3a>
 80011b2:	4663      	mov	r3, ip
 80011b4:	431f      	orrs	r7, r3
 80011b6:	0038      	movs	r0, r7
 80011b8:	1e47      	subs	r7, r0, #1
 80011ba:	41b8      	sbcs	r0, r7
 80011bc:	e7e5      	b.n	800118a <__eqdf2+0x3a>
 80011be:	2000      	movs	r0, #0
 80011c0:	e7e3      	b.n	800118a <__eqdf2+0x3a>
 80011c2:	46c0      	nop			; (mov r8, r8)
 80011c4:	000007ff 	.word	0x000007ff

080011c8 <__gedf2>:
 80011c8:	b5f0      	push	{r4, r5, r6, r7, lr}
 80011ca:	464f      	mov	r7, r9
 80011cc:	4646      	mov	r6, r8
 80011ce:	46d6      	mov	lr, sl
 80011d0:	004d      	lsls	r5, r1, #1
 80011d2:	b5c0      	push	{r6, r7, lr}
 80011d4:	030e      	lsls	r6, r1, #12
 80011d6:	0fc9      	lsrs	r1, r1, #31
 80011d8:	468a      	mov	sl, r1
 80011da:	492c      	ldr	r1, [pc, #176]	; (800128c <__gedf2+0xc4>)
 80011dc:	031f      	lsls	r7, r3, #12
 80011de:	005c      	lsls	r4, r3, #1
 80011e0:	4680      	mov	r8, r0
 80011e2:	0b36      	lsrs	r6, r6, #12
 80011e4:	0d6d      	lsrs	r5, r5, #21
 80011e6:	4691      	mov	r9, r2
 80011e8:	0b3f      	lsrs	r7, r7, #12
 80011ea:	0d64      	lsrs	r4, r4, #21
 80011ec:	0fdb      	lsrs	r3, r3, #31
 80011ee:	428d      	cmp	r5, r1
 80011f0:	d01e      	beq.n	8001230 <__gedf2+0x68>
 80011f2:	428c      	cmp	r4, r1
 80011f4:	d016      	beq.n	8001224 <__gedf2+0x5c>
 80011f6:	2d00      	cmp	r5, #0
 80011f8:	d11e      	bne.n	8001238 <__gedf2+0x70>
 80011fa:	4330      	orrs	r0, r6
 80011fc:	4684      	mov	ip, r0
 80011fe:	2c00      	cmp	r4, #0
 8001200:	d101      	bne.n	8001206 <__gedf2+0x3e>
 8001202:	433a      	orrs	r2, r7
 8001204:	d023      	beq.n	800124e <__gedf2+0x86>
 8001206:	4662      	mov	r2, ip
 8001208:	2a00      	cmp	r2, #0
 800120a:	d01a      	beq.n	8001242 <__gedf2+0x7a>
 800120c:	459a      	cmp	sl, r3
 800120e:	d029      	beq.n	8001264 <__gedf2+0x9c>
 8001210:	4651      	mov	r1, sl
 8001212:	2002      	movs	r0, #2
 8001214:	3901      	subs	r1, #1
 8001216:	4008      	ands	r0, r1
 8001218:	3801      	subs	r0, #1
 800121a:	bc1c      	pop	{r2, r3, r4}
 800121c:	4690      	mov	r8, r2
 800121e:	4699      	mov	r9, r3
 8001220:	46a2      	mov	sl, r4
 8001222:	bdf0      	pop	{r4, r5, r6, r7, pc}
 8001224:	0039      	movs	r1, r7
 8001226:	4311      	orrs	r1, r2
 8001228:	d0e5      	beq.n	80011f6 <__gedf2+0x2e>
 800122a:	2002      	movs	r0, #2
 800122c:	4240      	negs	r0, r0
 800122e:	e7f4      	b.n	800121a <__gedf2+0x52>
 8001230:	4330      	orrs	r0, r6
 8001232:	d1fa      	bne.n	800122a <__gedf2+0x62>
 8001234:	42ac      	cmp	r4, r5
 8001236:	d00f      	beq.n	8001258 <__gedf2+0x90>
 8001238:	2c00      	cmp	r4, #0
 800123a:	d10f      	bne.n	800125c <__gedf2+0x94>
 800123c:	433a      	orrs	r2, r7
 800123e:	d0e7      	beq.n	8001210 <__gedf2+0x48>
 8001240:	e00c      	b.n	800125c <__gedf2+0x94>
 8001242:	2201      	movs	r2, #1
 8001244:	3b01      	subs	r3, #1
 8001246:	4393      	bics	r3, r2
 8001248:	0018      	movs	r0, r3
 800124a:	3001      	adds	r0, #1
 800124c:	e7e5      	b.n	800121a <__gedf2+0x52>
 800124e:	4663      	mov	r3, ip
 8001250:	2000      	movs	r0, #0
 8001252:	2b00      	cmp	r3, #0
 8001254:	d0e1      	beq.n	800121a <__gedf2+0x52>
 8001256:	e7db      	b.n	8001210 <__gedf2+0x48>
 8001258:	433a      	orrs	r2, r7
 800125a:	d1e6      	bne.n	800122a <__gedf2+0x62>
 800125c:	459a      	cmp	sl, r3
 800125e:	d1d7      	bne.n	8001210 <__gedf2+0x48>
 8001260:	42a5      	cmp	r5, r4
 8001262:	dcd5      	bgt.n	8001210 <__gedf2+0x48>
 8001264:	42a5      	cmp	r5, r4
 8001266:	db05      	blt.n	8001274 <__gedf2+0xac>
 8001268:	42be      	cmp	r6, r7
 800126a:	d8d1      	bhi.n	8001210 <__gedf2+0x48>
 800126c:	d008      	beq.n	8001280 <__gedf2+0xb8>
 800126e:	2000      	movs	r0, #0
 8001270:	42be      	cmp	r6, r7
 8001272:	d2d2      	bcs.n	800121a <__gedf2+0x52>
 8001274:	4650      	mov	r0, sl
 8001276:	2301      	movs	r3, #1
 8001278:	3801      	subs	r0, #1
 800127a:	4398      	bics	r0, r3
 800127c:	3001      	adds	r0, #1
 800127e:	e7cc      	b.n	800121a <__gedf2+0x52>
 8001280:	45c8      	cmp	r8, r9
 8001282:	d8c5      	bhi.n	8001210 <__gedf2+0x48>
 8001284:	2000      	movs	r0, #0
 8001286:	45c8      	cmp	r8, r9
 8001288:	d3f4      	bcc.n	8001274 <__gedf2+0xac>
 800128a:	e7c6      	b.n	800121a <__gedf2+0x52>
 800128c:	000007ff 	.word	0x000007ff

08001290 <__ledf2>:
 8001290:	b5f0      	push	{r4, r5, r6, r7, lr}
 8001292:	464f      	mov	r7, r9
 8001294:	4646      	mov	r6, r8
 8001296:	46d6      	mov	lr, sl
 8001298:	004d      	lsls	r5, r1, #1
 800129a:	b5c0      	push	{r6, r7, lr}
 800129c:	030e      	lsls	r6, r1, #12
 800129e:	0fc9      	lsrs	r1, r1, #31
 80012a0:	468a      	mov	sl, r1
 80012a2:	492e      	ldr	r1, [pc, #184]	; (800135c <__ledf2+0xcc>)
 80012a4:	031f      	lsls	r7, r3, #12
 80012a6:	005c      	lsls	r4, r3, #1
 80012a8:	4680      	mov	r8, r0
 80012aa:	0b36      	lsrs	r6, r6, #12
 80012ac:	0d6d      	lsrs	r5, r5, #21
 80012ae:	4691      	mov	r9, r2
 80012b0:	0b3f      	lsrs	r7, r7, #12
 80012b2:	0d64      	lsrs	r4, r4, #21
 80012b4:	0fdb      	lsrs	r3, r3, #31
 80012b6:	428d      	cmp	r5, r1
 80012b8:	d018      	beq.n	80012ec <__ledf2+0x5c>
 80012ba:	428c      	cmp	r4, r1
 80012bc:	d011      	beq.n	80012e2 <__ledf2+0x52>
 80012be:	2d00      	cmp	r5, #0
 80012c0:	d118      	bne.n	80012f4 <__ledf2+0x64>
 80012c2:	4330      	orrs	r0, r6
 80012c4:	4684      	mov	ip, r0
 80012c6:	2c00      	cmp	r4, #0
 80012c8:	d11e      	bne.n	8001308 <__ledf2+0x78>
 80012ca:	433a      	orrs	r2, r7
 80012cc:	d11c      	bne.n	8001308 <__ledf2+0x78>
 80012ce:	4663      	mov	r3, ip
 80012d0:	2000      	movs	r0, #0
 80012d2:	2b00      	cmp	r3, #0
 80012d4:	d030      	beq.n	8001338 <__ledf2+0xa8>
 80012d6:	4651      	mov	r1, sl
 80012d8:	2002      	movs	r0, #2
 80012da:	3901      	subs	r1, #1
 80012dc:	4008      	ands	r0, r1
 80012de:	3801      	subs	r0, #1
 80012e0:	e02a      	b.n	8001338 <__ledf2+0xa8>
 80012e2:	0039      	movs	r1, r7
 80012e4:	4311      	orrs	r1, r2
 80012e6:	d0ea      	beq.n	80012be <__ledf2+0x2e>
 80012e8:	2002      	movs	r0, #2
 80012ea:	e025      	b.n	8001338 <__ledf2+0xa8>
 80012ec:	4330      	orrs	r0, r6
 80012ee:	d1fb      	bne.n	80012e8 <__ledf2+0x58>
 80012f0:	42ac      	cmp	r4, r5
 80012f2:	d026      	beq.n	8001342 <__ledf2+0xb2>
 80012f4:	2c00      	cmp	r4, #0
 80012f6:	d126      	bne.n	8001346 <__ledf2+0xb6>
 80012f8:	433a      	orrs	r2, r7
 80012fa:	d124      	bne.n	8001346 <__ledf2+0xb6>
 80012fc:	4651      	mov	r1, sl
 80012fe:	2002      	movs	r0, #2
 8001300:	3901      	subs	r1, #1
 8001302:	4008      	ands	r0, r1
 8001304:	3801      	subs	r0, #1
 8001306:	e017      	b.n	8001338 <__ledf2+0xa8>
 8001308:	4662      	mov	r2, ip
 800130a:	2a00      	cmp	r2, #0
 800130c:	d00f      	beq.n	800132e <__ledf2+0x9e>
 800130e:	459a      	cmp	sl, r3
 8001310:	d1e1      	bne.n	80012d6 <__ledf2+0x46>
 8001312:	42a5      	cmp	r5, r4
 8001314:	db05      	blt.n	8001322 <__ledf2+0x92>
 8001316:	42be      	cmp	r6, r7
 8001318:	d8dd      	bhi.n	80012d6 <__ledf2+0x46>
 800131a:	d019      	beq.n	8001350 <__ledf2+0xc0>
 800131c:	2000      	movs	r0, #0
 800131e:	42be      	cmp	r6, r7
 8001320:	d20a      	bcs.n	8001338 <__ledf2+0xa8>
 8001322:	4650      	mov	r0, sl
 8001324:	2301      	movs	r3, #1
 8001326:	3801      	subs	r0, #1
 8001328:	4398      	bics	r0, r3
 800132a:	3001      	adds	r0, #1
 800132c:	e004      	b.n	8001338 <__ledf2+0xa8>
 800132e:	2201      	movs	r2, #1
 8001330:	3b01      	subs	r3, #1
 8001332:	4393      	bics	r3, r2
 8001334:	0018      	movs	r0, r3
 8001336:	3001      	adds	r0, #1
 8001338:	bc1c      	pop	{r2, r3, r4}
 800133a:	4690      	mov	r8, r2
 800133c:	4699      	mov	r9, r3
 800133e:	46a2      	mov	sl, r4
 8001340:	bdf0      	pop	{r4, r5, r6, r7, pc}
 8001342:	433a      	orrs	r2, r7
 8001344:	d1d0      	bne.n	80012e8 <__ledf2+0x58>
 8001346:	459a      	cmp	sl, r3
 8001348:	d1c5      	bne.n	80012d6 <__ledf2+0x46>
 800134a:	42a5      	cmp	r5, r4
 800134c:	dcc3      	bgt.n	80012d6 <__ledf2+0x46>
 800134e:	e7e0      	b.n	8001312 <__ledf2+0x82>
 8001350:	45c8      	cmp	r8, r9
 8001352:	d8c0      	bhi.n	80012d6 <__ledf2+0x46>
 8001354:	2000      	movs	r0, #0
 8001356:	45c8      	cmp	r8, r9
 8001358:	d3e3      	bcc.n	8001322 <__ledf2+0x92>
 800135a:	e7ed      	b.n	8001338 <__ledf2+0xa8>
 800135c:	000007ff 	.word	0x000007ff

08001360 <__aeabi_dmul>:
 8001360:	b5f0      	push	{r4, r5, r6, r7, lr}
 8001362:	4657      	mov	r7, sl
 8001364:	46de      	mov	lr, fp
 8001366:	464e      	mov	r6, r9
 8001368:	4645      	mov	r5, r8
 800136a:	b5e0      	push	{r5, r6, r7, lr}
 800136c:	4683      	mov	fp, r0
 800136e:	0006      	movs	r6, r0
 8001370:	030f      	lsls	r7, r1, #12
 8001372:	0048      	lsls	r0, r1, #1
 8001374:	b087      	sub	sp, #28
 8001376:	4692      	mov	sl, r2
 8001378:	001d      	movs	r5, r3
 800137a:	0b3f      	lsrs	r7, r7, #12
 800137c:	0d40      	lsrs	r0, r0, #21
 800137e:	0fcc      	lsrs	r4, r1, #31
 8001380:	2800      	cmp	r0, #0
 8001382:	d100      	bne.n	8001386 <__aeabi_dmul+0x26>
 8001384:	e06f      	b.n	8001466 <__aeabi_dmul+0x106>
 8001386:	4bde      	ldr	r3, [pc, #888]	; (8001700 <__aeabi_dmul+0x3a0>)
 8001388:	4298      	cmp	r0, r3
 800138a:	d038      	beq.n	80013fe <__aeabi_dmul+0x9e>
 800138c:	2380      	movs	r3, #128	; 0x80
 800138e:	00ff      	lsls	r7, r7, #3
 8001390:	041b      	lsls	r3, r3, #16
 8001392:	431f      	orrs	r7, r3
 8001394:	0f73      	lsrs	r3, r6, #29
 8001396:	433b      	orrs	r3, r7
 8001398:	9301      	str	r3, [sp, #4]
 800139a:	4bda      	ldr	r3, [pc, #872]	; (8001704 <__aeabi_dmul+0x3a4>)
 800139c:	2700      	movs	r7, #0
 800139e:	4699      	mov	r9, r3
 80013a0:	2300      	movs	r3, #0
 80013a2:	469b      	mov	fp, r3
 80013a4:	00f6      	lsls	r6, r6, #3
 80013a6:	4481      	add	r9, r0
 80013a8:	032b      	lsls	r3, r5, #12
 80013aa:	0069      	lsls	r1, r5, #1
 80013ac:	0b1b      	lsrs	r3, r3, #12
 80013ae:	4652      	mov	r2, sl
 80013b0:	4698      	mov	r8, r3
 80013b2:	0d49      	lsrs	r1, r1, #21
 80013b4:	0fed      	lsrs	r5, r5, #31
 80013b6:	2900      	cmp	r1, #0
 80013b8:	d100      	bne.n	80013bc <__aeabi_dmul+0x5c>
 80013ba:	e085      	b.n	80014c8 <__aeabi_dmul+0x168>
 80013bc:	4bd0      	ldr	r3, [pc, #832]	; (8001700 <__aeabi_dmul+0x3a0>)
 80013be:	4299      	cmp	r1, r3
 80013c0:	d100      	bne.n	80013c4 <__aeabi_dmul+0x64>
 80013c2:	e073      	b.n	80014ac <__aeabi_dmul+0x14c>
 80013c4:	4643      	mov	r3, r8
 80013c6:	00da      	lsls	r2, r3, #3
 80013c8:	2380      	movs	r3, #128	; 0x80
 80013ca:	041b      	lsls	r3, r3, #16
 80013cc:	4313      	orrs	r3, r2
 80013ce:	4652      	mov	r2, sl
 80013d0:	48cc      	ldr	r0, [pc, #816]	; (8001704 <__aeabi_dmul+0x3a4>)
 80013d2:	0f52      	lsrs	r2, r2, #29
 80013d4:	4684      	mov	ip, r0
 80013d6:	4313      	orrs	r3, r2
 80013d8:	4652      	mov	r2, sl
 80013da:	2000      	movs	r0, #0
 80013dc:	4461      	add	r1, ip
 80013de:	00d2      	lsls	r2, r2, #3
 80013e0:	4489      	add	r9, r1
 80013e2:	0021      	movs	r1, r4
 80013e4:	4069      	eors	r1, r5
 80013e6:	9100      	str	r1, [sp, #0]
 80013e8:	468c      	mov	ip, r1
 80013ea:	2101      	movs	r1, #1
 80013ec:	4449      	add	r1, r9
 80013ee:	468a      	mov	sl, r1
 80013f0:	2f0f      	cmp	r7, #15
 80013f2:	d900      	bls.n	80013f6 <__aeabi_dmul+0x96>
 80013f4:	e090      	b.n	8001518 <__aeabi_dmul+0x1b8>
 80013f6:	49c4      	ldr	r1, [pc, #784]	; (8001708 <__aeabi_dmul+0x3a8>)
 80013f8:	00bf      	lsls	r7, r7, #2
 80013fa:	59cf      	ldr	r7, [r1, r7]
 80013fc:	46bf      	mov	pc, r7
 80013fe:	465b      	mov	r3, fp
 8001400:	433b      	orrs	r3, r7
 8001402:	9301      	str	r3, [sp, #4]
 8001404:	d000      	beq.n	8001408 <__aeabi_dmul+0xa8>
 8001406:	e16a      	b.n	80016de <__aeabi_dmul+0x37e>
 8001408:	2302      	movs	r3, #2
 800140a:	2708      	movs	r7, #8
 800140c:	2600      	movs	r6, #0
 800140e:	4681      	mov	r9, r0
 8001410:	469b      	mov	fp, r3
 8001412:	e7c9      	b.n	80013a8 <__aeabi_dmul+0x48>
 8001414:	0032      	movs	r2, r6
 8001416:	4658      	mov	r0, fp
 8001418:	9b01      	ldr	r3, [sp, #4]
 800141a:	4661      	mov	r1, ip
 800141c:	9100      	str	r1, [sp, #0]
 800141e:	2802      	cmp	r0, #2
 8001420:	d100      	bne.n	8001424 <__aeabi_dmul+0xc4>
 8001422:	e075      	b.n	8001510 <__aeabi_dmul+0x1b0>
 8001424:	2803      	cmp	r0, #3
 8001426:	d100      	bne.n	800142a <__aeabi_dmul+0xca>
 8001428:	e1fe      	b.n	8001828 <__aeabi_dmul+0x4c8>
 800142a:	2801      	cmp	r0, #1
 800142c:	d000      	beq.n	8001430 <__aeabi_dmul+0xd0>
 800142e:	e12c      	b.n	800168a <__aeabi_dmul+0x32a>
 8001430:	2300      	movs	r3, #0
 8001432:	2700      	movs	r7, #0
 8001434:	2600      	movs	r6, #0
 8001436:	2500      	movs	r5, #0
 8001438:	033f      	lsls	r7, r7, #12
 800143a:	0d2a      	lsrs	r2, r5, #20
 800143c:	0b3f      	lsrs	r7, r7, #12
 800143e:	48b3      	ldr	r0, [pc, #716]	; (800170c <__aeabi_dmul+0x3ac>)
 8001440:	0512      	lsls	r2, r2, #20
 8001442:	433a      	orrs	r2, r7
 8001444:	4002      	ands	r2, r0
 8001446:	051b      	lsls	r3, r3, #20
 8001448:	4313      	orrs	r3, r2
 800144a:	9a00      	ldr	r2, [sp, #0]
 800144c:	005b      	lsls	r3, r3, #1
 800144e:	07d1      	lsls	r1, r2, #31
 8001450:	085b      	lsrs	r3, r3, #1
 8001452:	430b      	orrs	r3, r1
 8001454:	0030      	movs	r0, r6
 8001456:	0019      	movs	r1, r3
 8001458:	b007      	add	sp, #28
 800145a:	bc3c      	pop	{r2, r3, r4, r5}
 800145c:	4690      	mov	r8, r2
 800145e:	4699      	mov	r9, r3
 8001460:	46a2      	mov	sl, r4
 8001462:	46ab      	mov	fp, r5
 8001464:	bdf0      	pop	{r4, r5, r6, r7, pc}
 8001466:	465b      	mov	r3, fp
 8001468:	433b      	orrs	r3, r7
 800146a:	9301      	str	r3, [sp, #4]
 800146c:	d100      	bne.n	8001470 <__aeabi_dmul+0x110>
 800146e:	e12f      	b.n	80016d0 <__aeabi_dmul+0x370>
 8001470:	2f00      	cmp	r7, #0
 8001472:	d100      	bne.n	8001476 <__aeabi_dmul+0x116>
 8001474:	e1a5      	b.n	80017c2 <__aeabi_dmul+0x462>
 8001476:	0038      	movs	r0, r7
 8001478:	f000 fec0 	bl	80021fc <__clzsi2>
 800147c:	0003      	movs	r3, r0
 800147e:	3b0b      	subs	r3, #11
 8001480:	2b1c      	cmp	r3, #28
 8001482:	dd00      	ble.n	8001486 <__aeabi_dmul+0x126>
 8001484:	e196      	b.n	80017b4 <__aeabi_dmul+0x454>
 8001486:	221d      	movs	r2, #29
 8001488:	1ad3      	subs	r3, r2, r3
 800148a:	465a      	mov	r2, fp
 800148c:	0001      	movs	r1, r0
 800148e:	40da      	lsrs	r2, r3
 8001490:	465e      	mov	r6, fp
 8001492:	3908      	subs	r1, #8
 8001494:	408f      	lsls	r7, r1
 8001496:	0013      	movs	r3, r2
 8001498:	408e      	lsls	r6, r1
 800149a:	433b      	orrs	r3, r7
 800149c:	9301      	str	r3, [sp, #4]
 800149e:	4b9c      	ldr	r3, [pc, #624]	; (8001710 <__aeabi_dmul+0x3b0>)
 80014a0:	2700      	movs	r7, #0
 80014a2:	1a1b      	subs	r3, r3, r0
 80014a4:	4699      	mov	r9, r3
 80014a6:	2300      	movs	r3, #0
 80014a8:	469b      	mov	fp, r3
 80014aa:	e77d      	b.n	80013a8 <__aeabi_dmul+0x48>
 80014ac:	4641      	mov	r1, r8
 80014ae:	4653      	mov	r3, sl
 80014b0:	430b      	orrs	r3, r1
 80014b2:	4993      	ldr	r1, [pc, #588]	; (8001700 <__aeabi_dmul+0x3a0>)
 80014b4:	468c      	mov	ip, r1
 80014b6:	44e1      	add	r9, ip
 80014b8:	2b00      	cmp	r3, #0
 80014ba:	d000      	beq.n	80014be <__aeabi_dmul+0x15e>
 80014bc:	e11a      	b.n	80016f4 <__aeabi_dmul+0x394>
 80014be:	2202      	movs	r2, #2
 80014c0:	2002      	movs	r0, #2
 80014c2:	4317      	orrs	r7, r2
 80014c4:	2200      	movs	r2, #0
 80014c6:	e78c      	b.n	80013e2 <__aeabi_dmul+0x82>
 80014c8:	4313      	orrs	r3, r2
 80014ca:	d100      	bne.n	80014ce <__aeabi_dmul+0x16e>
 80014cc:	e10d      	b.n	80016ea <__aeabi_dmul+0x38a>
 80014ce:	4643      	mov	r3, r8
 80014d0:	2b00      	cmp	r3, #0
 80014d2:	d100      	bne.n	80014d6 <__aeabi_dmul+0x176>
 80014d4:	e181      	b.n	80017da <__aeabi_dmul+0x47a>
 80014d6:	4640      	mov	r0, r8
 80014d8:	f000 fe90 	bl	80021fc <__clzsi2>
 80014dc:	0002      	movs	r2, r0
 80014de:	3a0b      	subs	r2, #11
 80014e0:	2a1c      	cmp	r2, #28
 80014e2:	dd00      	ble.n	80014e6 <__aeabi_dmul+0x186>
 80014e4:	e172      	b.n	80017cc <__aeabi_dmul+0x46c>
 80014e6:	0001      	movs	r1, r0
 80014e8:	4643      	mov	r3, r8
 80014ea:	3908      	subs	r1, #8
 80014ec:	408b      	lsls	r3, r1
 80014ee:	4698      	mov	r8, r3
 80014f0:	231d      	movs	r3, #29
 80014f2:	1a9a      	subs	r2, r3, r2
 80014f4:	4653      	mov	r3, sl
 80014f6:	40d3      	lsrs	r3, r2
 80014f8:	001a      	movs	r2, r3
 80014fa:	4643      	mov	r3, r8
 80014fc:	4313      	orrs	r3, r2
 80014fe:	4652      	mov	r2, sl
 8001500:	408a      	lsls	r2, r1
 8001502:	4649      	mov	r1, r9
 8001504:	1a08      	subs	r0, r1, r0
 8001506:	4982      	ldr	r1, [pc, #520]	; (8001710 <__aeabi_dmul+0x3b0>)
 8001508:	4689      	mov	r9, r1
 800150a:	4481      	add	r9, r0
 800150c:	2000      	movs	r0, #0
 800150e:	e768      	b.n	80013e2 <__aeabi_dmul+0x82>
 8001510:	4b7b      	ldr	r3, [pc, #492]	; (8001700 <__aeabi_dmul+0x3a0>)
 8001512:	2700      	movs	r7, #0
 8001514:	2600      	movs	r6, #0
 8001516:	e78e      	b.n	8001436 <__aeabi_dmul+0xd6>
 8001518:	0c14      	lsrs	r4, r2, #16
 800151a:	0412      	lsls	r2, r2, #16
 800151c:	0c12      	lsrs	r2, r2, #16
 800151e:	0011      	movs	r1, r2
 8001520:	0c37      	lsrs	r7, r6, #16
 8001522:	0436      	lsls	r6, r6, #16
 8001524:	0c35      	lsrs	r5, r6, #16
 8001526:	4379      	muls	r1, r7
 8001528:	0028      	movs	r0, r5
 800152a:	468c      	mov	ip, r1
 800152c:	002e      	movs	r6, r5
 800152e:	4360      	muls	r0, r4
 8001530:	4460      	add	r0, ip
 8001532:	4683      	mov	fp, r0
 8001534:	4356      	muls	r6, r2
 8001536:	0021      	movs	r1, r4
 8001538:	0c30      	lsrs	r0, r6, #16
 800153a:	4680      	mov	r8, r0
 800153c:	4658      	mov	r0, fp
 800153e:	4379      	muls	r1, r7
 8001540:	4440      	add	r0, r8
 8001542:	9102      	str	r1, [sp, #8]
 8001544:	4584      	cmp	ip, r0
 8001546:	d906      	bls.n	8001556 <__aeabi_dmul+0x1f6>
 8001548:	4688      	mov	r8, r1
 800154a:	2180      	movs	r1, #128	; 0x80
 800154c:	0249      	lsls	r1, r1, #9
 800154e:	468c      	mov	ip, r1
 8001550:	44e0      	add	r8, ip
 8001552:	4641      	mov	r1, r8
 8001554:	9102      	str	r1, [sp, #8]
 8001556:	0436      	lsls	r6, r6, #16
 8001558:	0c01      	lsrs	r1, r0, #16
 800155a:	0c36      	lsrs	r6, r6, #16
 800155c:	0400      	lsls	r0, r0, #16
 800155e:	468b      	mov	fp, r1
 8001560:	1981      	adds	r1, r0, r6
 8001562:	0c1e      	lsrs	r6, r3, #16
 8001564:	041b      	lsls	r3, r3, #16
 8001566:	0c1b      	lsrs	r3, r3, #16
 8001568:	9103      	str	r1, [sp, #12]
 800156a:	0019      	movs	r1, r3
 800156c:	4379      	muls	r1, r7
 800156e:	468c      	mov	ip, r1
 8001570:	0028      	movs	r0, r5
 8001572:	4375      	muls	r5, r6
 8001574:	4465      	add	r5, ip
 8001576:	46a8      	mov	r8, r5
 8001578:	4358      	muls	r0, r3
 800157a:	0c05      	lsrs	r5, r0, #16
 800157c:	4445      	add	r5, r8
 800157e:	4377      	muls	r7, r6
 8001580:	42a9      	cmp	r1, r5
 8001582:	d903      	bls.n	800158c <__aeabi_dmul+0x22c>
 8001584:	2180      	movs	r1, #128	; 0x80
 8001586:	0249      	lsls	r1, r1, #9
 8001588:	468c      	mov	ip, r1
 800158a:	4467      	add	r7, ip
 800158c:	0c29      	lsrs	r1, r5, #16
 800158e:	468c      	mov	ip, r1
 8001590:	0039      	movs	r1, r7
 8001592:	0400      	lsls	r0, r0, #16
 8001594:	0c00      	lsrs	r0, r0, #16
 8001596:	042d      	lsls	r5, r5, #16
 8001598:	182d      	adds	r5, r5, r0
 800159a:	4461      	add	r1, ip
 800159c:	44ab      	add	fp, r5
 800159e:	9105      	str	r1, [sp, #20]
 80015a0:	4659      	mov	r1, fp
 80015a2:	9104      	str	r1, [sp, #16]
 80015a4:	9901      	ldr	r1, [sp, #4]
 80015a6:	040f      	lsls	r7, r1, #16
 80015a8:	0c3f      	lsrs	r7, r7, #16
 80015aa:	0c08      	lsrs	r0, r1, #16
 80015ac:	0039      	movs	r1, r7
 80015ae:	4351      	muls	r1, r2
 80015b0:	4342      	muls	r2, r0
 80015b2:	4690      	mov	r8, r2
 80015b4:	0002      	movs	r2, r0
 80015b6:	468c      	mov	ip, r1
 80015b8:	0c09      	lsrs	r1, r1, #16
 80015ba:	468b      	mov	fp, r1
 80015bc:	4362      	muls	r2, r4
 80015be:	437c      	muls	r4, r7
 80015c0:	4444      	add	r4, r8
 80015c2:	445c      	add	r4, fp
 80015c4:	45a0      	cmp	r8, r4
 80015c6:	d903      	bls.n	80015d0 <__aeabi_dmul+0x270>
 80015c8:	2180      	movs	r1, #128	; 0x80
 80015ca:	0249      	lsls	r1, r1, #9
 80015cc:	4688      	mov	r8, r1
 80015ce:	4442      	add	r2, r8
 80015d0:	0c21      	lsrs	r1, r4, #16
 80015d2:	4688      	mov	r8, r1
 80015d4:	4661      	mov	r1, ip
 80015d6:	0409      	lsls	r1, r1, #16
 80015d8:	0c09      	lsrs	r1, r1, #16
 80015da:	468c      	mov	ip, r1
 80015dc:	0039      	movs	r1, r7
 80015de:	4359      	muls	r1, r3
 80015e0:	4343      	muls	r3, r0
 80015e2:	4370      	muls	r0, r6
 80015e4:	437e      	muls	r6, r7
 80015e6:	0c0f      	lsrs	r7, r1, #16
 80015e8:	18f6      	adds	r6, r6, r3
 80015ea:	0424      	lsls	r4, r4, #16
 80015ec:	19be      	adds	r6, r7, r6
 80015ee:	4464      	add	r4, ip
 80015f0:	4442      	add	r2, r8
 80015f2:	468c      	mov	ip, r1
 80015f4:	42b3      	cmp	r3, r6
 80015f6:	d903      	bls.n	8001600 <__aeabi_dmul+0x2a0>
 80015f8:	2380      	movs	r3, #128	; 0x80
 80015fa:	025b      	lsls	r3, r3, #9
 80015fc:	4698      	mov	r8, r3
 80015fe:	4440      	add	r0, r8
 8001600:	9b02      	ldr	r3, [sp, #8]
 8001602:	4661      	mov	r1, ip
 8001604:	4698      	mov	r8, r3
 8001606:	9b04      	ldr	r3, [sp, #16]
 8001608:	0437      	lsls	r7, r6, #16
 800160a:	4443      	add	r3, r8
 800160c:	469b      	mov	fp, r3
 800160e:	45ab      	cmp	fp, r5
 8001610:	41ad      	sbcs	r5, r5
 8001612:	426b      	negs	r3, r5
 8001614:	040d      	lsls	r5, r1, #16
 8001616:	9905      	ldr	r1, [sp, #20]
 8001618:	0c2d      	lsrs	r5, r5, #16
 800161a:	468c      	mov	ip, r1
 800161c:	197f      	adds	r7, r7, r5
 800161e:	4467      	add	r7, ip
 8001620:	18fd      	adds	r5, r7, r3
 8001622:	46a8      	mov	r8, r5
 8001624:	465d      	mov	r5, fp
 8001626:	192d      	adds	r5, r5, r4
 8001628:	42a5      	cmp	r5, r4
 800162a:	41a4      	sbcs	r4, r4
 800162c:	4693      	mov	fp, r2
 800162e:	4264      	negs	r4, r4
 8001630:	46a4      	mov	ip, r4
 8001632:	44c3      	add	fp, r8
 8001634:	44dc      	add	ip, fp
 8001636:	428f      	cmp	r7, r1
 8001638:	41bf      	sbcs	r7, r7
 800163a:	4598      	cmp	r8, r3
 800163c:	419b      	sbcs	r3, r3
 800163e:	4593      	cmp	fp, r2
 8001640:	4192      	sbcs	r2, r2
 8001642:	45a4      	cmp	ip, r4
 8001644:	41a4      	sbcs	r4, r4
 8001646:	425b      	negs	r3, r3
 8001648:	427f      	negs	r7, r7
 800164a:	431f      	orrs	r7, r3
 800164c:	0c36      	lsrs	r6, r6, #16
 800164e:	4252      	negs	r2, r2
 8001650:	4264      	negs	r4, r4
 8001652:	19bf      	adds	r7, r7, r6
 8001654:	4322      	orrs	r2, r4
 8001656:	18bf      	adds	r7, r7, r2
 8001658:	4662      	mov	r2, ip
 800165a:	1838      	adds	r0, r7, r0
 800165c:	0243      	lsls	r3, r0, #9
 800165e:	0dd2      	lsrs	r2, r2, #23
 8001660:	9903      	ldr	r1, [sp, #12]
 8001662:	4313      	orrs	r3, r2
 8001664:	026a      	lsls	r2, r5, #9
 8001666:	430a      	orrs	r2, r1
 8001668:	1e50      	subs	r0, r2, #1
 800166a:	4182      	sbcs	r2, r0
 800166c:	4661      	mov	r1, ip
 800166e:	0ded      	lsrs	r5, r5, #23
 8001670:	432a      	orrs	r2, r5
 8001672:	024e      	lsls	r6, r1, #9
 8001674:	4332      	orrs	r2, r6
 8001676:	01d9      	lsls	r1, r3, #7
 8001678:	d400      	bmi.n	800167c <__aeabi_dmul+0x31c>
 800167a:	e0b3      	b.n	80017e4 <__aeabi_dmul+0x484>
 800167c:	2601      	movs	r6, #1
 800167e:	0850      	lsrs	r0, r2, #1
 8001680:	4032      	ands	r2, r6
 8001682:	4302      	orrs	r2, r0
 8001684:	07de      	lsls	r6, r3, #31
 8001686:	4332      	orrs	r2, r6
 8001688:	085b      	lsrs	r3, r3, #1
 800168a:	4c22      	ldr	r4, [pc, #136]	; (8001714 <__aeabi_dmul+0x3b4>)
 800168c:	4454      	add	r4, sl
 800168e:	2c00      	cmp	r4, #0
 8001690:	dd62      	ble.n	8001758 <__aeabi_dmul+0x3f8>
 8001692:	0751      	lsls	r1, r2, #29
 8001694:	d009      	beq.n	80016aa <__aeabi_dmul+0x34a>
 8001696:	200f      	movs	r0, #15
 8001698:	4010      	ands	r0, r2
 800169a:	2804      	cmp	r0, #4
 800169c:	d005      	beq.n	80016aa <__aeabi_dmul+0x34a>
 800169e:	1d10      	adds	r0, r2, #4
 80016a0:	4290      	cmp	r0, r2
 80016a2:	4192      	sbcs	r2, r2
 80016a4:	4252      	negs	r2, r2
 80016a6:	189b      	adds	r3, r3, r2
 80016a8:	0002      	movs	r2, r0
 80016aa:	01d9      	lsls	r1, r3, #7
 80016ac:	d504      	bpl.n	80016b8 <__aeabi_dmul+0x358>
 80016ae:	2480      	movs	r4, #128	; 0x80
 80016b0:	4819      	ldr	r0, [pc, #100]	; (8001718 <__aeabi_dmul+0x3b8>)
 80016b2:	00e4      	lsls	r4, r4, #3
 80016b4:	4003      	ands	r3, r0
 80016b6:	4454      	add	r4, sl
 80016b8:	4818      	ldr	r0, [pc, #96]	; (800171c <__aeabi_dmul+0x3bc>)
 80016ba:	4284      	cmp	r4, r0
 80016bc:	dd00      	ble.n	80016c0 <__aeabi_dmul+0x360>
 80016be:	e727      	b.n	8001510 <__aeabi_dmul+0x1b0>
 80016c0:	075e      	lsls	r6, r3, #29
 80016c2:	025b      	lsls	r3, r3, #9
 80016c4:	08d2      	lsrs	r2, r2, #3
 80016c6:	0b1f      	lsrs	r7, r3, #12
 80016c8:	0563      	lsls	r3, r4, #21
 80016ca:	4316      	orrs	r6, r2
 80016cc:	0d5b      	lsrs	r3, r3, #21
 80016ce:	e6b2      	b.n	8001436 <__aeabi_dmul+0xd6>
 80016d0:	2300      	movs	r3, #0
 80016d2:	4699      	mov	r9, r3
 80016d4:	3301      	adds	r3, #1
 80016d6:	2704      	movs	r7, #4
 80016d8:	2600      	movs	r6, #0
 80016da:	469b      	mov	fp, r3
 80016dc:	e664      	b.n	80013a8 <__aeabi_dmul+0x48>
 80016de:	2303      	movs	r3, #3
 80016e0:	9701      	str	r7, [sp, #4]
 80016e2:	4681      	mov	r9, r0
 80016e4:	270c      	movs	r7, #12
 80016e6:	469b      	mov	fp, r3
 80016e8:	e65e      	b.n	80013a8 <__aeabi_dmul+0x48>
 80016ea:	2201      	movs	r2, #1
 80016ec:	2001      	movs	r0, #1
 80016ee:	4317      	orrs	r7, r2
 80016f0:	2200      	movs	r2, #0
 80016f2:	e676      	b.n	80013e2 <__aeabi_dmul+0x82>
 80016f4:	2303      	movs	r3, #3
 80016f6:	2003      	movs	r0, #3
 80016f8:	431f      	orrs	r7, r3
 80016fa:	4643      	mov	r3, r8
 80016fc:	e671      	b.n	80013e2 <__aeabi_dmul+0x82>
 80016fe:	46c0      	nop			; (mov r8, r8)
 8001700:	000007ff 	.word	0x000007ff
 8001704:	fffffc01 	.word	0xfffffc01
 8001708:	0800817c 	.word	0x0800817c
 800170c:	800fffff 	.word	0x800fffff
 8001710:	fffffc0d 	.word	0xfffffc0d
 8001714:	000003ff 	.word	0x000003ff
 8001718:	feffffff 	.word	0xfeffffff
 800171c:	000007fe 	.word	0x000007fe
 8001720:	2300      	movs	r3, #0
 8001722:	2780      	movs	r7, #128	; 0x80
 8001724:	9300      	str	r3, [sp, #0]
 8001726:	033f      	lsls	r7, r7, #12
 8001728:	2600      	movs	r6, #0
 800172a:	4b43      	ldr	r3, [pc, #268]	; (8001838 <__aeabi_dmul+0x4d8>)
 800172c:	e683      	b.n	8001436 <__aeabi_dmul+0xd6>
 800172e:	9b01      	ldr	r3, [sp, #4]
 8001730:	0032      	movs	r2, r6
 8001732:	46a4      	mov	ip, r4
 8001734:	4658      	mov	r0, fp
 8001736:	e670      	b.n	800141a <__aeabi_dmul+0xba>
 8001738:	46ac      	mov	ip, r5
 800173a:	e66e      	b.n	800141a <__aeabi_dmul+0xba>
 800173c:	2780      	movs	r7, #128	; 0x80
 800173e:	9901      	ldr	r1, [sp, #4]
 8001740:	033f      	lsls	r7, r7, #12
 8001742:	4239      	tst	r1, r7
 8001744:	d02d      	beq.n	80017a2 <__aeabi_dmul+0x442>
 8001746:	423b      	tst	r3, r7
 8001748:	d12b      	bne.n	80017a2 <__aeabi_dmul+0x442>
 800174a:	431f      	orrs	r7, r3
 800174c:	033f      	lsls	r7, r7, #12
 800174e:	0b3f      	lsrs	r7, r7, #12
 8001750:	9500      	str	r5, [sp, #0]
 8001752:	0016      	movs	r6, r2
 8001754:	4b38      	ldr	r3, [pc, #224]	; (8001838 <__aeabi_dmul+0x4d8>)
 8001756:	e66e      	b.n	8001436 <__aeabi_dmul+0xd6>
 8001758:	2501      	movs	r5, #1
 800175a:	1b2d      	subs	r5, r5, r4
 800175c:	2d38      	cmp	r5, #56	; 0x38
 800175e:	dd00      	ble.n	8001762 <__aeabi_dmul+0x402>
 8001760:	e666      	b.n	8001430 <__aeabi_dmul+0xd0>
 8001762:	2d1f      	cmp	r5, #31
 8001764:	dc40      	bgt.n	80017e8 <__aeabi_dmul+0x488>
 8001766:	4835      	ldr	r0, [pc, #212]	; (800183c <__aeabi_dmul+0x4dc>)
 8001768:	001c      	movs	r4, r3
 800176a:	4450      	add	r0, sl
 800176c:	0016      	movs	r6, r2
 800176e:	4082      	lsls	r2, r0
 8001770:	4084      	lsls	r4, r0
 8001772:	40ee      	lsrs	r6, r5
 8001774:	1e50      	subs	r0, r2, #1
 8001776:	4182      	sbcs	r2, r0
 8001778:	4334      	orrs	r4, r6
 800177a:	4314      	orrs	r4, r2
 800177c:	40eb      	lsrs	r3, r5
 800177e:	0762      	lsls	r2, r4, #29
 8001780:	d009      	beq.n	8001796 <__aeabi_dmul+0x436>
 8001782:	220f      	movs	r2, #15
 8001784:	4022      	ands	r2, r4
 8001786:	2a04      	cmp	r2, #4
 8001788:	d005      	beq.n	8001796 <__aeabi_dmul+0x436>
 800178a:	0022      	movs	r2, r4
 800178c:	1d14      	adds	r4, r2, #4
 800178e:	4294      	cmp	r4, r2
 8001790:	4180      	sbcs	r0, r0
 8001792:	4240      	negs	r0, r0
 8001794:	181b      	adds	r3, r3, r0
 8001796:	021a      	lsls	r2, r3, #8
 8001798:	d53e      	bpl.n	8001818 <__aeabi_dmul+0x4b8>
 800179a:	2301      	movs	r3, #1
 800179c:	2700      	movs	r7, #0
 800179e:	2600      	movs	r6, #0
 80017a0:	e649      	b.n	8001436 <__aeabi_dmul+0xd6>
 80017a2:	2780      	movs	r7, #128	; 0x80
 80017a4:	9b01      	ldr	r3, [sp, #4]
 80017a6:	033f      	lsls	r7, r7, #12
 80017a8:	431f      	orrs	r7, r3
 80017aa:	033f      	lsls	r7, r7, #12
 80017ac:	0b3f      	lsrs	r7, r7, #12
 80017ae:	9400      	str	r4, [sp, #0]
 80017b0:	4b21      	ldr	r3, [pc, #132]	; (8001838 <__aeabi_dmul+0x4d8>)
 80017b2:	e640      	b.n	8001436 <__aeabi_dmul+0xd6>
 80017b4:	0003      	movs	r3, r0
 80017b6:	465a      	mov	r2, fp
 80017b8:	3b28      	subs	r3, #40	; 0x28
 80017ba:	409a      	lsls	r2, r3
 80017bc:	2600      	movs	r6, #0
 80017be:	9201      	str	r2, [sp, #4]
 80017c0:	e66d      	b.n	800149e <__aeabi_dmul+0x13e>
 80017c2:	4658      	mov	r0, fp
 80017c4:	f000 fd1a 	bl	80021fc <__clzsi2>
 80017c8:	3020      	adds	r0, #32
 80017ca:	e657      	b.n	800147c <__aeabi_dmul+0x11c>
 80017cc:	0003      	movs	r3, r0
 80017ce:	4652      	mov	r2, sl
 80017d0:	3b28      	subs	r3, #40	; 0x28
 80017d2:	409a      	lsls	r2, r3
 80017d4:	0013      	movs	r3, r2
 80017d6:	2200      	movs	r2, #0
 80017d8:	e693      	b.n	8001502 <__aeabi_dmul+0x1a2>
 80017da:	4650      	mov	r0, sl
 80017dc:	f000 fd0e 	bl	80021fc <__clzsi2>
 80017e0:	3020      	adds	r0, #32
 80017e2:	e67b      	b.n	80014dc <__aeabi_dmul+0x17c>
 80017e4:	46ca      	mov	sl, r9
 80017e6:	e750      	b.n	800168a <__aeabi_dmul+0x32a>
 80017e8:	201f      	movs	r0, #31
 80017ea:	001e      	movs	r6, r3
 80017ec:	4240      	negs	r0, r0
 80017ee:	1b04      	subs	r4, r0, r4
 80017f0:	40e6      	lsrs	r6, r4
 80017f2:	2d20      	cmp	r5, #32
 80017f4:	d003      	beq.n	80017fe <__aeabi_dmul+0x49e>
 80017f6:	4c12      	ldr	r4, [pc, #72]	; (8001840 <__aeabi_dmul+0x4e0>)
 80017f8:	4454      	add	r4, sl
 80017fa:	40a3      	lsls	r3, r4
 80017fc:	431a      	orrs	r2, r3
 80017fe:	1e50      	subs	r0, r2, #1
 8001800:	4182      	sbcs	r2, r0
 8001802:	4332      	orrs	r2, r6
 8001804:	2607      	movs	r6, #7
 8001806:	2700      	movs	r7, #0
 8001808:	4016      	ands	r6, r2
 800180a:	d009      	beq.n	8001820 <__aeabi_dmul+0x4c0>
 800180c:	200f      	movs	r0, #15
 800180e:	2300      	movs	r3, #0
 8001810:	4010      	ands	r0, r2
 8001812:	0014      	movs	r4, r2
 8001814:	2804      	cmp	r0, #4
 8001816:	d1b9      	bne.n	800178c <__aeabi_dmul+0x42c>
 8001818:	0022      	movs	r2, r4
 800181a:	075e      	lsls	r6, r3, #29
 800181c:	025b      	lsls	r3, r3, #9
 800181e:	0b1f      	lsrs	r7, r3, #12
 8001820:	08d2      	lsrs	r2, r2, #3
 8001822:	4316      	orrs	r6, r2
 8001824:	2300      	movs	r3, #0
 8001826:	e606      	b.n	8001436 <__aeabi_dmul+0xd6>
 8001828:	2780      	movs	r7, #128	; 0x80
 800182a:	033f      	lsls	r7, r7, #12
 800182c:	431f      	orrs	r7, r3
 800182e:	033f      	lsls	r7, r7, #12
 8001830:	0b3f      	lsrs	r7, r7, #12
 8001832:	0016      	movs	r6, r2
 8001834:	4b00      	ldr	r3, [pc, #0]	; (8001838 <__aeabi_dmul+0x4d8>)
 8001836:	e5fe      	b.n	8001436 <__aeabi_dmul+0xd6>
 8001838:	000007ff 	.word	0x000007ff
 800183c:	0000041e 	.word	0x0000041e
 8001840:	0000043e 	.word	0x0000043e

08001844 <__aeabi_dsub>:
 8001844:	b5f8      	push	{r3, r4, r5, r6, r7, lr}
 8001846:	4657      	mov	r7, sl
 8001848:	464e      	mov	r6, r9
 800184a:	4645      	mov	r5, r8
 800184c:	46de      	mov	lr, fp
 800184e:	000c      	movs	r4, r1
 8001850:	0309      	lsls	r1, r1, #12
 8001852:	b5e0      	push	{r5, r6, r7, lr}
 8001854:	0a49      	lsrs	r1, r1, #9
 8001856:	0f46      	lsrs	r6, r0, #29
 8001858:	005f      	lsls	r7, r3, #1
 800185a:	4331      	orrs	r1, r6
 800185c:	031e      	lsls	r6, r3, #12
 800185e:	0fdb      	lsrs	r3, r3, #31
 8001860:	0a76      	lsrs	r6, r6, #9
 8001862:	469b      	mov	fp, r3
 8001864:	0f53      	lsrs	r3, r2, #29
 8001866:	4333      	orrs	r3, r6
 8001868:	4ec8      	ldr	r6, [pc, #800]	; (8001b8c <__aeabi_dsub+0x348>)
 800186a:	0065      	lsls	r5, r4, #1
 800186c:	00c0      	lsls	r0, r0, #3
 800186e:	0fe4      	lsrs	r4, r4, #31
 8001870:	00d2      	lsls	r2, r2, #3
 8001872:	0d6d      	lsrs	r5, r5, #21
 8001874:	46a2      	mov	sl, r4
 8001876:	4681      	mov	r9, r0
 8001878:	0d7f      	lsrs	r7, r7, #21
 800187a:	469c      	mov	ip, r3
 800187c:	4690      	mov	r8, r2
 800187e:	42b7      	cmp	r7, r6
 8001880:	d100      	bne.n	8001884 <__aeabi_dsub+0x40>
 8001882:	e0b9      	b.n	80019f8 <__aeabi_dsub+0x1b4>
 8001884:	465b      	mov	r3, fp
 8001886:	2601      	movs	r6, #1
 8001888:	4073      	eors	r3, r6
 800188a:	469b      	mov	fp, r3
 800188c:	1bee      	subs	r6, r5, r7
 800188e:	45a3      	cmp	fp, r4
 8001890:	d100      	bne.n	8001894 <__aeabi_dsub+0x50>
 8001892:	e083      	b.n	800199c <__aeabi_dsub+0x158>
 8001894:	2e00      	cmp	r6, #0
 8001896:	dd63      	ble.n	8001960 <__aeabi_dsub+0x11c>
 8001898:	2f00      	cmp	r7, #0
 800189a:	d000      	beq.n	800189e <__aeabi_dsub+0x5a>
 800189c:	e0b1      	b.n	8001a02 <__aeabi_dsub+0x1be>
 800189e:	4663      	mov	r3, ip
 80018a0:	4313      	orrs	r3, r2
 80018a2:	d100      	bne.n	80018a6 <__aeabi_dsub+0x62>
 80018a4:	e123      	b.n	8001aee <__aeabi_dsub+0x2aa>
 80018a6:	1e73      	subs	r3, r6, #1
 80018a8:	2b00      	cmp	r3, #0
 80018aa:	d000      	beq.n	80018ae <__aeabi_dsub+0x6a>
 80018ac:	e1ba      	b.n	8001c24 <__aeabi_dsub+0x3e0>
 80018ae:	1a86      	subs	r6, r0, r2
 80018b0:	4663      	mov	r3, ip
 80018b2:	42b0      	cmp	r0, r6
 80018b4:	4180      	sbcs	r0, r0
 80018b6:	2501      	movs	r5, #1
 80018b8:	1ac9      	subs	r1, r1, r3
 80018ba:	4240      	negs	r0, r0
 80018bc:	1a09      	subs	r1, r1, r0
 80018be:	020b      	lsls	r3, r1, #8
 80018c0:	d400      	bmi.n	80018c4 <__aeabi_dsub+0x80>
 80018c2:	e147      	b.n	8001b54 <__aeabi_dsub+0x310>
 80018c4:	0249      	lsls	r1, r1, #9
 80018c6:	0a4b      	lsrs	r3, r1, #9
 80018c8:	4698      	mov	r8, r3
 80018ca:	4643      	mov	r3, r8
 80018cc:	2b00      	cmp	r3, #0
 80018ce:	d100      	bne.n	80018d2 <__aeabi_dsub+0x8e>
 80018d0:	e189      	b.n	8001be6 <__aeabi_dsub+0x3a2>
 80018d2:	4640      	mov	r0, r8
 80018d4:	f000 fc92 	bl	80021fc <__clzsi2>
 80018d8:	0003      	movs	r3, r0
 80018da:	3b08      	subs	r3, #8
 80018dc:	2b1f      	cmp	r3, #31
 80018de:	dd00      	ble.n	80018e2 <__aeabi_dsub+0x9e>
 80018e0:	e17c      	b.n	8001bdc <__aeabi_dsub+0x398>
 80018e2:	2220      	movs	r2, #32
 80018e4:	0030      	movs	r0, r6
 80018e6:	1ad2      	subs	r2, r2, r3
 80018e8:	4641      	mov	r1, r8
 80018ea:	40d0      	lsrs	r0, r2
 80018ec:	4099      	lsls	r1, r3
 80018ee:	0002      	movs	r2, r0
 80018f0:	409e      	lsls	r6, r3
 80018f2:	430a      	orrs	r2, r1
 80018f4:	429d      	cmp	r5, r3
 80018f6:	dd00      	ble.n	80018fa <__aeabi_dsub+0xb6>
 80018f8:	e16a      	b.n	8001bd0 <__aeabi_dsub+0x38c>
 80018fa:	1b5d      	subs	r5, r3, r5
 80018fc:	1c6b      	adds	r3, r5, #1
 80018fe:	2b1f      	cmp	r3, #31
 8001900:	dd00      	ble.n	8001904 <__aeabi_dsub+0xc0>
 8001902:	e194      	b.n	8001c2e <__aeabi_dsub+0x3ea>
 8001904:	2120      	movs	r1, #32
 8001906:	0010      	movs	r0, r2
 8001908:	0035      	movs	r5, r6
 800190a:	1ac9      	subs	r1, r1, r3
 800190c:	408e      	lsls	r6, r1
 800190e:	40da      	lsrs	r2, r3
 8001910:	4088      	lsls	r0, r1
 8001912:	40dd      	lsrs	r5, r3
 8001914:	1e71      	subs	r1, r6, #1
 8001916:	418e      	sbcs	r6, r1
 8001918:	0011      	movs	r1, r2
 800191a:	2207      	movs	r2, #7
 800191c:	4328      	orrs	r0, r5
 800191e:	2500      	movs	r5, #0
 8001920:	4306      	orrs	r6, r0
 8001922:	4032      	ands	r2, r6
 8001924:	2a00      	cmp	r2, #0
 8001926:	d009      	beq.n	800193c <__aeabi_dsub+0xf8>
 8001928:	230f      	movs	r3, #15
 800192a:	4033      	ands	r3, r6
 800192c:	2b04      	cmp	r3, #4
 800192e:	d005      	beq.n	800193c <__aeabi_dsub+0xf8>
 8001930:	1d33      	adds	r3, r6, #4
 8001932:	42b3      	cmp	r3, r6
 8001934:	41b6      	sbcs	r6, r6
 8001936:	4276      	negs	r6, r6
 8001938:	1989      	adds	r1, r1, r6
 800193a:	001e      	movs	r6, r3
 800193c:	020b      	lsls	r3, r1, #8
 800193e:	d400      	bmi.n	8001942 <__aeabi_dsub+0xfe>
 8001940:	e23d      	b.n	8001dbe <__aeabi_dsub+0x57a>
 8001942:	1c6a      	adds	r2, r5, #1
 8001944:	4b91      	ldr	r3, [pc, #580]	; (8001b8c <__aeabi_dsub+0x348>)
 8001946:	0555      	lsls	r5, r2, #21
 8001948:	0d6d      	lsrs	r5, r5, #21
 800194a:	429a      	cmp	r2, r3
 800194c:	d100      	bne.n	8001950 <__aeabi_dsub+0x10c>
 800194e:	e119      	b.n	8001b84 <__aeabi_dsub+0x340>
 8001950:	4a8f      	ldr	r2, [pc, #572]	; (8001b90 <__aeabi_dsub+0x34c>)
 8001952:	08f6      	lsrs	r6, r6, #3
 8001954:	400a      	ands	r2, r1
 8001956:	0757      	lsls	r7, r2, #29
 8001958:	0252      	lsls	r2, r2, #9
 800195a:	4337      	orrs	r7, r6
 800195c:	0b12      	lsrs	r2, r2, #12
 800195e:	e09b      	b.n	8001a98 <__aeabi_dsub+0x254>
 8001960:	2e00      	cmp	r6, #0
 8001962:	d000      	beq.n	8001966 <__aeabi_dsub+0x122>
 8001964:	e0c5      	b.n	8001af2 <__aeabi_dsub+0x2ae>
 8001966:	1c6e      	adds	r6, r5, #1
 8001968:	0576      	lsls	r6, r6, #21
 800196a:	0d76      	lsrs	r6, r6, #21
 800196c:	2e01      	cmp	r6, #1
 800196e:	dc00      	bgt.n	8001972 <__aeabi_dsub+0x12e>
 8001970:	e148      	b.n	8001c04 <__aeabi_dsub+0x3c0>
 8001972:	4667      	mov	r7, ip
 8001974:	1a86      	subs	r6, r0, r2
 8001976:	1bcb      	subs	r3, r1, r7
 8001978:	42b0      	cmp	r0, r6
 800197a:	41bf      	sbcs	r7, r7
 800197c:	427f      	negs	r7, r7
 800197e:	46b8      	mov	r8, r7
 8001980:	001f      	movs	r7, r3
 8001982:	4643      	mov	r3, r8
 8001984:	1aff      	subs	r7, r7, r3
 8001986:	003b      	movs	r3, r7
 8001988:	46b8      	mov	r8, r7
 800198a:	021b      	lsls	r3, r3, #8
 800198c:	d500      	bpl.n	8001990 <__aeabi_dsub+0x14c>
 800198e:	e15f      	b.n	8001c50 <__aeabi_dsub+0x40c>
 8001990:	4337      	orrs	r7, r6
 8001992:	d19a      	bne.n	80018ca <__aeabi_dsub+0x86>
 8001994:	2200      	movs	r2, #0
 8001996:	2400      	movs	r4, #0
 8001998:	2500      	movs	r5, #0
 800199a:	e079      	b.n	8001a90 <__aeabi_dsub+0x24c>
 800199c:	2e00      	cmp	r6, #0
 800199e:	dc00      	bgt.n	80019a2 <__aeabi_dsub+0x15e>
 80019a0:	e0fa      	b.n	8001b98 <__aeabi_dsub+0x354>
 80019a2:	2f00      	cmp	r7, #0
 80019a4:	d100      	bne.n	80019a8 <__aeabi_dsub+0x164>
 80019a6:	e08d      	b.n	8001ac4 <__aeabi_dsub+0x280>
 80019a8:	4b78      	ldr	r3, [pc, #480]	; (8001b8c <__aeabi_dsub+0x348>)
 80019aa:	429d      	cmp	r5, r3
 80019ac:	d067      	beq.n	8001a7e <__aeabi_dsub+0x23a>
 80019ae:	2380      	movs	r3, #128	; 0x80
 80019b0:	4667      	mov	r7, ip
 80019b2:	041b      	lsls	r3, r3, #16
 80019b4:	431f      	orrs	r7, r3
 80019b6:	46bc      	mov	ip, r7
 80019b8:	2e38      	cmp	r6, #56	; 0x38
 80019ba:	dc00      	bgt.n	80019be <__aeabi_dsub+0x17a>
 80019bc:	e152      	b.n	8001c64 <__aeabi_dsub+0x420>
 80019be:	4663      	mov	r3, ip
 80019c0:	4313      	orrs	r3, r2
 80019c2:	1e5a      	subs	r2, r3, #1
 80019c4:	4193      	sbcs	r3, r2
 80019c6:	181e      	adds	r6, r3, r0
 80019c8:	4286      	cmp	r6, r0
 80019ca:	4180      	sbcs	r0, r0
 80019cc:	4240      	negs	r0, r0
 80019ce:	1809      	adds	r1, r1, r0
 80019d0:	020b      	lsls	r3, r1, #8
 80019d2:	d400      	bmi.n	80019d6 <__aeabi_dsub+0x192>
 80019d4:	e0be      	b.n	8001b54 <__aeabi_dsub+0x310>
 80019d6:	4b6d      	ldr	r3, [pc, #436]	; (8001b8c <__aeabi_dsub+0x348>)
 80019d8:	3501      	adds	r5, #1
 80019da:	429d      	cmp	r5, r3
 80019dc:	d100      	bne.n	80019e0 <__aeabi_dsub+0x19c>
 80019de:	e0d2      	b.n	8001b86 <__aeabi_dsub+0x342>
 80019e0:	4a6b      	ldr	r2, [pc, #428]	; (8001b90 <__aeabi_dsub+0x34c>)
 80019e2:	0873      	lsrs	r3, r6, #1
 80019e4:	400a      	ands	r2, r1
 80019e6:	2101      	movs	r1, #1
 80019e8:	400e      	ands	r6, r1
 80019ea:	431e      	orrs	r6, r3
 80019ec:	0851      	lsrs	r1, r2, #1
 80019ee:	07d3      	lsls	r3, r2, #31
 80019f0:	2207      	movs	r2, #7
 80019f2:	431e      	orrs	r6, r3
 80019f4:	4032      	ands	r2, r6
 80019f6:	e795      	b.n	8001924 <__aeabi_dsub+0xe0>
 80019f8:	001e      	movs	r6, r3
 80019fa:	4316      	orrs	r6, r2
 80019fc:	d000      	beq.n	8001a00 <__aeabi_dsub+0x1bc>
 80019fe:	e745      	b.n	800188c <__aeabi_dsub+0x48>
 8001a00:	e740      	b.n	8001884 <__aeabi_dsub+0x40>
 8001a02:	4b62      	ldr	r3, [pc, #392]	; (8001b8c <__aeabi_dsub+0x348>)
 8001a04:	429d      	cmp	r5, r3
 8001a06:	d03a      	beq.n	8001a7e <__aeabi_dsub+0x23a>
 8001a08:	2380      	movs	r3, #128	; 0x80
 8001a0a:	4667      	mov	r7, ip
 8001a0c:	041b      	lsls	r3, r3, #16
 8001a0e:	431f      	orrs	r7, r3
 8001a10:	46bc      	mov	ip, r7
 8001a12:	2e38      	cmp	r6, #56	; 0x38
 8001a14:	dd00      	ble.n	8001a18 <__aeabi_dsub+0x1d4>
 8001a16:	e0eb      	b.n	8001bf0 <__aeabi_dsub+0x3ac>
 8001a18:	2e1f      	cmp	r6, #31
 8001a1a:	dc00      	bgt.n	8001a1e <__aeabi_dsub+0x1da>
 8001a1c:	e13a      	b.n	8001c94 <__aeabi_dsub+0x450>
 8001a1e:	0033      	movs	r3, r6
 8001a20:	4667      	mov	r7, ip
 8001a22:	3b20      	subs	r3, #32
 8001a24:	40df      	lsrs	r7, r3
 8001a26:	003b      	movs	r3, r7
 8001a28:	2e20      	cmp	r6, #32
 8001a2a:	d005      	beq.n	8001a38 <__aeabi_dsub+0x1f4>
 8001a2c:	2740      	movs	r7, #64	; 0x40
 8001a2e:	1bbf      	subs	r7, r7, r6
 8001a30:	4666      	mov	r6, ip
 8001a32:	40be      	lsls	r6, r7
 8001a34:	4332      	orrs	r2, r6
 8001a36:	4690      	mov	r8, r2
 8001a38:	4646      	mov	r6, r8
 8001a3a:	1e72      	subs	r2, r6, #1
 8001a3c:	4196      	sbcs	r6, r2
 8001a3e:	4333      	orrs	r3, r6
 8001a40:	e0da      	b.n	8001bf8 <__aeabi_dsub+0x3b4>
 8001a42:	2b00      	cmp	r3, #0
 8001a44:	d100      	bne.n	8001a48 <__aeabi_dsub+0x204>
 8001a46:	e214      	b.n	8001e72 <__aeabi_dsub+0x62e>
 8001a48:	4663      	mov	r3, ip
 8001a4a:	4313      	orrs	r3, r2
 8001a4c:	d100      	bne.n	8001a50 <__aeabi_dsub+0x20c>
 8001a4e:	e168      	b.n	8001d22 <__aeabi_dsub+0x4de>
 8001a50:	2380      	movs	r3, #128	; 0x80
 8001a52:	074e      	lsls	r6, r1, #29
 8001a54:	08c0      	lsrs	r0, r0, #3
 8001a56:	08c9      	lsrs	r1, r1, #3
 8001a58:	031b      	lsls	r3, r3, #12
 8001a5a:	4306      	orrs	r6, r0
 8001a5c:	4219      	tst	r1, r3
 8001a5e:	d008      	beq.n	8001a72 <__aeabi_dsub+0x22e>
 8001a60:	4660      	mov	r0, ip
 8001a62:	08c0      	lsrs	r0, r0, #3
 8001a64:	4218      	tst	r0, r3
 8001a66:	d104      	bne.n	8001a72 <__aeabi_dsub+0x22e>
 8001a68:	4663      	mov	r3, ip
 8001a6a:	0001      	movs	r1, r0
 8001a6c:	08d2      	lsrs	r2, r2, #3
 8001a6e:	075e      	lsls	r6, r3, #29
 8001a70:	4316      	orrs	r6, r2
 8001a72:	00f3      	lsls	r3, r6, #3
 8001a74:	4699      	mov	r9, r3
 8001a76:	00c9      	lsls	r1, r1, #3
 8001a78:	0f72      	lsrs	r2, r6, #29
 8001a7a:	4d44      	ldr	r5, [pc, #272]	; (8001b8c <__aeabi_dsub+0x348>)
 8001a7c:	4311      	orrs	r1, r2
 8001a7e:	464b      	mov	r3, r9
 8001a80:	08de      	lsrs	r6, r3, #3
 8001a82:	4b42      	ldr	r3, [pc, #264]	; (8001b8c <__aeabi_dsub+0x348>)
 8001a84:	074f      	lsls	r7, r1, #29
 8001a86:	4337      	orrs	r7, r6
 8001a88:	08ca      	lsrs	r2, r1, #3
 8001a8a:	429d      	cmp	r5, r3
 8001a8c:	d100      	bne.n	8001a90 <__aeabi_dsub+0x24c>
 8001a8e:	e06e      	b.n	8001b6e <__aeabi_dsub+0x32a>
 8001a90:	0312      	lsls	r2, r2, #12
 8001a92:	056d      	lsls	r5, r5, #21
 8001a94:	0b12      	lsrs	r2, r2, #12
 8001a96:	0d6d      	lsrs	r5, r5, #21
 8001a98:	2100      	movs	r1, #0
 8001a9a:	0312      	lsls	r2, r2, #12
 8001a9c:	0b13      	lsrs	r3, r2, #12
 8001a9e:	0d0a      	lsrs	r2, r1, #20
 8001aa0:	0512      	lsls	r2, r2, #20
 8001aa2:	431a      	orrs	r2, r3
 8001aa4:	4b3b      	ldr	r3, [pc, #236]	; (8001b94 <__aeabi_dsub+0x350>)
 8001aa6:	052d      	lsls	r5, r5, #20
 8001aa8:	4013      	ands	r3, r2
 8001aaa:	432b      	orrs	r3, r5
 8001aac:	005b      	lsls	r3, r3, #1
 8001aae:	07e4      	lsls	r4, r4, #31
 8001ab0:	085b      	lsrs	r3, r3, #1
 8001ab2:	4323      	orrs	r3, r4
 8001ab4:	0038      	movs	r0, r7
 8001ab6:	0019      	movs	r1, r3
 8001ab8:	bc3c      	pop	{r2, r3, r4, r5}
 8001aba:	4690      	mov	r8, r2
 8001abc:	4699      	mov	r9, r3
 8001abe:	46a2      	mov	sl, r4
 8001ac0:	46ab      	mov	fp, r5
 8001ac2:	bdf8      	pop	{r3, r4, r5, r6, r7, pc}
 8001ac4:	4663      	mov	r3, ip
 8001ac6:	4313      	orrs	r3, r2
 8001ac8:	d011      	beq.n	8001aee <__aeabi_dsub+0x2aa>
 8001aca:	1e73      	subs	r3, r6, #1
 8001acc:	2b00      	cmp	r3, #0
 8001ace:	d000      	beq.n	8001ad2 <__aeabi_dsub+0x28e>
 8001ad0:	e107      	b.n	8001ce2 <__aeabi_dsub+0x49e>
 8001ad2:	1886      	adds	r6, r0, r2
 8001ad4:	4286      	cmp	r6, r0
 8001ad6:	4180      	sbcs	r0, r0
 8001ad8:	4461      	add	r1, ip
 8001ada:	4240      	negs	r0, r0
 8001adc:	1809      	adds	r1, r1, r0
 8001ade:	2501      	movs	r5, #1
 8001ae0:	020b      	lsls	r3, r1, #8
 8001ae2:	d537      	bpl.n	8001b54 <__aeabi_dsub+0x310>
 8001ae4:	2502      	movs	r5, #2
 8001ae6:	e77b      	b.n	80019e0 <__aeabi_dsub+0x19c>
 8001ae8:	003e      	movs	r6, r7
 8001aea:	4661      	mov	r1, ip
 8001aec:	4691      	mov	r9, r2
 8001aee:	0035      	movs	r5, r6
 8001af0:	e7c5      	b.n	8001a7e <__aeabi_dsub+0x23a>
 8001af2:	465c      	mov	r4, fp
 8001af4:	2d00      	cmp	r5, #0
 8001af6:	d000      	beq.n	8001afa <__aeabi_dsub+0x2b6>
 8001af8:	e0e1      	b.n	8001cbe <__aeabi_dsub+0x47a>
 8001afa:	000b      	movs	r3, r1
 8001afc:	4303      	orrs	r3, r0
 8001afe:	d0f3      	beq.n	8001ae8 <__aeabi_dsub+0x2a4>
 8001b00:	1c73      	adds	r3, r6, #1
 8001b02:	d100      	bne.n	8001b06 <__aeabi_dsub+0x2c2>
 8001b04:	e1ac      	b.n	8001e60 <__aeabi_dsub+0x61c>
 8001b06:	4b21      	ldr	r3, [pc, #132]	; (8001b8c <__aeabi_dsub+0x348>)
 8001b08:	429f      	cmp	r7, r3
 8001b0a:	d100      	bne.n	8001b0e <__aeabi_dsub+0x2ca>
 8001b0c:	e13a      	b.n	8001d84 <__aeabi_dsub+0x540>
 8001b0e:	43f3      	mvns	r3, r6
 8001b10:	2b38      	cmp	r3, #56	; 0x38
 8001b12:	dd00      	ble.n	8001b16 <__aeabi_dsub+0x2d2>
 8001b14:	e16f      	b.n	8001df6 <__aeabi_dsub+0x5b2>
 8001b16:	2b1f      	cmp	r3, #31
 8001b18:	dd00      	ble.n	8001b1c <__aeabi_dsub+0x2d8>
 8001b1a:	e18c      	b.n	8001e36 <__aeabi_dsub+0x5f2>
 8001b1c:	2520      	movs	r5, #32
 8001b1e:	000e      	movs	r6, r1
 8001b20:	1aed      	subs	r5, r5, r3
 8001b22:	40ae      	lsls	r6, r5
 8001b24:	46b0      	mov	r8, r6
 8001b26:	0006      	movs	r6, r0
 8001b28:	46aa      	mov	sl, r5
 8001b2a:	40de      	lsrs	r6, r3
 8001b2c:	4645      	mov	r5, r8
 8001b2e:	4335      	orrs	r5, r6
 8001b30:	002e      	movs	r6, r5
 8001b32:	4655      	mov	r5, sl
 8001b34:	40d9      	lsrs	r1, r3
 8001b36:	40a8      	lsls	r0, r5
 8001b38:	4663      	mov	r3, ip
 8001b3a:	1e45      	subs	r5, r0, #1
 8001b3c:	41a8      	sbcs	r0, r5
 8001b3e:	1a5b      	subs	r3, r3, r1
 8001b40:	469c      	mov	ip, r3
 8001b42:	4330      	orrs	r0, r6
 8001b44:	1a16      	subs	r6, r2, r0
 8001b46:	42b2      	cmp	r2, r6
 8001b48:	4192      	sbcs	r2, r2
 8001b4a:	4663      	mov	r3, ip
 8001b4c:	4252      	negs	r2, r2
 8001b4e:	1a99      	subs	r1, r3, r2
 8001b50:	003d      	movs	r5, r7
 8001b52:	e6b4      	b.n	80018be <__aeabi_dsub+0x7a>
 8001b54:	2207      	movs	r2, #7
 8001b56:	4032      	ands	r2, r6
 8001b58:	2a00      	cmp	r2, #0
 8001b5a:	d000      	beq.n	8001b5e <__aeabi_dsub+0x31a>
 8001b5c:	e6e4      	b.n	8001928 <__aeabi_dsub+0xe4>
 8001b5e:	4b0b      	ldr	r3, [pc, #44]	; (8001b8c <__aeabi_dsub+0x348>)
 8001b60:	08f6      	lsrs	r6, r6, #3
 8001b62:	074f      	lsls	r7, r1, #29
 8001b64:	4337      	orrs	r7, r6
 8001b66:	08ca      	lsrs	r2, r1, #3
 8001b68:	429d      	cmp	r5, r3
 8001b6a:	d000      	beq.n	8001b6e <__aeabi_dsub+0x32a>
 8001b6c:	e790      	b.n	8001a90 <__aeabi_dsub+0x24c>
 8001b6e:	003b      	movs	r3, r7
 8001b70:	4313      	orrs	r3, r2
 8001b72:	d100      	bne.n	8001b76 <__aeabi_dsub+0x332>
 8001b74:	e1a6      	b.n	8001ec4 <__aeabi_dsub+0x680>
 8001b76:	2380      	movs	r3, #128	; 0x80
 8001b78:	031b      	lsls	r3, r3, #12
 8001b7a:	431a      	orrs	r2, r3
 8001b7c:	0312      	lsls	r2, r2, #12
 8001b7e:	0b12      	lsrs	r2, r2, #12
 8001b80:	4d02      	ldr	r5, [pc, #8]	; (8001b8c <__aeabi_dsub+0x348>)
 8001b82:	e789      	b.n	8001a98 <__aeabi_dsub+0x254>
 8001b84:	0015      	movs	r5, r2
 8001b86:	2200      	movs	r2, #0
 8001b88:	2700      	movs	r7, #0
 8001b8a:	e785      	b.n	8001a98 <__aeabi_dsub+0x254>
 8001b8c:	000007ff 	.word	0x000007ff
 8001b90:	ff7fffff 	.word	0xff7fffff
 8001b94:	800fffff 	.word	0x800fffff
 8001b98:	2e00      	cmp	r6, #0
 8001b9a:	d000      	beq.n	8001b9e <__aeabi_dsub+0x35a>
 8001b9c:	e0c7      	b.n	8001d2e <__aeabi_dsub+0x4ea>
 8001b9e:	1c6b      	adds	r3, r5, #1
 8001ba0:	055e      	lsls	r6, r3, #21
 8001ba2:	0d76      	lsrs	r6, r6, #21
 8001ba4:	2e01      	cmp	r6, #1
 8001ba6:	dc00      	bgt.n	8001baa <__aeabi_dsub+0x366>
 8001ba8:	e0f0      	b.n	8001d8c <__aeabi_dsub+0x548>
 8001baa:	4dc8      	ldr	r5, [pc, #800]	; (8001ecc <__aeabi_dsub+0x688>)
 8001bac:	42ab      	cmp	r3, r5
 8001bae:	d100      	bne.n	8001bb2 <__aeabi_dsub+0x36e>
 8001bb0:	e0b9      	b.n	8001d26 <__aeabi_dsub+0x4e2>
 8001bb2:	1885      	adds	r5, r0, r2
 8001bb4:	000a      	movs	r2, r1
 8001bb6:	4285      	cmp	r5, r0
 8001bb8:	4189      	sbcs	r1, r1
 8001bba:	4462      	add	r2, ip
 8001bbc:	4249      	negs	r1, r1
 8001bbe:	1851      	adds	r1, r2, r1
 8001bc0:	2207      	movs	r2, #7
 8001bc2:	07ce      	lsls	r6, r1, #31
 8001bc4:	086d      	lsrs	r5, r5, #1
 8001bc6:	432e      	orrs	r6, r5
 8001bc8:	0849      	lsrs	r1, r1, #1
 8001bca:	4032      	ands	r2, r6
 8001bcc:	001d      	movs	r5, r3
 8001bce:	e6a9      	b.n	8001924 <__aeabi_dsub+0xe0>
 8001bd0:	49bf      	ldr	r1, [pc, #764]	; (8001ed0 <__aeabi_dsub+0x68c>)
 8001bd2:	1aed      	subs	r5, r5, r3
 8001bd4:	4011      	ands	r1, r2
 8001bd6:	2207      	movs	r2, #7
 8001bd8:	4032      	ands	r2, r6
 8001bda:	e6a3      	b.n	8001924 <__aeabi_dsub+0xe0>
 8001bdc:	0032      	movs	r2, r6
 8001bde:	3828      	subs	r0, #40	; 0x28
 8001be0:	4082      	lsls	r2, r0
 8001be2:	2600      	movs	r6, #0
 8001be4:	e686      	b.n	80018f4 <__aeabi_dsub+0xb0>
 8001be6:	0030      	movs	r0, r6
 8001be8:	f000 fb08 	bl	80021fc <__clzsi2>
 8001bec:	3020      	adds	r0, #32
 8001bee:	e673      	b.n	80018d8 <__aeabi_dsub+0x94>
 8001bf0:	4663      	mov	r3, ip
 8001bf2:	4313      	orrs	r3, r2
 8001bf4:	1e5a      	subs	r2, r3, #1
 8001bf6:	4193      	sbcs	r3, r2
 8001bf8:	1ac6      	subs	r6, r0, r3
 8001bfa:	42b0      	cmp	r0, r6
 8001bfc:	4180      	sbcs	r0, r0
 8001bfe:	4240      	negs	r0, r0
 8001c00:	1a09      	subs	r1, r1, r0
 8001c02:	e65c      	b.n	80018be <__aeabi_dsub+0x7a>
 8001c04:	000e      	movs	r6, r1
 8001c06:	4667      	mov	r7, ip
 8001c08:	4306      	orrs	r6, r0
 8001c0a:	4317      	orrs	r7, r2
 8001c0c:	2d00      	cmp	r5, #0
 8001c0e:	d15e      	bne.n	8001cce <__aeabi_dsub+0x48a>
 8001c10:	2e00      	cmp	r6, #0
 8001c12:	d000      	beq.n	8001c16 <__aeabi_dsub+0x3d2>
 8001c14:	e0f3      	b.n	8001dfe <__aeabi_dsub+0x5ba>
 8001c16:	2f00      	cmp	r7, #0
 8001c18:	d100      	bne.n	8001c1c <__aeabi_dsub+0x3d8>
 8001c1a:	e11e      	b.n	8001e5a <__aeabi_dsub+0x616>
 8001c1c:	465c      	mov	r4, fp
 8001c1e:	4661      	mov	r1, ip
 8001c20:	4691      	mov	r9, r2
 8001c22:	e72c      	b.n	8001a7e <__aeabi_dsub+0x23a>
 8001c24:	4fa9      	ldr	r7, [pc, #676]	; (8001ecc <__aeabi_dsub+0x688>)
 8001c26:	42be      	cmp	r6, r7
 8001c28:	d07b      	beq.n	8001d22 <__aeabi_dsub+0x4de>
 8001c2a:	001e      	movs	r6, r3
 8001c2c:	e6f1      	b.n	8001a12 <__aeabi_dsub+0x1ce>
 8001c2e:	0010      	movs	r0, r2
 8001c30:	3d1f      	subs	r5, #31
 8001c32:	40e8      	lsrs	r0, r5
 8001c34:	2b20      	cmp	r3, #32
 8001c36:	d003      	beq.n	8001c40 <__aeabi_dsub+0x3fc>
 8001c38:	2140      	movs	r1, #64	; 0x40
 8001c3a:	1acb      	subs	r3, r1, r3
 8001c3c:	409a      	lsls	r2, r3
 8001c3e:	4316      	orrs	r6, r2
 8001c40:	1e73      	subs	r3, r6, #1
 8001c42:	419e      	sbcs	r6, r3
 8001c44:	2207      	movs	r2, #7
 8001c46:	4306      	orrs	r6, r0
 8001c48:	4032      	ands	r2, r6
 8001c4a:	2100      	movs	r1, #0
 8001c4c:	2500      	movs	r5, #0
 8001c4e:	e783      	b.n	8001b58 <__aeabi_dsub+0x314>
 8001c50:	1a16      	subs	r6, r2, r0
 8001c52:	4663      	mov	r3, ip
 8001c54:	42b2      	cmp	r2, r6
 8001c56:	4180      	sbcs	r0, r0
 8001c58:	1a59      	subs	r1, r3, r1
 8001c5a:	4240      	negs	r0, r0
 8001c5c:	1a0b      	subs	r3, r1, r0
 8001c5e:	4698      	mov	r8, r3
 8001c60:	465c      	mov	r4, fp
 8001c62:	e632      	b.n	80018ca <__aeabi_dsub+0x86>
 8001c64:	2e1f      	cmp	r6, #31
 8001c66:	dd00      	ble.n	8001c6a <__aeabi_dsub+0x426>
 8001c68:	e0ab      	b.n	8001dc2 <__aeabi_dsub+0x57e>
 8001c6a:	2720      	movs	r7, #32
 8001c6c:	1bbb      	subs	r3, r7, r6
 8001c6e:	469a      	mov	sl, r3
 8001c70:	4663      	mov	r3, ip
 8001c72:	4657      	mov	r7, sl
 8001c74:	40bb      	lsls	r3, r7
 8001c76:	4699      	mov	r9, r3
 8001c78:	0013      	movs	r3, r2
 8001c7a:	464f      	mov	r7, r9
 8001c7c:	40f3      	lsrs	r3, r6
 8001c7e:	431f      	orrs	r7, r3
 8001c80:	003b      	movs	r3, r7
 8001c82:	4657      	mov	r7, sl
 8001c84:	40ba      	lsls	r2, r7
 8001c86:	1e57      	subs	r7, r2, #1
 8001c88:	41ba      	sbcs	r2, r7
 8001c8a:	4313      	orrs	r3, r2
 8001c8c:	4662      	mov	r2, ip
 8001c8e:	40f2      	lsrs	r2, r6
 8001c90:	1889      	adds	r1, r1, r2
 8001c92:	e698      	b.n	80019c6 <__aeabi_dsub+0x182>
 8001c94:	2720      	movs	r7, #32
 8001c96:	1bbb      	subs	r3, r7, r6
 8001c98:	469a      	mov	sl, r3
 8001c9a:	4663      	mov	r3, ip
 8001c9c:	4657      	mov	r7, sl
 8001c9e:	40bb      	lsls	r3, r7
 8001ca0:	4699      	mov	r9, r3
 8001ca2:	0013      	movs	r3, r2
 8001ca4:	464f      	mov	r7, r9
 8001ca6:	40f3      	lsrs	r3, r6
 8001ca8:	431f      	orrs	r7, r3
 8001caa:	003b      	movs	r3, r7
 8001cac:	4657      	mov	r7, sl
 8001cae:	40ba      	lsls	r2, r7
 8001cb0:	1e57      	subs	r7, r2, #1
 8001cb2:	41ba      	sbcs	r2, r7
 8001cb4:	4313      	orrs	r3, r2
 8001cb6:	4662      	mov	r2, ip
 8001cb8:	40f2      	lsrs	r2, r6
 8001cba:	1a89      	subs	r1, r1, r2
 8001cbc:	e79c      	b.n	8001bf8 <__aeabi_dsub+0x3b4>
 8001cbe:	4b83      	ldr	r3, [pc, #524]	; (8001ecc <__aeabi_dsub+0x688>)
 8001cc0:	429f      	cmp	r7, r3
 8001cc2:	d05f      	beq.n	8001d84 <__aeabi_dsub+0x540>
 8001cc4:	2580      	movs	r5, #128	; 0x80
 8001cc6:	042d      	lsls	r5, r5, #16
 8001cc8:	4273      	negs	r3, r6
 8001cca:	4329      	orrs	r1, r5
 8001ccc:	e720      	b.n	8001b10 <__aeabi_dsub+0x2cc>
 8001cce:	2e00      	cmp	r6, #0
 8001cd0:	d10c      	bne.n	8001cec <__aeabi_dsub+0x4a8>
 8001cd2:	2f00      	cmp	r7, #0
 8001cd4:	d100      	bne.n	8001cd8 <__aeabi_dsub+0x494>
 8001cd6:	e0d0      	b.n	8001e7a <__aeabi_dsub+0x636>
 8001cd8:	465c      	mov	r4, fp
 8001cda:	4661      	mov	r1, ip
 8001cdc:	4691      	mov	r9, r2
 8001cde:	4d7b      	ldr	r5, [pc, #492]	; (8001ecc <__aeabi_dsub+0x688>)
 8001ce0:	e6cd      	b.n	8001a7e <__aeabi_dsub+0x23a>
 8001ce2:	4f7a      	ldr	r7, [pc, #488]	; (8001ecc <__aeabi_dsub+0x688>)
 8001ce4:	42be      	cmp	r6, r7
 8001ce6:	d01c      	beq.n	8001d22 <__aeabi_dsub+0x4de>
 8001ce8:	001e      	movs	r6, r3
 8001cea:	e665      	b.n	80019b8 <__aeabi_dsub+0x174>
 8001cec:	2f00      	cmp	r7, #0
 8001cee:	d018      	beq.n	8001d22 <__aeabi_dsub+0x4de>
 8001cf0:	08c0      	lsrs	r0, r0, #3
 8001cf2:	074e      	lsls	r6, r1, #29
 8001cf4:	4306      	orrs	r6, r0
 8001cf6:	2080      	movs	r0, #128	; 0x80
 8001cf8:	08c9      	lsrs	r1, r1, #3
 8001cfa:	0300      	lsls	r0, r0, #12
 8001cfc:	4201      	tst	r1, r0
 8001cfe:	d008      	beq.n	8001d12 <__aeabi_dsub+0x4ce>
 8001d00:	4663      	mov	r3, ip
 8001d02:	08dc      	lsrs	r4, r3, #3
 8001d04:	4204      	tst	r4, r0
 8001d06:	d104      	bne.n	8001d12 <__aeabi_dsub+0x4ce>
 8001d08:	0021      	movs	r1, r4
 8001d0a:	46da      	mov	sl, fp
 8001d0c:	08d2      	lsrs	r2, r2, #3
 8001d0e:	075e      	lsls	r6, r3, #29
 8001d10:	4316      	orrs	r6, r2
 8001d12:	00f3      	lsls	r3, r6, #3
 8001d14:	4699      	mov	r9, r3
 8001d16:	2401      	movs	r4, #1
 8001d18:	4653      	mov	r3, sl
 8001d1a:	00c9      	lsls	r1, r1, #3
 8001d1c:	0f72      	lsrs	r2, r6, #29
 8001d1e:	4311      	orrs	r1, r2
 8001d20:	401c      	ands	r4, r3
 8001d22:	4d6a      	ldr	r5, [pc, #424]	; (8001ecc <__aeabi_dsub+0x688>)
 8001d24:	e6ab      	b.n	8001a7e <__aeabi_dsub+0x23a>
 8001d26:	001d      	movs	r5, r3
 8001d28:	2200      	movs	r2, #0
 8001d2a:	2700      	movs	r7, #0
 8001d2c:	e6b4      	b.n	8001a98 <__aeabi_dsub+0x254>
 8001d2e:	2d00      	cmp	r5, #0
 8001d30:	d159      	bne.n	8001de6 <__aeabi_dsub+0x5a2>
 8001d32:	000b      	movs	r3, r1
 8001d34:	4303      	orrs	r3, r0
 8001d36:	d100      	bne.n	8001d3a <__aeabi_dsub+0x4f6>
 8001d38:	e6d6      	b.n	8001ae8 <__aeabi_dsub+0x2a4>
 8001d3a:	1c73      	adds	r3, r6, #1
 8001d3c:	d100      	bne.n	8001d40 <__aeabi_dsub+0x4fc>
 8001d3e:	e0b2      	b.n	8001ea6 <__aeabi_dsub+0x662>
 8001d40:	4b62      	ldr	r3, [pc, #392]	; (8001ecc <__aeabi_dsub+0x688>)
 8001d42:	429f      	cmp	r7, r3
 8001d44:	d01e      	beq.n	8001d84 <__aeabi_dsub+0x540>
 8001d46:	43f3      	mvns	r3, r6
 8001d48:	2b38      	cmp	r3, #56	; 0x38
 8001d4a:	dc6f      	bgt.n	8001e2c <__aeabi_dsub+0x5e8>
 8001d4c:	2b1f      	cmp	r3, #31
 8001d4e:	dd00      	ble.n	8001d52 <__aeabi_dsub+0x50e>
 8001d50:	e097      	b.n	8001e82 <__aeabi_dsub+0x63e>
 8001d52:	2520      	movs	r5, #32
 8001d54:	000e      	movs	r6, r1
 8001d56:	1aed      	subs	r5, r5, r3
 8001d58:	40ae      	lsls	r6, r5
 8001d5a:	46b0      	mov	r8, r6
 8001d5c:	0006      	movs	r6, r0
 8001d5e:	46aa      	mov	sl, r5
 8001d60:	40de      	lsrs	r6, r3
 8001d62:	4645      	mov	r5, r8
 8001d64:	4335      	orrs	r5, r6
 8001d66:	002e      	movs	r6, r5
 8001d68:	4655      	mov	r5, sl
 8001d6a:	40a8      	lsls	r0, r5
 8001d6c:	40d9      	lsrs	r1, r3
 8001d6e:	1e45      	subs	r5, r0, #1
 8001d70:	41a8      	sbcs	r0, r5
 8001d72:	448c      	add	ip, r1
 8001d74:	4306      	orrs	r6, r0
 8001d76:	18b6      	adds	r6, r6, r2
 8001d78:	4296      	cmp	r6, r2
 8001d7a:	4192      	sbcs	r2, r2
 8001d7c:	4251      	negs	r1, r2
 8001d7e:	4461      	add	r1, ip
 8001d80:	003d      	movs	r5, r7
 8001d82:	e625      	b.n	80019d0 <__aeabi_dsub+0x18c>
 8001d84:	003d      	movs	r5, r7
 8001d86:	4661      	mov	r1, ip
 8001d88:	4691      	mov	r9, r2
 8001d8a:	e678      	b.n	8001a7e <__aeabi_dsub+0x23a>
 8001d8c:	000b      	movs	r3, r1
 8001d8e:	4303      	orrs	r3, r0
 8001d90:	2d00      	cmp	r5, #0
 8001d92:	d000      	beq.n	8001d96 <__aeabi_dsub+0x552>
 8001d94:	e655      	b.n	8001a42 <__aeabi_dsub+0x1fe>
 8001d96:	2b00      	cmp	r3, #0
 8001d98:	d0f5      	beq.n	8001d86 <__aeabi_dsub+0x542>
 8001d9a:	4663      	mov	r3, ip
 8001d9c:	4313      	orrs	r3, r2
 8001d9e:	d100      	bne.n	8001da2 <__aeabi_dsub+0x55e>
 8001da0:	e66d      	b.n	8001a7e <__aeabi_dsub+0x23a>
 8001da2:	1886      	adds	r6, r0, r2
 8001da4:	4286      	cmp	r6, r0
 8001da6:	4180      	sbcs	r0, r0
 8001da8:	4461      	add	r1, ip
 8001daa:	4240      	negs	r0, r0
 8001dac:	1809      	adds	r1, r1, r0
 8001dae:	2200      	movs	r2, #0
 8001db0:	020b      	lsls	r3, r1, #8
 8001db2:	d400      	bmi.n	8001db6 <__aeabi_dsub+0x572>
 8001db4:	e6d0      	b.n	8001b58 <__aeabi_dsub+0x314>
 8001db6:	4b46      	ldr	r3, [pc, #280]	; (8001ed0 <__aeabi_dsub+0x68c>)
 8001db8:	3501      	adds	r5, #1
 8001dba:	4019      	ands	r1, r3
 8001dbc:	e5b2      	b.n	8001924 <__aeabi_dsub+0xe0>
 8001dbe:	46b1      	mov	r9, r6
 8001dc0:	e65d      	b.n	8001a7e <__aeabi_dsub+0x23a>
 8001dc2:	0033      	movs	r3, r6
 8001dc4:	4667      	mov	r7, ip
 8001dc6:	3b20      	subs	r3, #32
 8001dc8:	40df      	lsrs	r7, r3
 8001dca:	003b      	movs	r3, r7
 8001dcc:	2e20      	cmp	r6, #32
 8001dce:	d005      	beq.n	8001ddc <__aeabi_dsub+0x598>
 8001dd0:	2740      	movs	r7, #64	; 0x40
 8001dd2:	1bbf      	subs	r7, r7, r6
 8001dd4:	4666      	mov	r6, ip
 8001dd6:	40be      	lsls	r6, r7
 8001dd8:	4332      	orrs	r2, r6
 8001dda:	4690      	mov	r8, r2
 8001ddc:	4646      	mov	r6, r8
 8001dde:	1e72      	subs	r2, r6, #1
 8001de0:	4196      	sbcs	r6, r2
 8001de2:	4333      	orrs	r3, r6
 8001de4:	e5ef      	b.n	80019c6 <__aeabi_dsub+0x182>
 8001de6:	4b39      	ldr	r3, [pc, #228]	; (8001ecc <__aeabi_dsub+0x688>)
 8001de8:	429f      	cmp	r7, r3
 8001dea:	d0cb      	beq.n	8001d84 <__aeabi_dsub+0x540>
 8001dec:	2580      	movs	r5, #128	; 0x80
 8001dee:	042d      	lsls	r5, r5, #16
 8001df0:	4273      	negs	r3, r6
 8001df2:	4329      	orrs	r1, r5
 8001df4:	e7a8      	b.n	8001d48 <__aeabi_dsub+0x504>
 8001df6:	4308      	orrs	r0, r1
 8001df8:	1e41      	subs	r1, r0, #1
 8001dfa:	4188      	sbcs	r0, r1
 8001dfc:	e6a2      	b.n	8001b44 <__aeabi_dsub+0x300>
 8001dfe:	2f00      	cmp	r7, #0
 8001e00:	d100      	bne.n	8001e04 <__aeabi_dsub+0x5c0>
 8001e02:	e63c      	b.n	8001a7e <__aeabi_dsub+0x23a>
 8001e04:	4663      	mov	r3, ip
 8001e06:	1a86      	subs	r6, r0, r2
 8001e08:	1acf      	subs	r7, r1, r3
 8001e0a:	42b0      	cmp	r0, r6
 8001e0c:	419b      	sbcs	r3, r3
 8001e0e:	425b      	negs	r3, r3
 8001e10:	1afb      	subs	r3, r7, r3
 8001e12:	4698      	mov	r8, r3
 8001e14:	021b      	lsls	r3, r3, #8
 8001e16:	d54e      	bpl.n	8001eb6 <__aeabi_dsub+0x672>
 8001e18:	1a16      	subs	r6, r2, r0
 8001e1a:	4663      	mov	r3, ip
 8001e1c:	42b2      	cmp	r2, r6
 8001e1e:	4192      	sbcs	r2, r2
 8001e20:	1a59      	subs	r1, r3, r1
 8001e22:	4252      	negs	r2, r2
 8001e24:	1a89      	subs	r1, r1, r2
 8001e26:	465c      	mov	r4, fp
 8001e28:	2200      	movs	r2, #0
 8001e2a:	e57b      	b.n	8001924 <__aeabi_dsub+0xe0>
 8001e2c:	4301      	orrs	r1, r0
 8001e2e:	000e      	movs	r6, r1
 8001e30:	1e71      	subs	r1, r6, #1
 8001e32:	418e      	sbcs	r6, r1
 8001e34:	e79f      	b.n	8001d76 <__aeabi_dsub+0x532>
 8001e36:	001d      	movs	r5, r3
 8001e38:	000e      	movs	r6, r1
 8001e3a:	3d20      	subs	r5, #32
 8001e3c:	40ee      	lsrs	r6, r5
 8001e3e:	46b0      	mov	r8, r6
 8001e40:	2b20      	cmp	r3, #32
 8001e42:	d004      	beq.n	8001e4e <__aeabi_dsub+0x60a>
 8001e44:	2540      	movs	r5, #64	; 0x40
 8001e46:	1aeb      	subs	r3, r5, r3
 8001e48:	4099      	lsls	r1, r3
 8001e4a:	4308      	orrs	r0, r1
 8001e4c:	4681      	mov	r9, r0
 8001e4e:	4648      	mov	r0, r9
 8001e50:	4643      	mov	r3, r8
 8001e52:	1e41      	subs	r1, r0, #1
 8001e54:	4188      	sbcs	r0, r1
 8001e56:	4318      	orrs	r0, r3
 8001e58:	e674      	b.n	8001b44 <__aeabi_dsub+0x300>
 8001e5a:	2200      	movs	r2, #0
 8001e5c:	2400      	movs	r4, #0
 8001e5e:	e617      	b.n	8001a90 <__aeabi_dsub+0x24c>
 8001e60:	1a16      	subs	r6, r2, r0
 8001e62:	4663      	mov	r3, ip
 8001e64:	42b2      	cmp	r2, r6
 8001e66:	4192      	sbcs	r2, r2
 8001e68:	1a59      	subs	r1, r3, r1
 8001e6a:	4252      	negs	r2, r2
 8001e6c:	1a89      	subs	r1, r1, r2
 8001e6e:	003d      	movs	r5, r7
 8001e70:	e525      	b.n	80018be <__aeabi_dsub+0x7a>
 8001e72:	4661      	mov	r1, ip
 8001e74:	4691      	mov	r9, r2
 8001e76:	4d15      	ldr	r5, [pc, #84]	; (8001ecc <__aeabi_dsub+0x688>)
 8001e78:	e601      	b.n	8001a7e <__aeabi_dsub+0x23a>
 8001e7a:	2280      	movs	r2, #128	; 0x80
 8001e7c:	2400      	movs	r4, #0
 8001e7e:	0312      	lsls	r2, r2, #12
 8001e80:	e679      	b.n	8001b76 <__aeabi_dsub+0x332>
 8001e82:	001d      	movs	r5, r3
 8001e84:	000e      	movs	r6, r1
 8001e86:	3d20      	subs	r5, #32
 8001e88:	40ee      	lsrs	r6, r5
 8001e8a:	46b0      	mov	r8, r6
 8001e8c:	2b20      	cmp	r3, #32
 8001e8e:	d004      	beq.n	8001e9a <__aeabi_dsub+0x656>
 8001e90:	2540      	movs	r5, #64	; 0x40
 8001e92:	1aeb      	subs	r3, r5, r3
 8001e94:	4099      	lsls	r1, r3
 8001e96:	4308      	orrs	r0, r1
 8001e98:	4681      	mov	r9, r0
 8001e9a:	464e      	mov	r6, r9
 8001e9c:	4643      	mov	r3, r8
 8001e9e:	1e71      	subs	r1, r6, #1
 8001ea0:	418e      	sbcs	r6, r1
 8001ea2:	431e      	orrs	r6, r3
 8001ea4:	e767      	b.n	8001d76 <__aeabi_dsub+0x532>
 8001ea6:	1886      	adds	r6, r0, r2
 8001ea8:	4296      	cmp	r6, r2
 8001eaa:	419b      	sbcs	r3, r3
 8001eac:	4461      	add	r1, ip
 8001eae:	425b      	negs	r3, r3
 8001eb0:	18c9      	adds	r1, r1, r3
 8001eb2:	003d      	movs	r5, r7
 8001eb4:	e58c      	b.n	80019d0 <__aeabi_dsub+0x18c>
 8001eb6:	4647      	mov	r7, r8
 8001eb8:	4337      	orrs	r7, r6
 8001eba:	d0ce      	beq.n	8001e5a <__aeabi_dsub+0x616>
 8001ebc:	2207      	movs	r2, #7
 8001ebe:	4641      	mov	r1, r8
 8001ec0:	4032      	ands	r2, r6
 8001ec2:	e649      	b.n	8001b58 <__aeabi_dsub+0x314>
 8001ec4:	2700      	movs	r7, #0
 8001ec6:	003a      	movs	r2, r7
 8001ec8:	e5e6      	b.n	8001a98 <__aeabi_dsub+0x254>
 8001eca:	46c0      	nop			; (mov r8, r8)
 8001ecc:	000007ff 	.word	0x000007ff
 8001ed0:	ff7fffff 	.word	0xff7fffff

08001ed4 <__aeabi_dcmpun>:
 8001ed4:	b570      	push	{r4, r5, r6, lr}
 8001ed6:	4e0c      	ldr	r6, [pc, #48]	; (8001f08 <__aeabi_dcmpun+0x34>)
 8001ed8:	030d      	lsls	r5, r1, #12
 8001eda:	031c      	lsls	r4, r3, #12
 8001edc:	0049      	lsls	r1, r1, #1
 8001ede:	005b      	lsls	r3, r3, #1
 8001ee0:	0b2d      	lsrs	r5, r5, #12
 8001ee2:	0d49      	lsrs	r1, r1, #21
 8001ee4:	0b24      	lsrs	r4, r4, #12
 8001ee6:	0d5b      	lsrs	r3, r3, #21
 8001ee8:	42b1      	cmp	r1, r6
 8001eea:	d008      	beq.n	8001efe <__aeabi_dcmpun+0x2a>
 8001eec:	4906      	ldr	r1, [pc, #24]	; (8001f08 <__aeabi_dcmpun+0x34>)
 8001eee:	2000      	movs	r0, #0
 8001ef0:	428b      	cmp	r3, r1
 8001ef2:	d103      	bne.n	8001efc <__aeabi_dcmpun+0x28>
 8001ef4:	4314      	orrs	r4, r2
 8001ef6:	0020      	movs	r0, r4
 8001ef8:	1e44      	subs	r4, r0, #1
 8001efa:	41a0      	sbcs	r0, r4
 8001efc:	bd70      	pop	{r4, r5, r6, pc}
 8001efe:	4305      	orrs	r5, r0
 8001f00:	2001      	movs	r0, #1
 8001f02:	2d00      	cmp	r5, #0
 8001f04:	d1fa      	bne.n	8001efc <__aeabi_dcmpun+0x28>
 8001f06:	e7f1      	b.n	8001eec <__aeabi_dcmpun+0x18>
 8001f08:	000007ff 	.word	0x000007ff

08001f0c <__aeabi_d2iz>:
 8001f0c:	b530      	push	{r4, r5, lr}
 8001f0e:	4d14      	ldr	r5, [pc, #80]	; (8001f60 <__aeabi_d2iz+0x54>)
 8001f10:	030a      	lsls	r2, r1, #12
 8001f12:	004b      	lsls	r3, r1, #1
 8001f14:	0b12      	lsrs	r2, r2, #12
 8001f16:	0d5b      	lsrs	r3, r3, #21
 8001f18:	0fc9      	lsrs	r1, r1, #31
 8001f1a:	2400      	movs	r4, #0
 8001f1c:	42ab      	cmp	r3, r5
 8001f1e:	dd11      	ble.n	8001f44 <__aeabi_d2iz+0x38>
 8001f20:	4c10      	ldr	r4, [pc, #64]	; (8001f64 <__aeabi_d2iz+0x58>)
 8001f22:	42a3      	cmp	r3, r4
 8001f24:	dc10      	bgt.n	8001f48 <__aeabi_d2iz+0x3c>
 8001f26:	2480      	movs	r4, #128	; 0x80
 8001f28:	0364      	lsls	r4, r4, #13
 8001f2a:	4322      	orrs	r2, r4
 8001f2c:	4c0e      	ldr	r4, [pc, #56]	; (8001f68 <__aeabi_d2iz+0x5c>)
 8001f2e:	1ae4      	subs	r4, r4, r3
 8001f30:	2c1f      	cmp	r4, #31
 8001f32:	dd0c      	ble.n	8001f4e <__aeabi_d2iz+0x42>
 8001f34:	480d      	ldr	r0, [pc, #52]	; (8001f6c <__aeabi_d2iz+0x60>)
 8001f36:	1ac3      	subs	r3, r0, r3
 8001f38:	40da      	lsrs	r2, r3
 8001f3a:	0013      	movs	r3, r2
 8001f3c:	425c      	negs	r4, r3
 8001f3e:	2900      	cmp	r1, #0
 8001f40:	d100      	bne.n	8001f44 <__aeabi_d2iz+0x38>
 8001f42:	001c      	movs	r4, r3
 8001f44:	0020      	movs	r0, r4
 8001f46:	bd30      	pop	{r4, r5, pc}
 8001f48:	4b09      	ldr	r3, [pc, #36]	; (8001f70 <__aeabi_d2iz+0x64>)
 8001f4a:	18cc      	adds	r4, r1, r3
 8001f4c:	e7fa      	b.n	8001f44 <__aeabi_d2iz+0x38>
 8001f4e:	4d09      	ldr	r5, [pc, #36]	; (8001f74 <__aeabi_d2iz+0x68>)
 8001f50:	40e0      	lsrs	r0, r4
 8001f52:	46ac      	mov	ip, r5
 8001f54:	4463      	add	r3, ip
 8001f56:	409a      	lsls	r2, r3
 8001f58:	0013      	movs	r3, r2
 8001f5a:	4303      	orrs	r3, r0
 8001f5c:	e7ee      	b.n	8001f3c <__aeabi_d2iz+0x30>
 8001f5e:	46c0      	nop			; (mov r8, r8)
 8001f60:	000003fe 	.word	0x000003fe
 8001f64:	0000041d 	.word	0x0000041d
 8001f68:	00000433 	.word	0x00000433
 8001f6c:	00000413 	.word	0x00000413
 8001f70:	7fffffff 	.word	0x7fffffff
 8001f74:	fffffbed 	.word	0xfffffbed

08001f78 <__aeabi_i2d>:
 8001f78:	b570      	push	{r4, r5, r6, lr}
 8001f7a:	2800      	cmp	r0, #0
 8001f7c:	d02d      	beq.n	8001fda <__aeabi_i2d+0x62>
 8001f7e:	17c3      	asrs	r3, r0, #31
 8001f80:	18c5      	adds	r5, r0, r3
 8001f82:	405d      	eors	r5, r3
 8001f84:	0fc4      	lsrs	r4, r0, #31
 8001f86:	0028      	movs	r0, r5
 8001f88:	f000 f938 	bl	80021fc <__clzsi2>
 8001f8c:	4b15      	ldr	r3, [pc, #84]	; (8001fe4 <__aeabi_i2d+0x6c>)
 8001f8e:	1a1b      	subs	r3, r3, r0
 8001f90:	055b      	lsls	r3, r3, #21
 8001f92:	0d5b      	lsrs	r3, r3, #21
 8001f94:	280a      	cmp	r0, #10
 8001f96:	dd15      	ble.n	8001fc4 <__aeabi_i2d+0x4c>
 8001f98:	380b      	subs	r0, #11
 8001f9a:	4085      	lsls	r5, r0
 8001f9c:	2200      	movs	r2, #0
 8001f9e:	032d      	lsls	r5, r5, #12
 8001fa0:	0b2d      	lsrs	r5, r5, #12
 8001fa2:	2100      	movs	r1, #0
 8001fa4:	0010      	movs	r0, r2
 8001fa6:	032d      	lsls	r5, r5, #12
 8001fa8:	0d0a      	lsrs	r2, r1, #20
 8001faa:	0b2d      	lsrs	r5, r5, #12
 8001fac:	0512      	lsls	r2, r2, #20
 8001fae:	432a      	orrs	r2, r5
 8001fb0:	4d0d      	ldr	r5, [pc, #52]	; (8001fe8 <__aeabi_i2d+0x70>)
 8001fb2:	051b      	lsls	r3, r3, #20
 8001fb4:	402a      	ands	r2, r5
 8001fb6:	4313      	orrs	r3, r2
 8001fb8:	005b      	lsls	r3, r3, #1
 8001fba:	07e4      	lsls	r4, r4, #31
 8001fbc:	085b      	lsrs	r3, r3, #1
 8001fbe:	4323      	orrs	r3, r4
 8001fc0:	0019      	movs	r1, r3
 8001fc2:	bd70      	pop	{r4, r5, r6, pc}
 8001fc4:	0002      	movs	r2, r0
 8001fc6:	0029      	movs	r1, r5
 8001fc8:	3215      	adds	r2, #21
 8001fca:	4091      	lsls	r1, r2
 8001fcc:	000a      	movs	r2, r1
 8001fce:	210b      	movs	r1, #11
 8001fd0:	1a08      	subs	r0, r1, r0
 8001fd2:	40c5      	lsrs	r5, r0
 8001fd4:	032d      	lsls	r5, r5, #12
 8001fd6:	0b2d      	lsrs	r5, r5, #12
 8001fd8:	e7e3      	b.n	8001fa2 <__aeabi_i2d+0x2a>
 8001fda:	2400      	movs	r4, #0
 8001fdc:	2300      	movs	r3, #0
 8001fde:	2500      	movs	r5, #0
 8001fe0:	2200      	movs	r2, #0
 8001fe2:	e7de      	b.n	8001fa2 <__aeabi_i2d+0x2a>
 8001fe4:	0000041e 	.word	0x0000041e
 8001fe8:	800fffff 	.word	0x800fffff

08001fec <__aeabi_ui2d>:
 8001fec:	b510      	push	{r4, lr}
 8001fee:	1e04      	subs	r4, r0, #0
 8001ff0:	d025      	beq.n	800203e <__aeabi_ui2d+0x52>
 8001ff2:	f000 f903 	bl	80021fc <__clzsi2>
 8001ff6:	4b14      	ldr	r3, [pc, #80]	; (8002048 <__aeabi_ui2d+0x5c>)
 8001ff8:	1a1b      	subs	r3, r3, r0
 8001ffa:	055b      	lsls	r3, r3, #21
 8001ffc:	0d5b      	lsrs	r3, r3, #21
 8001ffe:	280a      	cmp	r0, #10
 8002000:	dd12      	ble.n	8002028 <__aeabi_ui2d+0x3c>
 8002002:	380b      	subs	r0, #11
 8002004:	4084      	lsls	r4, r0
 8002006:	2200      	movs	r2, #0
 8002008:	0324      	lsls	r4, r4, #12
 800200a:	0b24      	lsrs	r4, r4, #12
 800200c:	2100      	movs	r1, #0
 800200e:	0010      	movs	r0, r2
 8002010:	0324      	lsls	r4, r4, #12
 8002012:	0d0a      	lsrs	r2, r1, #20
 8002014:	0b24      	lsrs	r4, r4, #12
 8002016:	0512      	lsls	r2, r2, #20
 8002018:	4322      	orrs	r2, r4
 800201a:	4c0c      	ldr	r4, [pc, #48]	; (800204c <__aeabi_ui2d+0x60>)
 800201c:	051b      	lsls	r3, r3, #20
 800201e:	4022      	ands	r2, r4
 8002020:	4313      	orrs	r3, r2
 8002022:	005b      	lsls	r3, r3, #1
 8002024:	0859      	lsrs	r1, r3, #1
 8002026:	bd10      	pop	{r4, pc}
 8002028:	0002      	movs	r2, r0
 800202a:	0021      	movs	r1, r4
 800202c:	3215      	adds	r2, #21
 800202e:	4091      	lsls	r1, r2
 8002030:	000a      	movs	r2, r1
 8002032:	210b      	movs	r1, #11
 8002034:	1a08      	subs	r0, r1, r0
 8002036:	40c4      	lsrs	r4, r0
 8002038:	0324      	lsls	r4, r4, #12
 800203a:	0b24      	lsrs	r4, r4, #12
 800203c:	e7e6      	b.n	800200c <__aeabi_ui2d+0x20>
 800203e:	2300      	movs	r3, #0
 8002040:	2400      	movs	r4, #0
 8002042:	2200      	movs	r2, #0
 8002044:	e7e2      	b.n	800200c <__aeabi_ui2d+0x20>
 8002046:	46c0      	nop			; (mov r8, r8)
 8002048:	0000041e 	.word	0x0000041e
 800204c:	800fffff 	.word	0x800fffff

08002050 <__aeabi_f2d>:
 8002050:	0041      	lsls	r1, r0, #1
 8002052:	0e09      	lsrs	r1, r1, #24
 8002054:	1c4b      	adds	r3, r1, #1
 8002056:	b570      	push	{r4, r5, r6, lr}
 8002058:	b2db      	uxtb	r3, r3
 800205a:	0246      	lsls	r6, r0, #9
 800205c:	0a75      	lsrs	r5, r6, #9
 800205e:	0fc4      	lsrs	r4, r0, #31
 8002060:	2b01      	cmp	r3, #1
 8002062:	dd14      	ble.n	800208e <__aeabi_f2d+0x3e>
 8002064:	23e0      	movs	r3, #224	; 0xe0
 8002066:	009b      	lsls	r3, r3, #2
 8002068:	076d      	lsls	r5, r5, #29
 800206a:	0b36      	lsrs	r6, r6, #12
 800206c:	18cb      	adds	r3, r1, r3
 800206e:	2100      	movs	r1, #0
 8002070:	0d0a      	lsrs	r2, r1, #20
 8002072:	0028      	movs	r0, r5
 8002074:	0512      	lsls	r2, r2, #20
 8002076:	4d1c      	ldr	r5, [pc, #112]	; (80020e8 <__aeabi_f2d+0x98>)
 8002078:	4332      	orrs	r2, r6
 800207a:	055b      	lsls	r3, r3, #21
 800207c:	402a      	ands	r2, r5
 800207e:	085b      	lsrs	r3, r3, #1
 8002080:	4313      	orrs	r3, r2
 8002082:	005b      	lsls	r3, r3, #1
 8002084:	07e4      	lsls	r4, r4, #31
 8002086:	085b      	lsrs	r3, r3, #1
 8002088:	4323      	orrs	r3, r4
 800208a:	0019      	movs	r1, r3
 800208c:	bd70      	pop	{r4, r5, r6, pc}
 800208e:	2900      	cmp	r1, #0
 8002090:	d114      	bne.n	80020bc <__aeabi_f2d+0x6c>
 8002092:	2d00      	cmp	r5, #0
 8002094:	d01e      	beq.n	80020d4 <__aeabi_f2d+0x84>
 8002096:	0028      	movs	r0, r5
 8002098:	f000 f8b0 	bl	80021fc <__clzsi2>
 800209c:	280a      	cmp	r0, #10
 800209e:	dc1c      	bgt.n	80020da <__aeabi_f2d+0x8a>
 80020a0:	230b      	movs	r3, #11
 80020a2:	002a      	movs	r2, r5
 80020a4:	1a1b      	subs	r3, r3, r0
 80020a6:	40da      	lsrs	r2, r3
 80020a8:	0003      	movs	r3, r0
 80020aa:	3315      	adds	r3, #21
 80020ac:	409d      	lsls	r5, r3
 80020ae:	4b0f      	ldr	r3, [pc, #60]	; (80020ec <__aeabi_f2d+0x9c>)
 80020b0:	0312      	lsls	r2, r2, #12
 80020b2:	1a1b      	subs	r3, r3, r0
 80020b4:	055b      	lsls	r3, r3, #21
 80020b6:	0b16      	lsrs	r6, r2, #12
 80020b8:	0d5b      	lsrs	r3, r3, #21
 80020ba:	e7d8      	b.n	800206e <__aeabi_f2d+0x1e>
 80020bc:	2d00      	cmp	r5, #0
 80020be:	d006      	beq.n	80020ce <__aeabi_f2d+0x7e>
 80020c0:	0b32      	lsrs	r2, r6, #12
 80020c2:	2680      	movs	r6, #128	; 0x80
 80020c4:	0336      	lsls	r6, r6, #12
 80020c6:	076d      	lsls	r5, r5, #29
 80020c8:	4316      	orrs	r6, r2
 80020ca:	4b09      	ldr	r3, [pc, #36]	; (80020f0 <__aeabi_f2d+0xa0>)
 80020cc:	e7cf      	b.n	800206e <__aeabi_f2d+0x1e>
 80020ce:	4b08      	ldr	r3, [pc, #32]	; (80020f0 <__aeabi_f2d+0xa0>)
 80020d0:	2600      	movs	r6, #0
 80020d2:	e7cc      	b.n	800206e <__aeabi_f2d+0x1e>
 80020d4:	2300      	movs	r3, #0
 80020d6:	2600      	movs	r6, #0
 80020d8:	e7c9      	b.n	800206e <__aeabi_f2d+0x1e>
 80020da:	0003      	movs	r3, r0
 80020dc:	002a      	movs	r2, r5
 80020de:	3b0b      	subs	r3, #11
 80020e0:	409a      	lsls	r2, r3
 80020e2:	2500      	movs	r5, #0
 80020e4:	e7e3      	b.n	80020ae <__aeabi_f2d+0x5e>
 80020e6:	46c0      	nop			; (mov r8, r8)
 80020e8:	800fffff 	.word	0x800fffff
 80020ec:	00000389 	.word	0x00000389
 80020f0:	000007ff 	.word	0x000007ff

080020f4 <__aeabi_d2f>:
 80020f4:	b5f0      	push	{r4, r5, r6, r7, lr}
 80020f6:	004c      	lsls	r4, r1, #1
 80020f8:	0d64      	lsrs	r4, r4, #21
 80020fa:	030b      	lsls	r3, r1, #12
 80020fc:	1c62      	adds	r2, r4, #1
 80020fe:	0a5b      	lsrs	r3, r3, #9
 8002100:	0f46      	lsrs	r6, r0, #29
 8002102:	0552      	lsls	r2, r2, #21
 8002104:	0fc9      	lsrs	r1, r1, #31
 8002106:	431e      	orrs	r6, r3
 8002108:	00c5      	lsls	r5, r0, #3
 800210a:	0d52      	lsrs	r2, r2, #21
 800210c:	2a01      	cmp	r2, #1
 800210e:	dd29      	ble.n	8002164 <__aeabi_d2f+0x70>
 8002110:	4b37      	ldr	r3, [pc, #220]	; (80021f0 <__aeabi_d2f+0xfc>)
 8002112:	18e7      	adds	r7, r4, r3
 8002114:	2ffe      	cmp	r7, #254	; 0xfe
 8002116:	dc1c      	bgt.n	8002152 <__aeabi_d2f+0x5e>
 8002118:	2f00      	cmp	r7, #0
 800211a:	dd3b      	ble.n	8002194 <__aeabi_d2f+0xa0>
 800211c:	0180      	lsls	r0, r0, #6
 800211e:	1e43      	subs	r3, r0, #1
 8002120:	4198      	sbcs	r0, r3
 8002122:	2207      	movs	r2, #7
 8002124:	00f3      	lsls	r3, r6, #3
 8002126:	0f6d      	lsrs	r5, r5, #29
 8002128:	4303      	orrs	r3, r0
 800212a:	432b      	orrs	r3, r5
 800212c:	401a      	ands	r2, r3
 800212e:	2a00      	cmp	r2, #0
 8002130:	d004      	beq.n	800213c <__aeabi_d2f+0x48>
 8002132:	220f      	movs	r2, #15
 8002134:	401a      	ands	r2, r3
 8002136:	2a04      	cmp	r2, #4
 8002138:	d000      	beq.n	800213c <__aeabi_d2f+0x48>
 800213a:	3304      	adds	r3, #4
 800213c:	2280      	movs	r2, #128	; 0x80
 800213e:	04d2      	lsls	r2, r2, #19
 8002140:	401a      	ands	r2, r3
 8002142:	d024      	beq.n	800218e <__aeabi_d2f+0x9a>
 8002144:	3701      	adds	r7, #1
 8002146:	b2fa      	uxtb	r2, r7
 8002148:	2fff      	cmp	r7, #255	; 0xff
 800214a:	d002      	beq.n	8002152 <__aeabi_d2f+0x5e>
 800214c:	019b      	lsls	r3, r3, #6
 800214e:	0a58      	lsrs	r0, r3, #9
 8002150:	e001      	b.n	8002156 <__aeabi_d2f+0x62>
 8002152:	22ff      	movs	r2, #255	; 0xff
 8002154:	2000      	movs	r0, #0
 8002156:	0240      	lsls	r0, r0, #9
 8002158:	05d2      	lsls	r2, r2, #23
 800215a:	0a40      	lsrs	r0, r0, #9
 800215c:	07c9      	lsls	r1, r1, #31
 800215e:	4310      	orrs	r0, r2
 8002160:	4308      	orrs	r0, r1
 8002162:	bdf0      	pop	{r4, r5, r6, r7, pc}
 8002164:	4335      	orrs	r5, r6
 8002166:	2c00      	cmp	r4, #0
 8002168:	d104      	bne.n	8002174 <__aeabi_d2f+0x80>
 800216a:	2d00      	cmp	r5, #0
 800216c:	d10a      	bne.n	8002184 <__aeabi_d2f+0x90>
 800216e:	2200      	movs	r2, #0
 8002170:	2000      	movs	r0, #0
 8002172:	e7f0      	b.n	8002156 <__aeabi_d2f+0x62>
 8002174:	2d00      	cmp	r5, #0
 8002176:	d0ec      	beq.n	8002152 <__aeabi_d2f+0x5e>
 8002178:	2080      	movs	r0, #128	; 0x80
 800217a:	03c0      	lsls	r0, r0, #15
 800217c:	4330      	orrs	r0, r6
 800217e:	22ff      	movs	r2, #255	; 0xff
 8002180:	e7e9      	b.n	8002156 <__aeabi_d2f+0x62>
 8002182:	2400      	movs	r4, #0
 8002184:	2300      	movs	r3, #0
 8002186:	025b      	lsls	r3, r3, #9
 8002188:	0a58      	lsrs	r0, r3, #9
 800218a:	b2e2      	uxtb	r2, r4
 800218c:	e7e3      	b.n	8002156 <__aeabi_d2f+0x62>
 800218e:	08db      	lsrs	r3, r3, #3
 8002190:	003c      	movs	r4, r7
 8002192:	e7f8      	b.n	8002186 <__aeabi_d2f+0x92>
 8002194:	003b      	movs	r3, r7
 8002196:	3317      	adds	r3, #23
 8002198:	dbf3      	blt.n	8002182 <__aeabi_d2f+0x8e>
 800219a:	2380      	movs	r3, #128	; 0x80
 800219c:	041b      	lsls	r3, r3, #16
 800219e:	4333      	orrs	r3, r6
 80021a0:	261e      	movs	r6, #30
 80021a2:	1bf6      	subs	r6, r6, r7
 80021a4:	2e1f      	cmp	r6, #31
 80021a6:	dd14      	ble.n	80021d2 <__aeabi_d2f+0xde>
 80021a8:	2202      	movs	r2, #2
 80021aa:	4252      	negs	r2, r2
 80021ac:	1bd7      	subs	r7, r2, r7
 80021ae:	001a      	movs	r2, r3
 80021b0:	40fa      	lsrs	r2, r7
 80021b2:	0017      	movs	r7, r2
 80021b4:	2e20      	cmp	r6, #32
 80021b6:	d004      	beq.n	80021c2 <__aeabi_d2f+0xce>
 80021b8:	4a0e      	ldr	r2, [pc, #56]	; (80021f4 <__aeabi_d2f+0x100>)
 80021ba:	4694      	mov	ip, r2
 80021bc:	4464      	add	r4, ip
 80021be:	40a3      	lsls	r3, r4
 80021c0:	431d      	orrs	r5, r3
 80021c2:	002b      	movs	r3, r5
 80021c4:	1e5d      	subs	r5, r3, #1
 80021c6:	41ab      	sbcs	r3, r5
 80021c8:	2207      	movs	r2, #7
 80021ca:	433b      	orrs	r3, r7
 80021cc:	401a      	ands	r2, r3
 80021ce:	2700      	movs	r7, #0
 80021d0:	e7ad      	b.n	800212e <__aeabi_d2f+0x3a>
 80021d2:	4a09      	ldr	r2, [pc, #36]	; (80021f8 <__aeabi_d2f+0x104>)
 80021d4:	0028      	movs	r0, r5
 80021d6:	18a2      	adds	r2, r4, r2
 80021d8:	4095      	lsls	r5, r2
 80021da:	4093      	lsls	r3, r2
 80021dc:	1e6c      	subs	r4, r5, #1
 80021de:	41a5      	sbcs	r5, r4
 80021e0:	40f0      	lsrs	r0, r6
 80021e2:	2207      	movs	r2, #7
 80021e4:	432b      	orrs	r3, r5
 80021e6:	4303      	orrs	r3, r0
 80021e8:	401a      	ands	r2, r3
 80021ea:	2700      	movs	r7, #0
 80021ec:	e79f      	b.n	800212e <__aeabi_d2f+0x3a>
 80021ee:	46c0      	nop			; (mov r8, r8)
 80021f0:	fffffc80 	.word	0xfffffc80
 80021f4:	fffffca2 	.word	0xfffffca2
 80021f8:	fffffc82 	.word	0xfffffc82

080021fc <__clzsi2>:
 80021fc:	211c      	movs	r1, #28
 80021fe:	2301      	movs	r3, #1
 8002200:	041b      	lsls	r3, r3, #16
 8002202:	4298      	cmp	r0, r3
 8002204:	d301      	bcc.n	800220a <__clzsi2+0xe>
 8002206:	0c00      	lsrs	r0, r0, #16
 8002208:	3910      	subs	r1, #16
 800220a:	0a1b      	lsrs	r3, r3, #8
 800220c:	4298      	cmp	r0, r3
 800220e:	d301      	bcc.n	8002214 <__clzsi2+0x18>
 8002210:	0a00      	lsrs	r0, r0, #8
 8002212:	3908      	subs	r1, #8
 8002214:	091b      	lsrs	r3, r3, #4
 8002216:	4298      	cmp	r0, r3
 8002218:	d301      	bcc.n	800221e <__clzsi2+0x22>
 800221a:	0900      	lsrs	r0, r0, #4
 800221c:	3904      	subs	r1, #4
 800221e:	a202      	add	r2, pc, #8	; (adr r2, 8002228 <__clzsi2+0x2c>)
 8002220:	5c10      	ldrb	r0, [r2, r0]
 8002222:	1840      	adds	r0, r0, r1
 8002224:	4770      	bx	lr
 8002226:	46c0      	nop			; (mov r8, r8)
 8002228:	02020304 	.word	0x02020304
 800222c:	01010101 	.word	0x01010101
	...

08002238 <MX_ADC_Init>:

ADC_HandleTypeDef hadc;

/* ADC init function */
void MX_ADC_Init(void)
{
 8002238:	b580      	push	{r7, lr}
 800223a:	b084      	sub	sp, #16
 800223c:	af00      	add	r7, sp, #0
  ADC_ChannelConfTypeDef sConfig = {0};
 800223e:	1d3b      	adds	r3, r7, #4
 8002240:	0018      	movs	r0, r3
 8002242:	230c      	movs	r3, #12
 8002244:	001a      	movs	r2, r3
 8002246:	2100      	movs	r1, #0
 8002248:	f003 fe76 	bl	8005f38 <memset>

  /** Configure the global features of the ADC (Clock, Resolution, Data Alignment and number of conversion)
  */
  hadc.Instance = ADC1;
 800224c:	4b26      	ldr	r3, [pc, #152]	; (80022e8 <MX_ADC_Init+0xb0>)
 800224e:	4a27      	ldr	r2, [pc, #156]	; (80022ec <MX_ADC_Init+0xb4>)
 8002250:	601a      	str	r2, [r3, #0]
  hadc.Init.ClockPrescaler = ADC_CLOCK_SYNC_PCLK_DIV4;
 8002252:	4b25      	ldr	r3, [pc, #148]	; (80022e8 <MX_ADC_Init+0xb0>)
 8002254:	2280      	movs	r2, #128	; 0x80
 8002256:	0612      	lsls	r2, r2, #24
 8002258:	605a      	str	r2, [r3, #4]
  hadc.Init.Resolution = ADC_RESOLUTION_12B;
 800225a:	4b23      	ldr	r3, [pc, #140]	; (80022e8 <MX_ADC_Init+0xb0>)
 800225c:	2200      	movs	r2, #0
 800225e:	609a      	str	r2, [r3, #8]
  hadc.Init.DataAlign = ADC_DATAALIGN_RIGHT;
 8002260:	4b21      	ldr	r3, [pc, #132]	; (80022e8 <MX_ADC_Init+0xb0>)
 8002262:	2200      	movs	r2, #0
 8002264:	60da      	str	r2, [r3, #12]
  hadc.Init.ScanConvMode = ADC_SCAN_DIRECTION_FORWARD;
 8002266:	4b20      	ldr	r3, [pc, #128]	; (80022e8 <MX_ADC_Init+0xb0>)
 8002268:	2201      	movs	r2, #1
 800226a:	611a      	str	r2, [r3, #16]
  hadc.Init.EOCSelection = ADC_EOC_SINGLE_CONV;
 800226c:	4b1e      	ldr	r3, [pc, #120]	; (80022e8 <MX_ADC_Init+0xb0>)
 800226e:	2204      	movs	r2, #4
 8002270:	615a      	str	r2, [r3, #20]
  hadc.Init.LowPowerAutoWait = DISABLE;
 8002272:	4b1d      	ldr	r3, [pc, #116]	; (80022e8 <MX_ADC_Init+0xb0>)
 8002274:	2200      	movs	r2, #0
 8002276:	761a      	strb	r2, [r3, #24]
  hadc.Init.LowPowerAutoPowerOff = DISABLE;
 8002278:	4b1b      	ldr	r3, [pc, #108]	; (80022e8 <MX_ADC_Init+0xb0>)
 800227a:	2200      	movs	r2, #0
 800227c:	765a      	strb	r2, [r3, #25]
  hadc.Init.ContinuousConvMode = ENABLE;
 800227e:	4b1a      	ldr	r3, [pc, #104]	; (80022e8 <MX_ADC_Init+0xb0>)
 8002280:	2201      	movs	r2, #1
 8002282:	769a      	strb	r2, [r3, #26]
  hadc.Init.DiscontinuousConvMode = DISABLE;
 8002284:	4b18      	ldr	r3, [pc, #96]	; (80022e8 <MX_ADC_Init+0xb0>)
 8002286:	2200      	movs	r2, #0
 8002288:	76da      	strb	r2, [r3, #27]
  hadc.Init.ExternalTrigConv = ADC_SOFTWARE_START;
 800228a:	4b17      	ldr	r3, [pc, #92]	; (80022e8 <MX_ADC_Init+0xb0>)
 800228c:	22c2      	movs	r2, #194	; 0xc2
 800228e:	32ff      	adds	r2, #255	; 0xff
 8002290:	61da      	str	r2, [r3, #28]
  hadc.Init.ExternalTrigConvEdge = ADC_EXTERNALTRIGCONVEDGE_NONE;
 8002292:	4b15      	ldr	r3, [pc, #84]	; (80022e8 <MX_ADC_Init+0xb0>)
 8002294:	2200      	movs	r2, #0
 8002296:	621a      	str	r2, [r3, #32]
  hadc.Init.DMAContinuousRequests = DISABLE;
 8002298:	4b13      	ldr	r3, [pc, #76]	; (80022e8 <MX_ADC_Init+0xb0>)
 800229a:	2224      	movs	r2, #36	; 0x24
 800229c:	2100      	movs	r1, #0
 800229e:	5499      	strb	r1, [r3, r2]
  hadc.Init.Overrun = ADC_OVR_DATA_PRESERVED;
 80022a0:	4b11      	ldr	r3, [pc, #68]	; (80022e8 <MX_ADC_Init+0xb0>)
 80022a2:	2201      	movs	r2, #1
 80022a4:	629a      	str	r2, [r3, #40]	; 0x28
  if (HAL_ADC_Init(&hadc) != HAL_OK)
 80022a6:	4b10      	ldr	r3, [pc, #64]	; (80022e8 <MX_ADC_Init+0xb0>)
 80022a8:	0018      	movs	r0, r3
 80022aa:	f000 fbeb 	bl	8002a84 <HAL_ADC_Init>
 80022ae:	1e03      	subs	r3, r0, #0
 80022b0:	d001      	beq.n	80022b6 <MX_ADC_Init+0x7e>
  {
    Error_Handler();
 80022b2:	f000 f980 	bl	80025b6 <Error_Handler>
  }
  /** Configure for the selected ADC regular channel to be converted.
  */
  sConfig.Channel = ADC_CHANNEL_0;
 80022b6:	1d3b      	adds	r3, r7, #4
 80022b8:	2200      	movs	r2, #0
 80022ba:	601a      	str	r2, [r3, #0]
  sConfig.Rank = ADC_RANK_CHANNEL_NUMBER;
 80022bc:	1d3b      	adds	r3, r7, #4
 80022be:	2280      	movs	r2, #128	; 0x80
 80022c0:	0152      	lsls	r2, r2, #5
 80022c2:	605a      	str	r2, [r3, #4]
  sConfig.SamplingTime = ADC_SAMPLETIME_1CYCLE_5;
 80022c4:	1d3b      	adds	r3, r7, #4
 80022c6:	2280      	movs	r2, #128	; 0x80
 80022c8:	0552      	lsls	r2, r2, #21
 80022ca:	609a      	str	r2, [r3, #8]
  if (HAL_ADC_ConfigChannel(&hadc, &sConfig) != HAL_OK)
 80022cc:	1d3a      	adds	r2, r7, #4
 80022ce:	4b06      	ldr	r3, [pc, #24]	; (80022e8 <MX_ADC_Init+0xb0>)
 80022d0:	0011      	movs	r1, r2
 80022d2:	0018      	movs	r0, r3
 80022d4:	f000 fe08 	bl	8002ee8 <HAL_ADC_ConfigChannel>
 80022d8:	1e03      	subs	r3, r0, #0
 80022da:	d001      	beq.n	80022e0 <MX_ADC_Init+0xa8>
  {
    Error_Handler();
 80022dc:	f000 f96b 	bl	80025b6 <Error_Handler>
  }

}
 80022e0:	46c0      	nop			; (mov r8, r8)
 80022e2:	46bd      	mov	sp, r7
 80022e4:	b004      	add	sp, #16
 80022e6:	bd80      	pop	{r7, pc}
 80022e8:	20000218 	.word	0x20000218
 80022ec:	40012400 	.word	0x40012400

080022f0 <HAL_ADC_MspInit>:

void HAL_ADC_MspInit(ADC_HandleTypeDef* adcHandle)
{
 80022f0:	b580      	push	{r7, lr}
 80022f2:	b08a      	sub	sp, #40	; 0x28
 80022f4:	af00      	add	r7, sp, #0
 80022f6:	6078      	str	r0, [r7, #4]

  GPIO_InitTypeDef GPIO_InitStruct = {0};
 80022f8:	2314      	movs	r3, #20
 80022fa:	18fb      	adds	r3, r7, r3
 80022fc:	0018      	movs	r0, r3
 80022fe:	2314      	movs	r3, #20
 8002300:	001a      	movs	r2, r3
 8002302:	2100      	movs	r1, #0
 8002304:	f003 fe18 	bl	8005f38 <memset>
  if(adcHandle->Instance==ADC1)
 8002308:	687b      	ldr	r3, [r7, #4]
 800230a:	681b      	ldr	r3, [r3, #0]
 800230c:	4a19      	ldr	r2, [pc, #100]	; (8002374 <HAL_ADC_MspInit+0x84>)
 800230e:	4293      	cmp	r3, r2
 8002310:	d12c      	bne.n	800236c <HAL_ADC_MspInit+0x7c>
  {
  /* USER CODE BEGIN ADC1_MspInit 0 */

  /* USER CODE END ADC1_MspInit 0 */
    /* ADC1 clock enable */
    __HAL_RCC_ADC1_CLK_ENABLE();
 8002312:	4b19      	ldr	r3, [pc, #100]	; (8002378 <HAL_ADC_MspInit+0x88>)
 8002314:	699a      	ldr	r2, [r3, #24]
 8002316:	4b18      	ldr	r3, [pc, #96]	; (8002378 <HAL_ADC_MspInit+0x88>)
 8002318:	2180      	movs	r1, #128	; 0x80
 800231a:	0089      	lsls	r1, r1, #2
 800231c:	430a      	orrs	r2, r1
 800231e:	619a      	str	r2, [r3, #24]
 8002320:	4b15      	ldr	r3, [pc, #84]	; (8002378 <HAL_ADC_MspInit+0x88>)
 8002322:	699a      	ldr	r2, [r3, #24]
 8002324:	2380      	movs	r3, #128	; 0x80
 8002326:	009b      	lsls	r3, r3, #2
 8002328:	4013      	ands	r3, r2
 800232a:	613b      	str	r3, [r7, #16]
 800232c:	693b      	ldr	r3, [r7, #16]

    __HAL_RCC_GPIOA_CLK_ENABLE();
 800232e:	4b12      	ldr	r3, [pc, #72]	; (8002378 <HAL_ADC_MspInit+0x88>)
 8002330:	695a      	ldr	r2, [r3, #20]
 8002332:	4b11      	ldr	r3, [pc, #68]	; (8002378 <HAL_ADC_MspInit+0x88>)
 8002334:	2180      	movs	r1, #128	; 0x80
 8002336:	0289      	lsls	r1, r1, #10
 8002338:	430a      	orrs	r2, r1
 800233a:	615a      	str	r2, [r3, #20]
 800233c:	4b0e      	ldr	r3, [pc, #56]	; (8002378 <HAL_ADC_MspInit+0x88>)
 800233e:	695a      	ldr	r2, [r3, #20]
 8002340:	2380      	movs	r3, #128	; 0x80
 8002342:	029b      	lsls	r3, r3, #10
 8002344:	4013      	ands	r3, r2
 8002346:	60fb      	str	r3, [r7, #12]
 8002348:	68fb      	ldr	r3, [r7, #12]
    /**ADC GPIO Configuration
    PA0     ------> ADC_IN0
    */
    GPIO_InitStruct.Pin = GPIO_PIN_0;
 800234a:	2114      	movs	r1, #20
 800234c:	187b      	adds	r3, r7, r1
 800234e:	2201      	movs	r2, #1
 8002350:	601a      	str	r2, [r3, #0]
    GPIO_InitStruct.Mode = GPIO_MODE_ANALOG;
 8002352:	187b      	adds	r3, r7, r1
 8002354:	2203      	movs	r2, #3
 8002356:	605a      	str	r2, [r3, #4]
    GPIO_InitStruct.Pull = GPIO_NOPULL;
 8002358:	187b      	adds	r3, r7, r1
 800235a:	2200      	movs	r2, #0
 800235c:	609a      	str	r2, [r3, #8]
    HAL_GPIO_Init(GPIOA, &GPIO_InitStruct);
 800235e:	187a      	adds	r2, r7, r1
 8002360:	2390      	movs	r3, #144	; 0x90
 8002362:	05db      	lsls	r3, r3, #23
 8002364:	0011      	movs	r1, r2
 8002366:	0018      	movs	r0, r3
 8002368:	f001 f8c4 	bl	80034f4 <HAL_GPIO_Init>

  /* USER CODE BEGIN ADC1_MspInit 1 */

  /* USER CODE END ADC1_MspInit 1 */
  }
}
 800236c:	46c0      	nop			; (mov r8, r8)
 800236e:	46bd      	mov	sp, r7
 8002370:	b00a      	add	sp, #40	; 0x28
 8002372:	bd80      	pop	{r7, pc}
 8002374:	40012400 	.word	0x40012400
 8002378:	40021000 	.word	0x40021000

0800237c <MX_GPIO_Init>:
        * Output
        * EVENT_OUT
        * EXTI
*/
void MX_GPIO_Init(void)
{
 800237c:	b590      	push	{r4, r7, lr}
 800237e:	b089      	sub	sp, #36	; 0x24
 8002380:	af00      	add	r7, sp, #0

  GPIO_InitTypeDef GPIO_InitStruct = {0};
 8002382:	240c      	movs	r4, #12
 8002384:	193b      	adds	r3, r7, r4
 8002386:	0018      	movs	r0, r3
 8002388:	2314      	movs	r3, #20
 800238a:	001a      	movs	r2, r3
 800238c:	2100      	movs	r1, #0
 800238e:	f003 fdd3 	bl	8005f38 <memset>

  /* GPIO Ports Clock Enable */
  __HAL_RCC_GPIOA_CLK_ENABLE();
 8002392:	4b47      	ldr	r3, [pc, #284]	; (80024b0 <MX_GPIO_Init+0x134>)
 8002394:	695a      	ldr	r2, [r3, #20]
 8002396:	4b46      	ldr	r3, [pc, #280]	; (80024b0 <MX_GPIO_Init+0x134>)
 8002398:	2180      	movs	r1, #128	; 0x80
 800239a:	0289      	lsls	r1, r1, #10
 800239c:	430a      	orrs	r2, r1
 800239e:	615a      	str	r2, [r3, #20]
 80023a0:	4b43      	ldr	r3, [pc, #268]	; (80024b0 <MX_GPIO_Init+0x134>)
 80023a2:	695a      	ldr	r2, [r3, #20]
 80023a4:	2380      	movs	r3, #128	; 0x80
 80023a6:	029b      	lsls	r3, r3, #10
 80023a8:	4013      	ands	r3, r2
 80023aa:	60bb      	str	r3, [r7, #8]
 80023ac:	68bb      	ldr	r3, [r7, #8]
  __HAL_RCC_GPIOC_CLK_ENABLE();
 80023ae:	4b40      	ldr	r3, [pc, #256]	; (80024b0 <MX_GPIO_Init+0x134>)
 80023b0:	695a      	ldr	r2, [r3, #20]
 80023b2:	4b3f      	ldr	r3, [pc, #252]	; (80024b0 <MX_GPIO_Init+0x134>)
 80023b4:	2180      	movs	r1, #128	; 0x80
 80023b6:	0309      	lsls	r1, r1, #12
 80023b8:	430a      	orrs	r2, r1
 80023ba:	615a      	str	r2, [r3, #20]
 80023bc:	4b3c      	ldr	r3, [pc, #240]	; (80024b0 <MX_GPIO_Init+0x134>)
 80023be:	695a      	ldr	r2, [r3, #20]
 80023c0:	2380      	movs	r3, #128	; 0x80
 80023c2:	031b      	lsls	r3, r3, #12
 80023c4:	4013      	ands	r3, r2
 80023c6:	607b      	str	r3, [r7, #4]
 80023c8:	687b      	ldr	r3, [r7, #4]
  __HAL_RCC_GPIOB_CLK_ENABLE();
 80023ca:	4b39      	ldr	r3, [pc, #228]	; (80024b0 <MX_GPIO_Init+0x134>)
 80023cc:	695a      	ldr	r2, [r3, #20]
 80023ce:	4b38      	ldr	r3, [pc, #224]	; (80024b0 <MX_GPIO_Init+0x134>)
 80023d0:	2180      	movs	r1, #128	; 0x80
 80023d2:	02c9      	lsls	r1, r1, #11
 80023d4:	430a      	orrs	r2, r1
 80023d6:	615a      	str	r2, [r3, #20]
 80023d8:	4b35      	ldr	r3, [pc, #212]	; (80024b0 <MX_GPIO_Init+0x134>)
 80023da:	695a      	ldr	r2, [r3, #20]
 80023dc:	2380      	movs	r3, #128	; 0x80
 80023de:	02db      	lsls	r3, r3, #11
 80023e0:	4013      	ands	r3, r2
 80023e2:	603b      	str	r3, [r7, #0]
 80023e4:	683b      	ldr	r3, [r7, #0]

  /*Configure GPIO pin Output Level */
  HAL_GPIO_WritePin(GPIOC, CS_Pin|RST_Pin, GPIO_PIN_RESET);
 80023e6:	4b33      	ldr	r3, [pc, #204]	; (80024b4 <MX_GPIO_Init+0x138>)
 80023e8:	2200      	movs	r2, #0
 80023ea:	2130      	movs	r1, #48	; 0x30
 80023ec:	0018      	movs	r0, r3
 80023ee:	f001 fa16 	bl	800381e <HAL_GPIO_WritePin>

  /*Configure GPIO pin Output Level */
  HAL_GPIO_WritePin(GPIOB, DC_Pin|TS_CS_Pin|PSU_SW_ON_Pin, GPIO_PIN_RESET);
 80023f2:	4931      	ldr	r1, [pc, #196]	; (80024b8 <MX_GPIO_Init+0x13c>)
 80023f4:	4b31      	ldr	r3, [pc, #196]	; (80024bc <MX_GPIO_Init+0x140>)
 80023f6:	2200      	movs	r2, #0
 80023f8:	0018      	movs	r0, r3
 80023fa:	f001 fa10 	bl	800381e <HAL_GPIO_WritePin>

  /*Configure GPIO pins : PCPin PCPin */
  GPIO_InitStruct.Pin = CS_Pin|RST_Pin;
 80023fe:	0021      	movs	r1, r4
 8002400:	187b      	adds	r3, r7, r1
 8002402:	2230      	movs	r2, #48	; 0x30
 8002404:	601a      	str	r2, [r3, #0]
  GPIO_InitStruct.Mode = GPIO_MODE_OUTPUT_PP;
 8002406:	187b      	adds	r3, r7, r1
 8002408:	2201      	movs	r2, #1
 800240a:	605a      	str	r2, [r3, #4]
  GPIO_InitStruct.Pull = GPIO_NOPULL;
 800240c:	187b      	adds	r3, r7, r1
 800240e:	2200      	movs	r2, #0
 8002410:	609a      	str	r2, [r3, #8]
  GPIO_InitStruct.Speed = GPIO_SPEED_FREQ_HIGH;
 8002412:	187b      	adds	r3, r7, r1
 8002414:	2203      	movs	r2, #3
 8002416:	60da      	str	r2, [r3, #12]
  HAL_GPIO_Init(GPIOC, &GPIO_InitStruct);
 8002418:	000c      	movs	r4, r1
 800241a:	187b      	adds	r3, r7, r1
 800241c:	4a25      	ldr	r2, [pc, #148]	; (80024b4 <MX_GPIO_Init+0x138>)
 800241e:	0019      	movs	r1, r3
 8002420:	0010      	movs	r0, r2
 8002422:	f001 f867 	bl	80034f4 <HAL_GPIO_Init>

  /*Configure GPIO pins : PBPin PBPin */
  GPIO_InitStruct.Pin = DC_Pin|TS_CS_Pin;
 8002426:	0021      	movs	r1, r4
 8002428:	187b      	adds	r3, r7, r1
 800242a:	4a25      	ldr	r2, [pc, #148]	; (80024c0 <MX_GPIO_Init+0x144>)
 800242c:	601a      	str	r2, [r3, #0]
  GPIO_InitStruct.Mode = GPIO_MODE_OUTPUT_PP;
 800242e:	187b      	adds	r3, r7, r1
 8002430:	2201      	movs	r2, #1
 8002432:	605a      	str	r2, [r3, #4]
  GPIO_InitStruct.Pull = GPIO_NOPULL;
 8002434:	187b      	adds	r3, r7, r1
 8002436:	2200      	movs	r2, #0
 8002438:	609a      	str	r2, [r3, #8]
  GPIO_InitStruct.Speed = GPIO_SPEED_FREQ_HIGH;
 800243a:	187b      	adds	r3, r7, r1
 800243c:	2203      	movs	r2, #3
 800243e:	60da      	str	r2, [r3, #12]
  HAL_GPIO_Init(GPIOB, &GPIO_InitStruct);
 8002440:	000c      	movs	r4, r1
 8002442:	187b      	adds	r3, r7, r1
 8002444:	4a1d      	ldr	r2, [pc, #116]	; (80024bc <MX_GPIO_Init+0x140>)
 8002446:	0019      	movs	r1, r3
 8002448:	0010      	movs	r0, r2
 800244a:	f001 f853 	bl	80034f4 <HAL_GPIO_Init>

  /*Configure GPIO pin : PtPin */
  GPIO_InitStruct.Pin = TS_IRQ_Pin;
 800244e:	0021      	movs	r1, r4
 8002450:	187b      	adds	r3, r7, r1
 8002452:	2240      	movs	r2, #64	; 0x40
 8002454:	601a      	str	r2, [r3, #0]
  GPIO_InitStruct.Mode = GPIO_MODE_IT_FALLING;
 8002456:	187b      	adds	r3, r7, r1
 8002458:	4a1a      	ldr	r2, [pc, #104]	; (80024c4 <MX_GPIO_Init+0x148>)
 800245a:	605a      	str	r2, [r3, #4]
  GPIO_InitStruct.Pull = GPIO_PULLUP;
 800245c:	187b      	adds	r3, r7, r1
 800245e:	2201      	movs	r2, #1
 8002460:	609a      	str	r2, [r3, #8]
  HAL_GPIO_Init(TS_IRQ_GPIO_Port, &GPIO_InitStruct);
 8002462:	000c      	movs	r4, r1
 8002464:	187b      	adds	r3, r7, r1
 8002466:	4a13      	ldr	r2, [pc, #76]	; (80024b4 <MX_GPIO_Init+0x138>)
 8002468:	0019      	movs	r1, r3
 800246a:	0010      	movs	r0, r2
 800246c:	f001 f842 	bl	80034f4 <HAL_GPIO_Init>

  /*Configure GPIO pin : PtPin */
  GPIO_InitStruct.Pin = PSU_SW_ON_Pin;
 8002470:	0021      	movs	r1, r4
 8002472:	187b      	adds	r3, r7, r1
 8002474:	2208      	movs	r2, #8
 8002476:	601a      	str	r2, [r3, #0]
  GPIO_InitStruct.Mode = GPIO_MODE_OUTPUT_PP;
 8002478:	187b      	adds	r3, r7, r1
 800247a:	2201      	movs	r2, #1
 800247c:	605a      	str	r2, [r3, #4]
  GPIO_InitStruct.Pull = GPIO_PULLDOWN;
 800247e:	187b      	adds	r3, r7, r1
 8002480:	2202      	movs	r2, #2
 8002482:	609a      	str	r2, [r3, #8]
  GPIO_InitStruct.Speed = GPIO_SPEED_FREQ_LOW;
 8002484:	187b      	adds	r3, r7, r1
 8002486:	2200      	movs	r2, #0
 8002488:	60da      	str	r2, [r3, #12]
  HAL_GPIO_Init(PSU_SW_ON_GPIO_Port, &GPIO_InitStruct);
 800248a:	187b      	adds	r3, r7, r1
 800248c:	4a0b      	ldr	r2, [pc, #44]	; (80024bc <MX_GPIO_Init+0x140>)
 800248e:	0019      	movs	r1, r3
 8002490:	0010      	movs	r0, r2
 8002492:	f001 f82f 	bl	80034f4 <HAL_GPIO_Init>

  /* EXTI interrupt init*/
  HAL_NVIC_SetPriority(EXTI4_15_IRQn, 0, 0);
 8002496:	2200      	movs	r2, #0
 8002498:	2100      	movs	r1, #0
 800249a:	2007      	movs	r0, #7
 800249c:	f000 fff8 	bl	8003490 <HAL_NVIC_SetPriority>
  HAL_NVIC_EnableIRQ(EXTI4_15_IRQn);
 80024a0:	2007      	movs	r0, #7
 80024a2:	f001 f80a 	bl	80034ba <HAL_NVIC_EnableIRQ>

}
 80024a6:	46c0      	nop			; (mov r8, r8)
 80024a8:	46bd      	mov	sp, r7
 80024aa:	b009      	add	sp, #36	; 0x24
 80024ac:	bd90      	pop	{r4, r7, pc}
 80024ae:	46c0      	nop			; (mov r8, r8)
 80024b0:	40021000 	.word	0x40021000
 80024b4:	48000800 	.word	0x48000800
 80024b8:	00001009 	.word	0x00001009
 80024bc:	48000400 	.word	0x48000400
 80024c0:	00001001 	.word	0x00001001
 80024c4:	10210000 	.word	0x10210000

080024c8 <main>:
/**
  * @brief  The application entry point.
  * @retval int
  */
int main(void)
{
 80024c8:	b580      	push	{r7, lr}
 80024ca:	af00      	add	r7, sp, #0
  /* USER CODE END 1 */

  /* MCU Configuration--------------------------------------------------------*/

  /* Reset of all peripherals, Initializes the Flash interface and the Systick. */
  HAL_Init();
 80024cc:	f000 fa54 	bl	8002978 <HAL_Init>
  /* USER CODE BEGIN Init */

  /* USER CODE END Init */

  /* Configure the system clock */
  SystemClock_Config();
 80024d0:	f000 f826 	bl	8002520 <SystemClock_Config>
  /* USER CODE BEGIN SysInit */

  /* USER CODE END SysInit */

  /* Initialize all configured peripherals */
  MX_GPIO_Init();
 80024d4:	f7ff ff52 	bl	800237c <MX_GPIO_Init>
  MX_SPI1_Init();
 80024d8:	f000 f872 	bl	80025c0 <MX_SPI1_Init>
  MX_SPI2_Init();
 80024dc:	f000 f8ae 	bl	800263c <MX_SPI2_Init>
  MX_ADC_Init();
 80024e0:	f7ff feaa 	bl	8002238 <MX_ADC_Init>
  MX_TIM17_Init();
 80024e4:	f000 f9ce 	bl	8002884 <MX_TIM17_Init>
  /* USER CODE BEGIN 2 */
  // init ILI9341 library
  ILI9341_Init();
 80024e8:	f002 fb7d 	bl	8004be6 <ILI9341_Init>
  ILI9341_Set_Rotation(SCREEN_HORIZONTAL_1);
 80024ec:	2001      	movs	r0, #1
 80024ee:	f002 ffef 	bl	80054d0 <ILI9341_Set_Rotation>
  ILI9341_Fill_Screen(LBLUE);
 80024f2:	4b09      	ldr	r3, [pc, #36]	; (8002518 <main+0x50>)
 80024f4:	0018      	movs	r0, r3
 80024f6:	f002 fd7f 	bl	8004ff8 <ILI9341_Fill_Screen>

  // init TSC2046 library
  TSC2046_HM_Init();
 80024fa:	f003 fa81 	bl	8005a00 <TSC2046_HM_Init>

  // init ADC
  HAL_ADCEx_Calibration_Start(&hadc);
 80024fe:	4b07      	ldr	r3, [pc, #28]	; (800251c <main+0x54>)
 8002500:	0018      	movs	r0, r3
 8002502:	f000 fe7b 	bl	80031fc <HAL_ADCEx_Calibration_Start>
  HAL_ADC_Start(&hadc);
 8002506:	4b05      	ldr	r3, [pc, #20]	; (800251c <main+0x54>)
 8002508:	0018      	movs	r0, r3
 800250a:	f000 fbfb 	bl	8002d04 <HAL_ADC_Start>

  /* Infinite loop */
  /* USER CODE BEGIN WHILE */
  while (1)
  {
	  UserDisplayTask();
 800250e:	f003 fbe5 	bl	8005cdc <UserDisplayTask>
	  UserAdcTask();
 8002512:	f003 fc6d 	bl	8005df0 <UserAdcTask>
	  UserDisplayTask();
 8002516:	e7fa      	b.n	800250e <main+0x46>
 8002518:	00004cf6 	.word	0x00004cf6
 800251c:	20000218 	.word	0x20000218

08002520 <SystemClock_Config>:
/**
  * @brief System Clock Configuration
  * @retval None
  */
void SystemClock_Config(void)
{
 8002520:	b590      	push	{r4, r7, lr}
 8002522:	b093      	sub	sp, #76	; 0x4c
 8002524:	af00      	add	r7, sp, #0
  RCC_OscInitTypeDef RCC_OscInitStruct = {0};
 8002526:	2414      	movs	r4, #20
 8002528:	193b      	adds	r3, r7, r4
 800252a:	0018      	movs	r0, r3
 800252c:	2334      	movs	r3, #52	; 0x34
 800252e:	001a      	movs	r2, r3
 8002530:	2100      	movs	r1, #0
 8002532:	f003 fd01 	bl	8005f38 <memset>
  RCC_ClkInitTypeDef RCC_ClkInitStruct = {0};
 8002536:	1d3b      	adds	r3, r7, #4
 8002538:	0018      	movs	r0, r3
 800253a:	2310      	movs	r3, #16
 800253c:	001a      	movs	r2, r3
 800253e:	2100      	movs	r1, #0
 8002540:	f003 fcfa 	bl	8005f38 <memset>

  /** Initializes the CPU, AHB and APB busses clocks
  */
  RCC_OscInitStruct.OscillatorType = RCC_OSCILLATORTYPE_HSI;
 8002544:	0021      	movs	r1, r4
 8002546:	187b      	adds	r3, r7, r1
 8002548:	2202      	movs	r2, #2
 800254a:	601a      	str	r2, [r3, #0]
  RCC_OscInitStruct.HSIState = RCC_HSI_ON;
 800254c:	187b      	adds	r3, r7, r1
 800254e:	2201      	movs	r2, #1
 8002550:	60da      	str	r2, [r3, #12]
  RCC_OscInitStruct.HSICalibrationValue = RCC_HSICALIBRATION_DEFAULT;
 8002552:	187b      	adds	r3, r7, r1
 8002554:	2210      	movs	r2, #16
 8002556:	611a      	str	r2, [r3, #16]
  RCC_OscInitStruct.PLL.PLLState = RCC_PLL_ON;
 8002558:	187b      	adds	r3, r7, r1
 800255a:	2202      	movs	r2, #2
 800255c:	625a      	str	r2, [r3, #36]	; 0x24
  RCC_OscInitStruct.PLL.PLLSource = RCC_PLLSOURCE_HSI;
 800255e:	187b      	adds	r3, r7, r1
 8002560:	2280      	movs	r2, #128	; 0x80
 8002562:	0212      	lsls	r2, r2, #8
 8002564:	629a      	str	r2, [r3, #40]	; 0x28
  RCC_OscInitStruct.PLL.PLLMUL = RCC_PLL_MUL6;
 8002566:	187b      	adds	r3, r7, r1
 8002568:	2280      	movs	r2, #128	; 0x80
 800256a:	0352      	lsls	r2, r2, #13
 800256c:	62da      	str	r2, [r3, #44]	; 0x2c
  RCC_OscInitStruct.PLL.PREDIV = RCC_PREDIV_DIV1;
 800256e:	187b      	adds	r3, r7, r1
 8002570:	2200      	movs	r2, #0
 8002572:	631a      	str	r2, [r3, #48]	; 0x30
  if (HAL_RCC_OscConfig(&RCC_OscInitStruct) != HAL_OK)
 8002574:	187b      	adds	r3, r7, r1
 8002576:	0018      	movs	r0, r3
 8002578:	f001 f9b0 	bl	80038dc <HAL_RCC_OscConfig>
 800257c:	1e03      	subs	r3, r0, #0
 800257e:	d001      	beq.n	8002584 <SystemClock_Config+0x64>
  {
    Error_Handler();
 8002580:	f000 f819 	bl	80025b6 <Error_Handler>
  }
  /** Initializes the CPU, AHB and APB busses clocks
  */
  RCC_ClkInitStruct.ClockType = RCC_CLOCKTYPE_HCLK|RCC_CLOCKTYPE_SYSCLK
 8002584:	1d3b      	adds	r3, r7, #4
 8002586:	2207      	movs	r2, #7
 8002588:	601a      	str	r2, [r3, #0]
                              |RCC_CLOCKTYPE_PCLK1;
  RCC_ClkInitStruct.SYSCLKSource = RCC_SYSCLKSOURCE_PLLCLK;
 800258a:	1d3b      	adds	r3, r7, #4
 800258c:	2202      	movs	r2, #2
 800258e:	605a      	str	r2, [r3, #4]
  RCC_ClkInitStruct.AHBCLKDivider = RCC_SYSCLK_DIV1;
 8002590:	1d3b      	adds	r3, r7, #4
 8002592:	2200      	movs	r2, #0
 8002594:	609a      	str	r2, [r3, #8]
  RCC_ClkInitStruct.APB1CLKDivider = RCC_HCLK_DIV1;
 8002596:	1d3b      	adds	r3, r7, #4
 8002598:	2200      	movs	r2, #0
 800259a:	60da      	str	r2, [r3, #12]

  if (HAL_RCC_ClockConfig(&RCC_ClkInitStruct, FLASH_LATENCY_1) != HAL_OK)
 800259c:	1d3b      	adds	r3, r7, #4
 800259e:	2101      	movs	r1, #1
 80025a0:	0018      	movs	r0, r3
 80025a2:	f001 fd21 	bl	8003fe8 <HAL_RCC_ClockConfig>
 80025a6:	1e03      	subs	r3, r0, #0
 80025a8:	d001      	beq.n	80025ae <SystemClock_Config+0x8e>
  {
    Error_Handler();
 80025aa:	f000 f804 	bl	80025b6 <Error_Handler>
  }
}
 80025ae:	46c0      	nop			; (mov r8, r8)
 80025b0:	46bd      	mov	sp, r7
 80025b2:	b013      	add	sp, #76	; 0x4c
 80025b4:	bd90      	pop	{r4, r7, pc}

080025b6 <Error_Handler>:
/**
  * @brief  This function is executed in case of error occurrence.
  * @retval None
  */
void Error_Handler(void)
{
 80025b6:	b580      	push	{r7, lr}
 80025b8:	af00      	add	r7, sp, #0
  /* USER CODE BEGIN Error_Handler_Debug */
  /* User can add his own implementation to report the HAL error return state */

  /* USER CODE END Error_Handler_Debug */
}
 80025ba:	46c0      	nop			; (mov r8, r8)
 80025bc:	46bd      	mov	sp, r7
 80025be:	bd80      	pop	{r7, pc}

080025c0 <MX_SPI1_Init>:
SPI_HandleTypeDef hspi1;
SPI_HandleTypeDef hspi2;

/* SPI1 init function */
void MX_SPI1_Init(void)
{
 80025c0:	b580      	push	{r7, lr}
 80025c2:	af00      	add	r7, sp, #0

  hspi1.Instance = SPI1;
 80025c4:	4b1b      	ldr	r3, [pc, #108]	; (8002634 <MX_SPI1_Init+0x74>)
 80025c6:	4a1c      	ldr	r2, [pc, #112]	; (8002638 <MX_SPI1_Init+0x78>)
 80025c8:	601a      	str	r2, [r3, #0]
  hspi1.Init.Mode = SPI_MODE_MASTER;
 80025ca:	4b1a      	ldr	r3, [pc, #104]	; (8002634 <MX_SPI1_Init+0x74>)
 80025cc:	2282      	movs	r2, #130	; 0x82
 80025ce:	0052      	lsls	r2, r2, #1
 80025d0:	605a      	str	r2, [r3, #4]
  hspi1.Init.Direction = SPI_DIRECTION_2LINES;
 80025d2:	4b18      	ldr	r3, [pc, #96]	; (8002634 <MX_SPI1_Init+0x74>)
 80025d4:	2200      	movs	r2, #0
 80025d6:	609a      	str	r2, [r3, #8]
  hspi1.Init.DataSize = SPI_DATASIZE_8BIT;
 80025d8:	4b16      	ldr	r3, [pc, #88]	; (8002634 <MX_SPI1_Init+0x74>)
 80025da:	22e0      	movs	r2, #224	; 0xe0
 80025dc:	00d2      	lsls	r2, r2, #3
 80025de:	60da      	str	r2, [r3, #12]
  hspi1.Init.CLKPolarity = SPI_POLARITY_LOW;
 80025e0:	4b14      	ldr	r3, [pc, #80]	; (8002634 <MX_SPI1_Init+0x74>)
 80025e2:	2200      	movs	r2, #0
 80025e4:	611a      	str	r2, [r3, #16]
  hspi1.Init.CLKPhase = SPI_PHASE_1EDGE;
 80025e6:	4b13      	ldr	r3, [pc, #76]	; (8002634 <MX_SPI1_Init+0x74>)
 80025e8:	2200      	movs	r2, #0
 80025ea:	615a      	str	r2, [r3, #20]
  hspi1.Init.NSS = SPI_NSS_SOFT;
 80025ec:	4b11      	ldr	r3, [pc, #68]	; (8002634 <MX_SPI1_Init+0x74>)
 80025ee:	2280      	movs	r2, #128	; 0x80
 80025f0:	0092      	lsls	r2, r2, #2
 80025f2:	619a      	str	r2, [r3, #24]
  hspi1.Init.BaudRatePrescaler = SPI_BAUDRATEPRESCALER_4;
 80025f4:	4b0f      	ldr	r3, [pc, #60]	; (8002634 <MX_SPI1_Init+0x74>)
 80025f6:	2208      	movs	r2, #8
 80025f8:	61da      	str	r2, [r3, #28]
  hspi1.Init.FirstBit = SPI_FIRSTBIT_MSB;
 80025fa:	4b0e      	ldr	r3, [pc, #56]	; (8002634 <MX_SPI1_Init+0x74>)
 80025fc:	2200      	movs	r2, #0
 80025fe:	621a      	str	r2, [r3, #32]
  hspi1.Init.TIMode = SPI_TIMODE_DISABLE;
 8002600:	4b0c      	ldr	r3, [pc, #48]	; (8002634 <MX_SPI1_Init+0x74>)
 8002602:	2200      	movs	r2, #0
 8002604:	625a      	str	r2, [r3, #36]	; 0x24
  hspi1.Init.CRCCalculation = SPI_CRCCALCULATION_DISABLE;
 8002606:	4b0b      	ldr	r3, [pc, #44]	; (8002634 <MX_SPI1_Init+0x74>)
 8002608:	2200      	movs	r2, #0
 800260a:	629a      	str	r2, [r3, #40]	; 0x28
  hspi1.Init.CRCPolynomial = 7;
 800260c:	4b09      	ldr	r3, [pc, #36]	; (8002634 <MX_SPI1_Init+0x74>)
 800260e:	2207      	movs	r2, #7
 8002610:	62da      	str	r2, [r3, #44]	; 0x2c
  hspi1.Init.CRCLength = SPI_CRC_LENGTH_DATASIZE;
 8002612:	4b08      	ldr	r3, [pc, #32]	; (8002634 <MX_SPI1_Init+0x74>)
 8002614:	2200      	movs	r2, #0
 8002616:	631a      	str	r2, [r3, #48]	; 0x30
  hspi1.Init.NSSPMode = SPI_NSS_PULSE_DISABLE;
 8002618:	4b06      	ldr	r3, [pc, #24]	; (8002634 <MX_SPI1_Init+0x74>)
 800261a:	2200      	movs	r2, #0
 800261c:	635a      	str	r2, [r3, #52]	; 0x34
  if (HAL_SPI_Init(&hspi1) != HAL_OK)
 800261e:	4b05      	ldr	r3, [pc, #20]	; (8002634 <MX_SPI1_Init+0x74>)
 8002620:	0018      	movs	r0, r3
 8002622:	f001 fe39 	bl	8004298 <HAL_SPI_Init>
 8002626:	1e03      	subs	r3, r0, #0
 8002628:	d001      	beq.n	800262e <MX_SPI1_Init+0x6e>
  {
    Error_Handler();
 800262a:	f7ff ffc4 	bl	80025b6 <Error_Handler>
  }

}
 800262e:	46c0      	nop			; (mov r8, r8)
 8002630:	46bd      	mov	sp, r7
 8002632:	bd80      	pop	{r7, pc}
 8002634:	200002bc 	.word	0x200002bc
 8002638:	40013000 	.word	0x40013000

0800263c <MX_SPI2_Init>:
/* SPI2 init function */
void MX_SPI2_Init(void)
{
 800263c:	b580      	push	{r7, lr}
 800263e:	af00      	add	r7, sp, #0

  hspi2.Instance = SPI2;
 8002640:	4b1b      	ldr	r3, [pc, #108]	; (80026b0 <MX_SPI2_Init+0x74>)
 8002642:	4a1c      	ldr	r2, [pc, #112]	; (80026b4 <MX_SPI2_Init+0x78>)
 8002644:	601a      	str	r2, [r3, #0]
  hspi2.Init.Mode = SPI_MODE_MASTER;
 8002646:	4b1a      	ldr	r3, [pc, #104]	; (80026b0 <MX_SPI2_Init+0x74>)
 8002648:	2282      	movs	r2, #130	; 0x82
 800264a:	0052      	lsls	r2, r2, #1
 800264c:	605a      	str	r2, [r3, #4]
  hspi2.Init.Direction = SPI_DIRECTION_2LINES;
 800264e:	4b18      	ldr	r3, [pc, #96]	; (80026b0 <MX_SPI2_Init+0x74>)
 8002650:	2200      	movs	r2, #0
 8002652:	609a      	str	r2, [r3, #8]
  hspi2.Init.DataSize = SPI_DATASIZE_8BIT;
 8002654:	4b16      	ldr	r3, [pc, #88]	; (80026b0 <MX_SPI2_Init+0x74>)
 8002656:	22e0      	movs	r2, #224	; 0xe0
 8002658:	00d2      	lsls	r2, r2, #3
 800265a:	60da      	str	r2, [r3, #12]
  hspi2.Init.CLKPolarity = SPI_POLARITY_LOW;
 800265c:	4b14      	ldr	r3, [pc, #80]	; (80026b0 <MX_SPI2_Init+0x74>)
 800265e:	2200      	movs	r2, #0
 8002660:	611a      	str	r2, [r3, #16]
  hspi2.Init.CLKPhase = SPI_PHASE_1EDGE;
 8002662:	4b13      	ldr	r3, [pc, #76]	; (80026b0 <MX_SPI2_Init+0x74>)
 8002664:	2200      	movs	r2, #0
 8002666:	615a      	str	r2, [r3, #20]
  hspi2.Init.NSS = SPI_NSS_SOFT;
 8002668:	4b11      	ldr	r3, [pc, #68]	; (80026b0 <MX_SPI2_Init+0x74>)
 800266a:	2280      	movs	r2, #128	; 0x80
 800266c:	0092      	lsls	r2, r2, #2
 800266e:	619a      	str	r2, [r3, #24]
  hspi2.Init.BaudRatePrescaler = SPI_BAUDRATEPRESCALER_8;
 8002670:	4b0f      	ldr	r3, [pc, #60]	; (80026b0 <MX_SPI2_Init+0x74>)
 8002672:	2210      	movs	r2, #16
 8002674:	61da      	str	r2, [r3, #28]
  hspi2.Init.FirstBit = SPI_FIRSTBIT_MSB;
 8002676:	4b0e      	ldr	r3, [pc, #56]	; (80026b0 <MX_SPI2_Init+0x74>)
 8002678:	2200      	movs	r2, #0
 800267a:	621a      	str	r2, [r3, #32]
  hspi2.Init.TIMode = SPI_TIMODE_DISABLE;
 800267c:	4b0c      	ldr	r3, [pc, #48]	; (80026b0 <MX_SPI2_Init+0x74>)
 800267e:	2200      	movs	r2, #0
 8002680:	625a      	str	r2, [r3, #36]	; 0x24
  hspi2.Init.CRCCalculation = SPI_CRCCALCULATION_DISABLE;
 8002682:	4b0b      	ldr	r3, [pc, #44]	; (80026b0 <MX_SPI2_Init+0x74>)
 8002684:	2200      	movs	r2, #0
 8002686:	629a      	str	r2, [r3, #40]	; 0x28
  hspi2.Init.CRCPolynomial = 7;
 8002688:	4b09      	ldr	r3, [pc, #36]	; (80026b0 <MX_SPI2_Init+0x74>)
 800268a:	2207      	movs	r2, #7
 800268c:	62da      	str	r2, [r3, #44]	; 0x2c
  hspi2.Init.CRCLength = SPI_CRC_LENGTH_DATASIZE;
 800268e:	4b08      	ldr	r3, [pc, #32]	; (80026b0 <MX_SPI2_Init+0x74>)
 8002690:	2200      	movs	r2, #0
 8002692:	631a      	str	r2, [r3, #48]	; 0x30
  hspi2.Init.NSSPMode = SPI_NSS_PULSE_DISABLE;
 8002694:	4b06      	ldr	r3, [pc, #24]	; (80026b0 <MX_SPI2_Init+0x74>)
 8002696:	2200      	movs	r2, #0
 8002698:	635a      	str	r2, [r3, #52]	; 0x34
  if (HAL_SPI_Init(&hspi2) != HAL_OK)
 800269a:	4b05      	ldr	r3, [pc, #20]	; (80026b0 <MX_SPI2_Init+0x74>)
 800269c:	0018      	movs	r0, r3
 800269e:	f001 fdfb 	bl	8004298 <HAL_SPI_Init>
 80026a2:	1e03      	subs	r3, r0, #0
 80026a4:	d001      	beq.n	80026aa <MX_SPI2_Init+0x6e>
  {
    Error_Handler();
 80026a6:	f7ff ff86 	bl	80025b6 <Error_Handler>
  }

}
 80026aa:	46c0      	nop			; (mov r8, r8)
 80026ac:	46bd      	mov	sp, r7
 80026ae:	bd80      	pop	{r7, pc}
 80026b0:	20000258 	.word	0x20000258
 80026b4:	40003800 	.word	0x40003800

080026b8 <HAL_SPI_MspInit>:

void HAL_SPI_MspInit(SPI_HandleTypeDef* spiHandle)
{
 80026b8:	b580      	push	{r7, lr}
 80026ba:	b08c      	sub	sp, #48	; 0x30
 80026bc:	af00      	add	r7, sp, #0
 80026be:	6078      	str	r0, [r7, #4]

  GPIO_InitTypeDef GPIO_InitStruct = {0};
 80026c0:	231c      	movs	r3, #28
 80026c2:	18fb      	adds	r3, r7, r3
 80026c4:	0018      	movs	r0, r3
 80026c6:	2314      	movs	r3, #20
 80026c8:	001a      	movs	r2, r3
 80026ca:	2100      	movs	r1, #0
 80026cc:	f003 fc34 	bl	8005f38 <memset>
  if(spiHandle->Instance==SPI1)
 80026d0:	687b      	ldr	r3, [r7, #4]
 80026d2:	681b      	ldr	r3, [r3, #0]
 80026d4:	4a39      	ldr	r2, [pc, #228]	; (80027bc <HAL_SPI_MspInit+0x104>)
 80026d6:	4293      	cmp	r3, r2
 80026d8:	d133      	bne.n	8002742 <HAL_SPI_MspInit+0x8a>
  {
  /* USER CODE BEGIN SPI1_MspInit 0 */

  /* USER CODE END SPI1_MspInit 0 */
    /* SPI1 clock enable */
    __HAL_RCC_SPI1_CLK_ENABLE();
 80026da:	4b39      	ldr	r3, [pc, #228]	; (80027c0 <HAL_SPI_MspInit+0x108>)
 80026dc:	699a      	ldr	r2, [r3, #24]
 80026de:	4b38      	ldr	r3, [pc, #224]	; (80027c0 <HAL_SPI_MspInit+0x108>)
 80026e0:	2180      	movs	r1, #128	; 0x80
 80026e2:	0149      	lsls	r1, r1, #5
 80026e4:	430a      	orrs	r2, r1
 80026e6:	619a      	str	r2, [r3, #24]
 80026e8:	4b35      	ldr	r3, [pc, #212]	; (80027c0 <HAL_SPI_MspInit+0x108>)
 80026ea:	699a      	ldr	r2, [r3, #24]
 80026ec:	2380      	movs	r3, #128	; 0x80
 80026ee:	015b      	lsls	r3, r3, #5
 80026f0:	4013      	ands	r3, r2
 80026f2:	61bb      	str	r3, [r7, #24]
 80026f4:	69bb      	ldr	r3, [r7, #24]

    __HAL_RCC_GPIOA_CLK_ENABLE();
 80026f6:	4b32      	ldr	r3, [pc, #200]	; (80027c0 <HAL_SPI_MspInit+0x108>)
 80026f8:	695a      	ldr	r2, [r3, #20]
 80026fa:	4b31      	ldr	r3, [pc, #196]	; (80027c0 <HAL_SPI_MspInit+0x108>)
 80026fc:	2180      	movs	r1, #128	; 0x80
 80026fe:	0289      	lsls	r1, r1, #10
 8002700:	430a      	orrs	r2, r1
 8002702:	615a      	str	r2, [r3, #20]
 8002704:	4b2e      	ldr	r3, [pc, #184]	; (80027c0 <HAL_SPI_MspInit+0x108>)
 8002706:	695a      	ldr	r2, [r3, #20]
 8002708:	2380      	movs	r3, #128	; 0x80
 800270a:	029b      	lsls	r3, r3, #10
 800270c:	4013      	ands	r3, r2
 800270e:	617b      	str	r3, [r7, #20]
 8002710:	697b      	ldr	r3, [r7, #20]
    /**SPI1 GPIO Configuration
    PA5     ------> SPI1_SCK
    PA6     ------> SPI1_MISO
    PA7     ------> SPI1_MOSI
    */
    GPIO_InitStruct.Pin = GPIO_PIN_5|GPIO_PIN_6|GPIO_PIN_7;
 8002712:	211c      	movs	r1, #28
 8002714:	187b      	adds	r3, r7, r1
 8002716:	22e0      	movs	r2, #224	; 0xe0
 8002718:	601a      	str	r2, [r3, #0]
    GPIO_InitStruct.Mode = GPIO_MODE_AF_PP;
 800271a:	187b      	adds	r3, r7, r1
 800271c:	2202      	movs	r2, #2
 800271e:	605a      	str	r2, [r3, #4]
    GPIO_InitStruct.Pull = GPIO_NOPULL;
 8002720:	187b      	adds	r3, r7, r1
 8002722:	2200      	movs	r2, #0
 8002724:	609a      	str	r2, [r3, #8]
    GPIO_InitStruct.Speed = GPIO_SPEED_FREQ_HIGH;
 8002726:	187b      	adds	r3, r7, r1
 8002728:	2203      	movs	r2, #3
 800272a:	60da      	str	r2, [r3, #12]
    GPIO_InitStruct.Alternate = GPIO_AF0_SPI1;
 800272c:	187b      	adds	r3, r7, r1
 800272e:	2200      	movs	r2, #0
 8002730:	611a      	str	r2, [r3, #16]
    HAL_GPIO_Init(GPIOA, &GPIO_InitStruct);
 8002732:	187a      	adds	r2, r7, r1
 8002734:	2390      	movs	r3, #144	; 0x90
 8002736:	05db      	lsls	r3, r3, #23
 8002738:	0011      	movs	r1, r2
 800273a:	0018      	movs	r0, r3
 800273c:	f000 feda 	bl	80034f4 <HAL_GPIO_Init>

  /* USER CODE BEGIN SPI2_MspInit 1 */

  /* USER CODE END SPI2_MspInit 1 */
  }
}
 8002740:	e037      	b.n	80027b2 <HAL_SPI_MspInit+0xfa>
  else if(spiHandle->Instance==SPI2)
 8002742:	687b      	ldr	r3, [r7, #4]
 8002744:	681b      	ldr	r3, [r3, #0]
 8002746:	4a1f      	ldr	r2, [pc, #124]	; (80027c4 <HAL_SPI_MspInit+0x10c>)
 8002748:	4293      	cmp	r3, r2
 800274a:	d132      	bne.n	80027b2 <HAL_SPI_MspInit+0xfa>
    __HAL_RCC_SPI2_CLK_ENABLE();
 800274c:	4b1c      	ldr	r3, [pc, #112]	; (80027c0 <HAL_SPI_MspInit+0x108>)
 800274e:	69da      	ldr	r2, [r3, #28]
 8002750:	4b1b      	ldr	r3, [pc, #108]	; (80027c0 <HAL_SPI_MspInit+0x108>)
 8002752:	2180      	movs	r1, #128	; 0x80
 8002754:	01c9      	lsls	r1, r1, #7
 8002756:	430a      	orrs	r2, r1
 8002758:	61da      	str	r2, [r3, #28]
 800275a:	4b19      	ldr	r3, [pc, #100]	; (80027c0 <HAL_SPI_MspInit+0x108>)
 800275c:	69da      	ldr	r2, [r3, #28]
 800275e:	2380      	movs	r3, #128	; 0x80
 8002760:	01db      	lsls	r3, r3, #7
 8002762:	4013      	ands	r3, r2
 8002764:	613b      	str	r3, [r7, #16]
 8002766:	693b      	ldr	r3, [r7, #16]
    __HAL_RCC_GPIOB_CLK_ENABLE();
 8002768:	4b15      	ldr	r3, [pc, #84]	; (80027c0 <HAL_SPI_MspInit+0x108>)
 800276a:	695a      	ldr	r2, [r3, #20]
 800276c:	4b14      	ldr	r3, [pc, #80]	; (80027c0 <HAL_SPI_MspInit+0x108>)
 800276e:	2180      	movs	r1, #128	; 0x80
 8002770:	02c9      	lsls	r1, r1, #11
 8002772:	430a      	orrs	r2, r1
 8002774:	615a      	str	r2, [r3, #20]
 8002776:	4b12      	ldr	r3, [pc, #72]	; (80027c0 <HAL_SPI_MspInit+0x108>)
 8002778:	695a      	ldr	r2, [r3, #20]
 800277a:	2380      	movs	r3, #128	; 0x80
 800277c:	02db      	lsls	r3, r3, #11
 800277e:	4013      	ands	r3, r2
 8002780:	60fb      	str	r3, [r7, #12]
 8002782:	68fb      	ldr	r3, [r7, #12]
    GPIO_InitStruct.Pin = TS_SCK_Pin|TS_MISO_Pin|TS_MOSI_Pin;
 8002784:	211c      	movs	r1, #28
 8002786:	187b      	adds	r3, r7, r1
 8002788:	22e0      	movs	r2, #224	; 0xe0
 800278a:	0212      	lsls	r2, r2, #8
 800278c:	601a      	str	r2, [r3, #0]
    GPIO_InitStruct.Mode = GPIO_MODE_AF_PP;
 800278e:	187b      	adds	r3, r7, r1
 8002790:	2202      	movs	r2, #2
 8002792:	605a      	str	r2, [r3, #4]
    GPIO_InitStruct.Pull = GPIO_NOPULL;
 8002794:	187b      	adds	r3, r7, r1
 8002796:	2200      	movs	r2, #0
 8002798:	609a      	str	r2, [r3, #8]
    GPIO_InitStruct.Speed = GPIO_SPEED_FREQ_HIGH;
 800279a:	187b      	adds	r3, r7, r1
 800279c:	2203      	movs	r2, #3
 800279e:	60da      	str	r2, [r3, #12]
    GPIO_InitStruct.Alternate = GPIO_AF0_SPI2;
 80027a0:	187b      	adds	r3, r7, r1
 80027a2:	2200      	movs	r2, #0
 80027a4:	611a      	str	r2, [r3, #16]
    HAL_GPIO_Init(GPIOB, &GPIO_InitStruct);
 80027a6:	187b      	adds	r3, r7, r1
 80027a8:	4a07      	ldr	r2, [pc, #28]	; (80027c8 <HAL_SPI_MspInit+0x110>)
 80027aa:	0019      	movs	r1, r3
 80027ac:	0010      	movs	r0, r2
 80027ae:	f000 fea1 	bl	80034f4 <HAL_GPIO_Init>
}
 80027b2:	46c0      	nop			; (mov r8, r8)
 80027b4:	46bd      	mov	sp, r7
 80027b6:	b00c      	add	sp, #48	; 0x30
 80027b8:	bd80      	pop	{r7, pc}
 80027ba:	46c0      	nop			; (mov r8, r8)
 80027bc:	40013000 	.word	0x40013000
 80027c0:	40021000 	.word	0x40021000
 80027c4:	40003800 	.word	0x40003800
 80027c8:	48000400 	.word	0x48000400

080027cc <HAL_MspInit>:
/* USER CODE END 0 */
/**
  * Initializes the Global MSP.
  */
void HAL_MspInit(void)
{
 80027cc:	b580      	push	{r7, lr}
 80027ce:	b082      	sub	sp, #8
 80027d0:	af00      	add	r7, sp, #0
  /* USER CODE BEGIN MspInit 0 */

  /* USER CODE END MspInit 0 */

  __HAL_RCC_SYSCFG_CLK_ENABLE();
 80027d2:	4b0f      	ldr	r3, [pc, #60]	; (8002810 <HAL_MspInit+0x44>)
 80027d4:	699a      	ldr	r2, [r3, #24]
 80027d6:	4b0e      	ldr	r3, [pc, #56]	; (8002810 <HAL_MspInit+0x44>)
 80027d8:	2101      	movs	r1, #1
 80027da:	430a      	orrs	r2, r1
 80027dc:	619a      	str	r2, [r3, #24]
 80027de:	4b0c      	ldr	r3, [pc, #48]	; (8002810 <HAL_MspInit+0x44>)
 80027e0:	699b      	ldr	r3, [r3, #24]
 80027e2:	2201      	movs	r2, #1
 80027e4:	4013      	ands	r3, r2
 80027e6:	607b      	str	r3, [r7, #4]
 80027e8:	687b      	ldr	r3, [r7, #4]
  __HAL_RCC_PWR_CLK_ENABLE();
 80027ea:	4b09      	ldr	r3, [pc, #36]	; (8002810 <HAL_MspInit+0x44>)
 80027ec:	69da      	ldr	r2, [r3, #28]
 80027ee:	4b08      	ldr	r3, [pc, #32]	; (8002810 <HAL_MspInit+0x44>)
 80027f0:	2180      	movs	r1, #128	; 0x80
 80027f2:	0549      	lsls	r1, r1, #21
 80027f4:	430a      	orrs	r2, r1
 80027f6:	61da      	str	r2, [r3, #28]
 80027f8:	4b05      	ldr	r3, [pc, #20]	; (8002810 <HAL_MspInit+0x44>)
 80027fa:	69da      	ldr	r2, [r3, #28]
 80027fc:	2380      	movs	r3, #128	; 0x80
 80027fe:	055b      	lsls	r3, r3, #21
 8002800:	4013      	ands	r3, r2
 8002802:	603b      	str	r3, [r7, #0]
 8002804:	683b      	ldr	r3, [r7, #0]
  /* System interrupt init*/

  /* USER CODE BEGIN MspInit 1 */

  /* USER CODE END MspInit 1 */
}
 8002806:	46c0      	nop			; (mov r8, r8)
 8002808:	46bd      	mov	sp, r7
 800280a:	b002      	add	sp, #8
 800280c:	bd80      	pop	{r7, pc}
 800280e:	46c0      	nop			; (mov r8, r8)
 8002810:	40021000 	.word	0x40021000

08002814 <NMI_Handler>:
/******************************************************************************/
/**
  * @brief This function handles Non maskable interrupt.
  */
void NMI_Handler(void)
{
 8002814:	b580      	push	{r7, lr}
 8002816:	af00      	add	r7, sp, #0

  /* USER CODE END NonMaskableInt_IRQn 0 */
  /* USER CODE BEGIN NonMaskableInt_IRQn 1 */

  /* USER CODE END NonMaskableInt_IRQn 1 */
}
 8002818:	46c0      	nop			; (mov r8, r8)
 800281a:	46bd      	mov	sp, r7
 800281c:	bd80      	pop	{r7, pc}

0800281e <HardFault_Handler>:

/**
  * @brief This function handles Hard fault interrupt.
  */
void HardFault_Handler(void)
{
 800281e:	b580      	push	{r7, lr}
 8002820:	af00      	add	r7, sp, #0
  /* USER CODE BEGIN HardFault_IRQn 0 */

  /* USER CODE END HardFault_IRQn 0 */
  while (1)
 8002822:	e7fe      	b.n	8002822 <HardFault_Handler+0x4>

08002824 <SVC_Handler>:

/**
  * @brief This function handles System service call via SWI instruction.
  */
void SVC_Handler(void)
{
 8002824:	b580      	push	{r7, lr}
 8002826:	af00      	add	r7, sp, #0

  /* USER CODE END SVC_IRQn 0 */
  /* USER CODE BEGIN SVC_IRQn 1 */

  /* USER CODE END SVC_IRQn 1 */
}
 8002828:	46c0      	nop			; (mov r8, r8)
 800282a:	46bd      	mov	sp, r7
 800282c:	bd80      	pop	{r7, pc}

0800282e <PendSV_Handler>:

/**
  * @brief This function handles Pendable request for system service.
  */
void PendSV_Handler(void)
{
 800282e:	b580      	push	{r7, lr}
 8002830:	af00      	add	r7, sp, #0

  /* USER CODE END PendSV_IRQn 0 */
  /* USER CODE BEGIN PendSV_IRQn 1 */

  /* USER CODE END PendSV_IRQn 1 */
}
 8002832:	46c0      	nop			; (mov r8, r8)
 8002834:	46bd      	mov	sp, r7
 8002836:	bd80      	pop	{r7, pc}

08002838 <SysTick_Handler>:

/**
  * @brief This function handles System tick timer.
  */
void SysTick_Handler(void)
{
 8002838:	b580      	push	{r7, lr}
 800283a:	af00      	add	r7, sp, #0
  /* USER CODE BEGIN SysTick_IRQn 0 */

  /* USER CODE END SysTick_IRQn 0 */
  HAL_IncTick();
 800283c:	f000 f8e4 	bl	8002a08 <HAL_IncTick>
  /* USER CODE BEGIN SysTick_IRQn 1 */

  /* USER CODE END SysTick_IRQn 1 */
}
 8002840:	46c0      	nop			; (mov r8, r8)
 8002842:	46bd      	mov	sp, r7
 8002844:	bd80      	pop	{r7, pc}

08002846 <EXTI4_15_IRQHandler>:

/**
  * @brief This function handles EXTI line 4 to 15 interrupts.
  */
void EXTI4_15_IRQHandler(void)
{
 8002846:	b580      	push	{r7, lr}
 8002848:	af00      	add	r7, sp, #0
  /* USER CODE BEGIN EXTI4_15_IRQn 0 */
	TSC2046_IM_PENIRQ_EXTI_Handler();
 800284a:	f003 fa29 	bl	8005ca0 <TSC2046_IM_PENIRQ_EXTI_Handler>
  /* USER CODE END EXTI4_15_IRQn 0 */
  HAL_GPIO_EXTI_IRQHandler(GPIO_PIN_6);
 800284e:	2040      	movs	r0, #64	; 0x40
 8002850:	f001 f81e 	bl	8003890 <HAL_GPIO_EXTI_IRQHandler>
  /* USER CODE BEGIN EXTI4_15_IRQn 1 */

  /* USER CODE END EXTI4_15_IRQn 1 */
}
 8002854:	46c0      	nop			; (mov r8, r8)
 8002856:	46bd      	mov	sp, r7
 8002858:	bd80      	pop	{r7, pc}
	...

0800285c <TIM17_IRQHandler>:

/**
  * @brief This function handles TIM17 global interrupt.
  */
void TIM17_IRQHandler(void)
{
 800285c:	b580      	push	{r7, lr}
 800285e:	af00      	add	r7, sp, #0
  /* USER CODE BEGIN TIM17_IRQn 0 */
	TSC2046_IM_HardwareManagerLoopHandler();
 8002860:	f003 fa26 	bl	8005cb0 <TSC2046_IM_HardwareManagerLoopHandler>
  /* USER CODE END TIM17_IRQn 0 */
  HAL_TIM_IRQHandler(&htim17);
 8002864:	4b03      	ldr	r3, [pc, #12]	; (8002874 <TIM17_IRQHandler+0x18>)
 8002866:	0018      	movs	r0, r3
 8002868:	f001 fddc 	bl	8004424 <HAL_TIM_IRQHandler>
  /* USER CODE BEGIN TIM17_IRQn 1 */

  /* USER CODE END TIM17_IRQn 1 */
}
 800286c:	46c0      	nop			; (mov r8, r8)
 800286e:	46bd      	mov	sp, r7
 8002870:	bd80      	pop	{r7, pc}
 8002872:	46c0      	nop			; (mov r8, r8)
 8002874:	20000320 	.word	0x20000320

08002878 <SystemInit>:
  * @brief  Setup the microcontroller system.
  * @param  None
  * @retval None
  */
void SystemInit(void)
{
 8002878:	b580      	push	{r7, lr}
 800287a:	af00      	add	r7, sp, #0
                         before branch to main program. This call is made inside
                         the "startup_stm32f0xx.s" file.
                         User can setups the default system clock (System clock source, PLL Multiplier
                         and Divider factors, AHB/APBx prescalers and Flash settings).
   */
}
 800287c:	46c0      	nop			; (mov r8, r8)
 800287e:	46bd      	mov	sp, r7
 8002880:	bd80      	pop	{r7, pc}
	...

08002884 <MX_TIM17_Init>:

TIM_HandleTypeDef htim17;

/* TIM17 init function */
void MX_TIM17_Init(void)
{
 8002884:	b580      	push	{r7, lr}
 8002886:	af00      	add	r7, sp, #0

  htim17.Instance = TIM17;
 8002888:	4b10      	ldr	r3, [pc, #64]	; (80028cc <MX_TIM17_Init+0x48>)
 800288a:	4a11      	ldr	r2, [pc, #68]	; (80028d0 <MX_TIM17_Init+0x4c>)
 800288c:	601a      	str	r2, [r3, #0]
  htim17.Init.Prescaler = 0;
 800288e:	4b0f      	ldr	r3, [pc, #60]	; (80028cc <MX_TIM17_Init+0x48>)
 8002890:	2200      	movs	r2, #0
 8002892:	605a      	str	r2, [r3, #4]
  htim17.Init.CounterMode = TIM_COUNTERMODE_UP;
 8002894:	4b0d      	ldr	r3, [pc, #52]	; (80028cc <MX_TIM17_Init+0x48>)
 8002896:	2200      	movs	r2, #0
 8002898:	609a      	str	r2, [r3, #8]
  htim17.Init.Period = 1024;
 800289a:	4b0c      	ldr	r3, [pc, #48]	; (80028cc <MX_TIM17_Init+0x48>)
 800289c:	2280      	movs	r2, #128	; 0x80
 800289e:	00d2      	lsls	r2, r2, #3
 80028a0:	60da      	str	r2, [r3, #12]
  htim17.Init.ClockDivision = TIM_CLOCKDIVISION_DIV1;
 80028a2:	4b0a      	ldr	r3, [pc, #40]	; (80028cc <MX_TIM17_Init+0x48>)
 80028a4:	2200      	movs	r2, #0
 80028a6:	611a      	str	r2, [r3, #16]
  htim17.Init.RepetitionCounter = 0;
 80028a8:	4b08      	ldr	r3, [pc, #32]	; (80028cc <MX_TIM17_Init+0x48>)
 80028aa:	2200      	movs	r2, #0
 80028ac:	615a      	str	r2, [r3, #20]
  htim17.Init.AutoReloadPreload = TIM_AUTORELOAD_PRELOAD_DISABLE;
 80028ae:	4b07      	ldr	r3, [pc, #28]	; (80028cc <MX_TIM17_Init+0x48>)
 80028b0:	2200      	movs	r2, #0
 80028b2:	619a      	str	r2, [r3, #24]
  if (HAL_TIM_Base_Init(&htim17) != HAL_OK)
 80028b4:	4b05      	ldr	r3, [pc, #20]	; (80028cc <MX_TIM17_Init+0x48>)
 80028b6:	0018      	movs	r0, r3
 80028b8:	f001 fd88 	bl	80043cc <HAL_TIM_Base_Init>
 80028bc:	1e03      	subs	r3, r0, #0
 80028be:	d001      	beq.n	80028c4 <MX_TIM17_Init+0x40>
  {
    Error_Handler();
 80028c0:	f7ff fe79 	bl	80025b6 <Error_Handler>
  }

}
 80028c4:	46c0      	nop			; (mov r8, r8)
 80028c6:	46bd      	mov	sp, r7
 80028c8:	bd80      	pop	{r7, pc}
 80028ca:	46c0      	nop			; (mov r8, r8)
 80028cc:	20000320 	.word	0x20000320
 80028d0:	40014800 	.word	0x40014800

080028d4 <HAL_TIM_Base_MspInit>:

void HAL_TIM_Base_MspInit(TIM_HandleTypeDef* tim_baseHandle)
{
 80028d4:	b580      	push	{r7, lr}
 80028d6:	b084      	sub	sp, #16
 80028d8:	af00      	add	r7, sp, #0
 80028da:	6078      	str	r0, [r7, #4]

  if(tim_baseHandle->Instance==TIM17)
 80028dc:	687b      	ldr	r3, [r7, #4]
 80028de:	681b      	ldr	r3, [r3, #0]
 80028e0:	4a0e      	ldr	r2, [pc, #56]	; (800291c <HAL_TIM_Base_MspInit+0x48>)
 80028e2:	4293      	cmp	r3, r2
 80028e4:	d115      	bne.n	8002912 <HAL_TIM_Base_MspInit+0x3e>
  {
  /* USER CODE BEGIN TIM17_MspInit 0 */

  /* USER CODE END TIM17_MspInit 0 */
    /* TIM17 clock enable */
    __HAL_RCC_TIM17_CLK_ENABLE();
 80028e6:	4b0e      	ldr	r3, [pc, #56]	; (8002920 <HAL_TIM_Base_MspInit+0x4c>)
 80028e8:	699a      	ldr	r2, [r3, #24]
 80028ea:	4b0d      	ldr	r3, [pc, #52]	; (8002920 <HAL_TIM_Base_MspInit+0x4c>)
 80028ec:	2180      	movs	r1, #128	; 0x80
 80028ee:	02c9      	lsls	r1, r1, #11
 80028f0:	430a      	orrs	r2, r1
 80028f2:	619a      	str	r2, [r3, #24]
 80028f4:	4b0a      	ldr	r3, [pc, #40]	; (8002920 <HAL_TIM_Base_MspInit+0x4c>)
 80028f6:	699a      	ldr	r2, [r3, #24]
 80028f8:	2380      	movs	r3, #128	; 0x80
 80028fa:	02db      	lsls	r3, r3, #11
 80028fc:	4013      	ands	r3, r2
 80028fe:	60fb      	str	r3, [r7, #12]
 8002900:	68fb      	ldr	r3, [r7, #12]

    /* TIM17 interrupt Init */
    HAL_NVIC_SetPriority(TIM17_IRQn, 0, 0);
 8002902:	2200      	movs	r2, #0
 8002904:	2100      	movs	r1, #0
 8002906:	2016      	movs	r0, #22
 8002908:	f000 fdc2 	bl	8003490 <HAL_NVIC_SetPriority>
    HAL_NVIC_EnableIRQ(TIM17_IRQn);
 800290c:	2016      	movs	r0, #22
 800290e:	f000 fdd4 	bl	80034ba <HAL_NVIC_EnableIRQ>
  /* USER CODE BEGIN TIM17_MspInit 1 */

  /* USER CODE END TIM17_MspInit 1 */
  }
}
 8002912:	46c0      	nop			; (mov r8, r8)
 8002914:	46bd      	mov	sp, r7
 8002916:	b004      	add	sp, #16
 8002918:	bd80      	pop	{r7, pc}
 800291a:	46c0      	nop			; (mov r8, r8)
 800291c:	40014800 	.word	0x40014800
 8002920:	40021000 	.word	0x40021000

08002924 <Reset_Handler>:

  .section .text.Reset_Handler
  .weak Reset_Handler
  .type Reset_Handler, %function
Reset_Handler:
  ldr   r0, =_estack
 8002924:	480d      	ldr	r0, [pc, #52]	; (800295c <LoopForever+0x2>)
  mov   sp, r0          /* set stack pointer */
 8002926:	4685      	mov	sp, r0

/* Copy the data segment initializers from flash to SRAM */
  ldr r0, =_sdata
 8002928:	480d      	ldr	r0, [pc, #52]	; (8002960 <LoopForever+0x6>)
  ldr r1, =_edata
 800292a:	490e      	ldr	r1, [pc, #56]	; (8002964 <LoopForever+0xa>)
  ldr r2, =_sidata
 800292c:	4a0e      	ldr	r2, [pc, #56]	; (8002968 <LoopForever+0xe>)
  movs r3, #0
 800292e:	2300      	movs	r3, #0
  b LoopCopyDataInit
 8002930:	e002      	b.n	8002938 <LoopCopyDataInit>

08002932 <CopyDataInit>:

CopyDataInit:
  ldr r4, [r2, r3]
 8002932:	58d4      	ldr	r4, [r2, r3]
  str r4, [r0, r3]
 8002934:	50c4      	str	r4, [r0, r3]
  adds r3, r3, #4
 8002936:	3304      	adds	r3, #4

08002938 <LoopCopyDataInit>:

LoopCopyDataInit:
  adds r4, r0, r3
 8002938:	18c4      	adds	r4, r0, r3
  cmp r4, r1
 800293a:	428c      	cmp	r4, r1
  bcc CopyDataInit
 800293c:	d3f9      	bcc.n	8002932 <CopyDataInit>
  
/* Zero fill the bss segment. */
  ldr r2, =_sbss
 800293e:	4a0b      	ldr	r2, [pc, #44]	; (800296c <LoopForever+0x12>)
  ldr r4, =_ebss
 8002940:	4c0b      	ldr	r4, [pc, #44]	; (8002970 <LoopForever+0x16>)
  movs r3, #0
 8002942:	2300      	movs	r3, #0
  b LoopFillZerobss
 8002944:	e001      	b.n	800294a <LoopFillZerobss>

08002946 <FillZerobss>:

FillZerobss:
  str  r3, [r2]
 8002946:	6013      	str	r3, [r2, #0]
  adds r2, r2, #4
 8002948:	3204      	adds	r2, #4

0800294a <LoopFillZerobss>:

LoopFillZerobss:
  cmp r2, r4
 800294a:	42a2      	cmp	r2, r4
  bcc FillZerobss
 800294c:	d3fb      	bcc.n	8002946 <FillZerobss>

/* Call the clock system intitialization function.*/
  bl  SystemInit
 800294e:	f7ff ff93 	bl	8002878 <SystemInit>
/* Call static constructors */
  bl __libc_init_array
 8002952:	f003 facd 	bl	8005ef0 <__libc_init_array>
/* Call the application's entry point.*/
  bl main
 8002956:	f7ff fdb7 	bl	80024c8 <main>

0800295a <LoopForever>:

LoopForever:
    b LoopForever
 800295a:	e7fe      	b.n	800295a <LoopForever>
  ldr   r0, =_estack
 800295c:	20004000 	.word	0x20004000
  ldr r0, =_sdata
 8002960:	20000000 	.word	0x20000000
  ldr r1, =_edata
 8002964:	200001e0 	.word	0x200001e0
  ldr r2, =_sidata
 8002968:	08008670 	.word	0x08008670
  ldr r2, =_sbss
 800296c:	200001e0 	.word	0x200001e0
  ldr r4, =_ebss
 8002970:	2000036c 	.word	0x2000036c

08002974 <ADC1_COMP_IRQHandler>:
 * @retval : None
*/
    .section .text.Default_Handler,"ax",%progbits
Default_Handler:
Infinite_Loop:
  b Infinite_Loop
 8002974:	e7fe      	b.n	8002974 <ADC1_COMP_IRQHandler>
	...

08002978 <HAL_Init>:
  *       In the default implementation,Systick is used as source of time base.
  *       The tick variable is incremented each 1ms in its ISR.
  * @retval HAL status
  */
HAL_StatusTypeDef HAL_Init(void)
{
 8002978:	b580      	push	{r7, lr}
 800297a:	af00      	add	r7, sp, #0
  /* Configure Flash prefetch */ 
#if (PREFETCH_ENABLE != 0)
  __HAL_FLASH_PREFETCH_BUFFER_ENABLE();
 800297c:	4b07      	ldr	r3, [pc, #28]	; (800299c <HAL_Init+0x24>)
 800297e:	681a      	ldr	r2, [r3, #0]
 8002980:	4b06      	ldr	r3, [pc, #24]	; (800299c <HAL_Init+0x24>)
 8002982:	2110      	movs	r1, #16
 8002984:	430a      	orrs	r2, r1
 8002986:	601a      	str	r2, [r3, #0]
#endif /* PREFETCH_ENABLE */

  /* Use systick as time base source and configure 1ms tick (default clock after Reset is HSI) */

  HAL_InitTick(TICK_INT_PRIORITY);
 8002988:	2000      	movs	r0, #0
 800298a:	f000 f809 	bl	80029a0 <HAL_InitTick>

  /* Init the low level hardware */
  HAL_MspInit();
 800298e:	f7ff ff1d 	bl	80027cc <HAL_MspInit>

  /* Return function status */
  return HAL_OK;
 8002992:	2300      	movs	r3, #0
}
 8002994:	0018      	movs	r0, r3
 8002996:	46bd      	mov	sp, r7
 8002998:	bd80      	pop	{r7, pc}
 800299a:	46c0      	nop			; (mov r8, r8)
 800299c:	40022000 	.word	0x40022000

080029a0 <HAL_InitTick>:
  *       implementation  in user file.
  * @param TickPriority Tick interrupt priority.
  * @retval HAL status
  */
__weak HAL_StatusTypeDef HAL_InitTick(uint32_t TickPriority)
{
 80029a0:	b590      	push	{r4, r7, lr}
 80029a2:	b083      	sub	sp, #12
 80029a4:	af00      	add	r7, sp, #0
 80029a6:	6078      	str	r0, [r7, #4]
  /*Configure the SysTick to have interrupt in 1ms time basis*/
  if (HAL_SYSTICK_Config(SystemCoreClock / (1000U / uwTickFreq)) > 0U)
 80029a8:	4b14      	ldr	r3, [pc, #80]	; (80029fc <HAL_InitTick+0x5c>)
 80029aa:	681c      	ldr	r4, [r3, #0]
 80029ac:	4b14      	ldr	r3, [pc, #80]	; (8002a00 <HAL_InitTick+0x60>)
 80029ae:	781b      	ldrb	r3, [r3, #0]
 80029b0:	0019      	movs	r1, r3
 80029b2:	23fa      	movs	r3, #250	; 0xfa
 80029b4:	0098      	lsls	r0, r3, #2
 80029b6:	f7fd fbb9 	bl	800012c <__udivsi3>
 80029ba:	0003      	movs	r3, r0
 80029bc:	0019      	movs	r1, r3
 80029be:	0020      	movs	r0, r4
 80029c0:	f7fd fbb4 	bl	800012c <__udivsi3>
 80029c4:	0003      	movs	r3, r0
 80029c6:	0018      	movs	r0, r3
 80029c8:	f000 fd87 	bl	80034da <HAL_SYSTICK_Config>
 80029cc:	1e03      	subs	r3, r0, #0
 80029ce:	d001      	beq.n	80029d4 <HAL_InitTick+0x34>
  {
    return HAL_ERROR;
 80029d0:	2301      	movs	r3, #1
 80029d2:	e00f      	b.n	80029f4 <HAL_InitTick+0x54>
  }

  /* Configure the SysTick IRQ priority */
  if (TickPriority < (1UL << __NVIC_PRIO_BITS))
 80029d4:	687b      	ldr	r3, [r7, #4]
 80029d6:	2b03      	cmp	r3, #3
 80029d8:	d80b      	bhi.n	80029f2 <HAL_InitTick+0x52>
  {
    HAL_NVIC_SetPriority(SysTick_IRQn, TickPriority, 0U);
 80029da:	6879      	ldr	r1, [r7, #4]
 80029dc:	2301      	movs	r3, #1
 80029de:	425b      	negs	r3, r3
 80029e0:	2200      	movs	r2, #0
 80029e2:	0018      	movs	r0, r3
 80029e4:	f000 fd54 	bl	8003490 <HAL_NVIC_SetPriority>
    uwTickPrio = TickPriority;
 80029e8:	4b06      	ldr	r3, [pc, #24]	; (8002a04 <HAL_InitTick+0x64>)
 80029ea:	687a      	ldr	r2, [r7, #4]
 80029ec:	601a      	str	r2, [r3, #0]
  {
    return HAL_ERROR;
  }

   /* Return function status */
  return HAL_OK;
 80029ee:	2300      	movs	r3, #0
 80029f0:	e000      	b.n	80029f4 <HAL_InitTick+0x54>
    return HAL_ERROR;
 80029f2:	2301      	movs	r3, #1
}
 80029f4:	0018      	movs	r0, r3
 80029f6:	46bd      	mov	sp, r7
 80029f8:	b003      	add	sp, #12
 80029fa:	bd90      	pop	{r4, r7, pc}
 80029fc:	20000000 	.word	0x20000000
 8002a00:	20000008 	.word	0x20000008
 8002a04:	20000004 	.word	0x20000004

08002a08 <HAL_IncTick>:
  * @note This function is declared as __weak to be overwritten in case of other 
  *       implementations in user file.
  * @retval None
  */
__weak void HAL_IncTick(void)
{
 8002a08:	b580      	push	{r7, lr}
 8002a0a:	af00      	add	r7, sp, #0
  uwTick += uwTickFreq;
 8002a0c:	4b05      	ldr	r3, [pc, #20]	; (8002a24 <HAL_IncTick+0x1c>)
 8002a0e:	781b      	ldrb	r3, [r3, #0]
 8002a10:	001a      	movs	r2, r3
 8002a12:	4b05      	ldr	r3, [pc, #20]	; (8002a28 <HAL_IncTick+0x20>)
 8002a14:	681b      	ldr	r3, [r3, #0]
 8002a16:	18d2      	adds	r2, r2, r3
 8002a18:	4b03      	ldr	r3, [pc, #12]	; (8002a28 <HAL_IncTick+0x20>)
 8002a1a:	601a      	str	r2, [r3, #0]
}
 8002a1c:	46c0      	nop			; (mov r8, r8)
 8002a1e:	46bd      	mov	sp, r7
 8002a20:	bd80      	pop	{r7, pc}
 8002a22:	46c0      	nop			; (mov r8, r8)
 8002a24:	20000008 	.word	0x20000008
 8002a28:	20000360 	.word	0x20000360

08002a2c <HAL_GetTick>:
  * @note   This function is declared as __weak  to be overwritten  in case of other 
  *       implementations in user file.
  * @retval tick value
  */
__weak uint32_t HAL_GetTick(void)
{
 8002a2c:	b580      	push	{r7, lr}
 8002a2e:	af00      	add	r7, sp, #0
  return uwTick;
 8002a30:	4b02      	ldr	r3, [pc, #8]	; (8002a3c <HAL_GetTick+0x10>)
 8002a32:	681b      	ldr	r3, [r3, #0]
}
 8002a34:	0018      	movs	r0, r3
 8002a36:	46bd      	mov	sp, r7
 8002a38:	bd80      	pop	{r7, pc}
 8002a3a:	46c0      	nop			; (mov r8, r8)
 8002a3c:	20000360 	.word	0x20000360

08002a40 <HAL_Delay>:
  *       implementations in user file.
  * @param Delay specifies the delay time length, in milliseconds.
  * @retval None
  */
__weak void HAL_Delay(uint32_t Delay)
{
 8002a40:	b580      	push	{r7, lr}
 8002a42:	b084      	sub	sp, #16
 8002a44:	af00      	add	r7, sp, #0
 8002a46:	6078      	str	r0, [r7, #4]
  uint32_t tickstart = HAL_GetTick();
 8002a48:	f7ff fff0 	bl	8002a2c <HAL_GetTick>
 8002a4c:	0003      	movs	r3, r0
 8002a4e:	60bb      	str	r3, [r7, #8]
  uint32_t wait = Delay;
 8002a50:	687b      	ldr	r3, [r7, #4]
 8002a52:	60fb      	str	r3, [r7, #12]
  
  /* Add a freq to guarantee minimum wait */
  if (wait < HAL_MAX_DELAY)
 8002a54:	68fb      	ldr	r3, [r7, #12]
 8002a56:	3301      	adds	r3, #1
 8002a58:	d005      	beq.n	8002a66 <HAL_Delay+0x26>
  {
    wait += (uint32_t)(uwTickFreq);
 8002a5a:	4b09      	ldr	r3, [pc, #36]	; (8002a80 <HAL_Delay+0x40>)
 8002a5c:	781b      	ldrb	r3, [r3, #0]
 8002a5e:	001a      	movs	r2, r3
 8002a60:	68fb      	ldr	r3, [r7, #12]
 8002a62:	189b      	adds	r3, r3, r2
 8002a64:	60fb      	str	r3, [r7, #12]
  }
  
  while((HAL_GetTick() - tickstart) < wait)
 8002a66:	46c0      	nop			; (mov r8, r8)
 8002a68:	f7ff ffe0 	bl	8002a2c <HAL_GetTick>
 8002a6c:	0002      	movs	r2, r0
 8002a6e:	68bb      	ldr	r3, [r7, #8]
 8002a70:	1ad3      	subs	r3, r2, r3
 8002a72:	68fa      	ldr	r2, [r7, #12]
 8002a74:	429a      	cmp	r2, r3
 8002a76:	d8f7      	bhi.n	8002a68 <HAL_Delay+0x28>
  {
  }
}
 8002a78:	46c0      	nop			; (mov r8, r8)
 8002a7a:	46bd      	mov	sp, r7
 8002a7c:	b004      	add	sp, #16
 8002a7e:	bd80      	pop	{r7, pc}
 8002a80:	20000008 	.word	0x20000008

08002a84 <HAL_ADC_Init>:
  *         of structure "ADC_InitTypeDef".
  * @param  hadc ADC handle
  * @retval HAL status
  */
HAL_StatusTypeDef HAL_ADC_Init(ADC_HandleTypeDef* hadc)
{
 8002a84:	b580      	push	{r7, lr}
 8002a86:	b084      	sub	sp, #16
 8002a88:	af00      	add	r7, sp, #0
 8002a8a:	6078      	str	r0, [r7, #4]
  HAL_StatusTypeDef tmp_hal_status = HAL_OK;
 8002a8c:	230f      	movs	r3, #15
 8002a8e:	18fb      	adds	r3, r7, r3
 8002a90:	2200      	movs	r2, #0
 8002a92:	701a      	strb	r2, [r3, #0]
  uint32_t tmpCFGR1 = 0U;
 8002a94:	2300      	movs	r3, #0
 8002a96:	60bb      	str	r3, [r7, #8]

  /* Check ADC handle */
  if(hadc == NULL)
 8002a98:	687b      	ldr	r3, [r7, #4]
 8002a9a:	2b00      	cmp	r3, #0
 8002a9c:	d101      	bne.n	8002aa2 <HAL_ADC_Init+0x1e>
  {
    return HAL_ERROR;
 8002a9e:	2301      	movs	r3, #1
 8002aa0:	e125      	b.n	8002cee <HAL_ADC_Init+0x26a>
  /* Refer to header of this file for more details on clock enabling procedure*/
  
  /* Actions performed only if ADC is coming from state reset:                */
  /* - Initialization of ADC MSP                                              */
  /* - ADC voltage regulator enable                                           */
  if (hadc->State == HAL_ADC_STATE_RESET)
 8002aa2:	687b      	ldr	r3, [r7, #4]
 8002aa4:	6b9b      	ldr	r3, [r3, #56]	; 0x38
 8002aa6:	2b00      	cmp	r3, #0
 8002aa8:	d10a      	bne.n	8002ac0 <HAL_ADC_Init+0x3c>
  {
    /* Initialize ADC error code */
    ADC_CLEAR_ERRORCODE(hadc);
 8002aaa:	687b      	ldr	r3, [r7, #4]
 8002aac:	2200      	movs	r2, #0
 8002aae:	63da      	str	r2, [r3, #60]	; 0x3c
    
    /* Allocate lock resource and initialize it */
    hadc->Lock = HAL_UNLOCKED;
 8002ab0:	687b      	ldr	r3, [r7, #4]
 8002ab2:	2234      	movs	r2, #52	; 0x34
 8002ab4:	2100      	movs	r1, #0
 8002ab6:	5499      	strb	r1, [r3, r2]
    
    /* Init the low level hardware */
    hadc->MspInitCallback(hadc);
#else
    /* Init the low level hardware */
    HAL_ADC_MspInit(hadc);
 8002ab8:	687b      	ldr	r3, [r7, #4]
 8002aba:	0018      	movs	r0, r3
 8002abc:	f7ff fc18 	bl	80022f0 <HAL_ADC_MspInit>
  /* Configuration of ADC parameters if previous preliminary actions are      */ 
  /* correctly completed.                                                     */
  /* and if there is no conversion on going on regular group (ADC can be      */ 
  /* enabled anyway, in case of call of this function to update a parameter   */
  /* on the fly).                                                             */
  if (HAL_IS_BIT_CLR(hadc->State, HAL_ADC_STATE_ERROR_INTERNAL) &&
 8002ac0:	687b      	ldr	r3, [r7, #4]
 8002ac2:	6b9b      	ldr	r3, [r3, #56]	; 0x38
 8002ac4:	2210      	movs	r2, #16
 8002ac6:	4013      	ands	r3, r2
 8002ac8:	d000      	beq.n	8002acc <HAL_ADC_Init+0x48>
 8002aca:	e103      	b.n	8002cd4 <HAL_ADC_Init+0x250>
 8002acc:	230f      	movs	r3, #15
 8002ace:	18fb      	adds	r3, r7, r3
 8002ad0:	781b      	ldrb	r3, [r3, #0]
 8002ad2:	2b00      	cmp	r3, #0
 8002ad4:	d000      	beq.n	8002ad8 <HAL_ADC_Init+0x54>
 8002ad6:	e0fd      	b.n	8002cd4 <HAL_ADC_Init+0x250>
      (tmp_hal_status == HAL_OK)                                &&
      (ADC_IS_CONVERSION_ONGOING_REGULAR(hadc) == RESET)          )
 8002ad8:	687b      	ldr	r3, [r7, #4]
 8002ada:	681b      	ldr	r3, [r3, #0]
 8002adc:	689b      	ldr	r3, [r3, #8]
 8002ade:	2204      	movs	r2, #4
 8002ae0:	4013      	ands	r3, r2
      (tmp_hal_status == HAL_OK)                                &&
 8002ae2:	d000      	beq.n	8002ae6 <HAL_ADC_Init+0x62>
 8002ae4:	e0f6      	b.n	8002cd4 <HAL_ADC_Init+0x250>
  {
    /* Set ADC state */
    ADC_STATE_CLR_SET(hadc->State,
 8002ae6:	687b      	ldr	r3, [r7, #4]
 8002ae8:	6b9b      	ldr	r3, [r3, #56]	; 0x38
 8002aea:	4a83      	ldr	r2, [pc, #524]	; (8002cf8 <HAL_ADC_Init+0x274>)
 8002aec:	4013      	ands	r3, r2
 8002aee:	2202      	movs	r2, #2
 8002af0:	431a      	orrs	r2, r3
 8002af2:	687b      	ldr	r3, [r7, #4]
 8002af4:	639a      	str	r2, [r3, #56]	; 0x38
    /* Parameters update conditioned to ADC state:                            */
    /* Parameters that can be updated only when ADC is disabled:              */
    /*  - ADC clock mode                                                      */
    /*  - ADC clock prescaler                                                 */
    /*  - ADC resolution                                                      */
    if (ADC_IS_ENABLE(hadc) == RESET)
 8002af6:	687b      	ldr	r3, [r7, #4]
 8002af8:	681b      	ldr	r3, [r3, #0]
 8002afa:	689b      	ldr	r3, [r3, #8]
 8002afc:	2203      	movs	r2, #3
 8002afe:	4013      	ands	r3, r2
 8002b00:	2b01      	cmp	r3, #1
 8002b02:	d112      	bne.n	8002b2a <HAL_ADC_Init+0xa6>
 8002b04:	687b      	ldr	r3, [r7, #4]
 8002b06:	681b      	ldr	r3, [r3, #0]
 8002b08:	681b      	ldr	r3, [r3, #0]
 8002b0a:	2201      	movs	r2, #1
 8002b0c:	4013      	ands	r3, r2
 8002b0e:	2b01      	cmp	r3, #1
 8002b10:	d009      	beq.n	8002b26 <HAL_ADC_Init+0xa2>
 8002b12:	687b      	ldr	r3, [r7, #4]
 8002b14:	681b      	ldr	r3, [r3, #0]
 8002b16:	68da      	ldr	r2, [r3, #12]
 8002b18:	2380      	movs	r3, #128	; 0x80
 8002b1a:	021b      	lsls	r3, r3, #8
 8002b1c:	401a      	ands	r2, r3
 8002b1e:	2380      	movs	r3, #128	; 0x80
 8002b20:	021b      	lsls	r3, r3, #8
 8002b22:	429a      	cmp	r2, r3
 8002b24:	d101      	bne.n	8002b2a <HAL_ADC_Init+0xa6>
 8002b26:	2301      	movs	r3, #1
 8002b28:	e000      	b.n	8002b2c <HAL_ADC_Init+0xa8>
 8002b2a:	2300      	movs	r3, #0
 8002b2c:	2b00      	cmp	r3, #0
 8002b2e:	d116      	bne.n	8002b5e <HAL_ADC_Init+0xda>
      /* parameters):                                                         */
      /*   - internal measurement paths: Vbat, temperature sensor, Vref       */
      /*     (set into HAL_ADC_ConfigChannel() )                              */
     
      /* Configuration of ADC resolution                                      */
      MODIFY_REG(hadc->Instance->CFGR1,
 8002b30:	687b      	ldr	r3, [r7, #4]
 8002b32:	681b      	ldr	r3, [r3, #0]
 8002b34:	68db      	ldr	r3, [r3, #12]
 8002b36:	2218      	movs	r2, #24
 8002b38:	4393      	bics	r3, r2
 8002b3a:	0019      	movs	r1, r3
 8002b3c:	687b      	ldr	r3, [r7, #4]
 8002b3e:	689a      	ldr	r2, [r3, #8]
 8002b40:	687b      	ldr	r3, [r7, #4]
 8002b42:	681b      	ldr	r3, [r3, #0]
 8002b44:	430a      	orrs	r2, r1
 8002b46:	60da      	str	r2, [r3, #12]
                 ADC_CFGR1_RES        ,
                 hadc->Init.Resolution );
      
      /* Configuration of ADC clock mode: clock source AHB or HSI with        */
      /* selectable prescaler                                                 */
      MODIFY_REG(hadc->Instance->CFGR2    ,
 8002b48:	687b      	ldr	r3, [r7, #4]
 8002b4a:	681b      	ldr	r3, [r3, #0]
 8002b4c:	691b      	ldr	r3, [r3, #16]
 8002b4e:	009b      	lsls	r3, r3, #2
 8002b50:	0899      	lsrs	r1, r3, #2
 8002b52:	687b      	ldr	r3, [r7, #4]
 8002b54:	685a      	ldr	r2, [r3, #4]
 8002b56:	687b      	ldr	r3, [r7, #4]
 8002b58:	681b      	ldr	r3, [r3, #0]
 8002b5a:	430a      	orrs	r2, r1
 8002b5c:	611a      	str	r2, [r3, #16]
    /*  - external trigger polarity                                           */
    /*  - data alignment                                                      */
    /*  - resolution                                                          */
    /*  - scan direction                                                      */
    /*  - DMA continuous request                                              */
    hadc->Instance->CFGR1 &= ~( ADC_CFGR1_DISCEN  |
 8002b5e:	687b      	ldr	r3, [r7, #4]
 8002b60:	681b      	ldr	r3, [r3, #0]
 8002b62:	68da      	ldr	r2, [r3, #12]
 8002b64:	687b      	ldr	r3, [r7, #4]
 8002b66:	681b      	ldr	r3, [r3, #0]
 8002b68:	4964      	ldr	r1, [pc, #400]	; (8002cfc <HAL_ADC_Init+0x278>)
 8002b6a:	400a      	ands	r2, r1
 8002b6c:	60da      	str	r2, [r3, #12]
                                ADC_CFGR1_EXTEN   |
                                ADC_CFGR1_ALIGN   |
                                ADC_CFGR1_SCANDIR |
                                ADC_CFGR1_DMACFG   );

    tmpCFGR1 |= (ADC_CFGR1_AUTOWAIT((uint32_t)hadc->Init.LowPowerAutoWait)        |
 8002b6e:	687b      	ldr	r3, [r7, #4]
 8002b70:	7e1b      	ldrb	r3, [r3, #24]
 8002b72:	039a      	lsls	r2, r3, #14
                 ADC_CFGR1_AUTOOFF((uint32_t)hadc->Init.LowPowerAutoPowerOff)     |
 8002b74:	687b      	ldr	r3, [r7, #4]
 8002b76:	7e5b      	ldrb	r3, [r3, #25]
 8002b78:	03db      	lsls	r3, r3, #15
    tmpCFGR1 |= (ADC_CFGR1_AUTOWAIT((uint32_t)hadc->Init.LowPowerAutoWait)        |
 8002b7a:	431a      	orrs	r2, r3
                 ADC_CFGR1_CONTINUOUS((uint32_t)hadc->Init.ContinuousConvMode)    |
 8002b7c:	687b      	ldr	r3, [r7, #4]
 8002b7e:	7e9b      	ldrb	r3, [r3, #26]
 8002b80:	035b      	lsls	r3, r3, #13
                 ADC_CFGR1_AUTOOFF((uint32_t)hadc->Init.LowPowerAutoPowerOff)     |
 8002b82:	431a      	orrs	r2, r3
                 ADC_CFGR1_OVERRUN(hadc->Init.Overrun)                            |
 8002b84:	687b      	ldr	r3, [r7, #4]
 8002b86:	6a9b      	ldr	r3, [r3, #40]	; 0x28
 8002b88:	2b01      	cmp	r3, #1
 8002b8a:	d002      	beq.n	8002b92 <HAL_ADC_Init+0x10e>
 8002b8c:	2380      	movs	r3, #128	; 0x80
 8002b8e:	015b      	lsls	r3, r3, #5
 8002b90:	e000      	b.n	8002b94 <HAL_ADC_Init+0x110>
 8002b92:	2300      	movs	r3, #0
                 ADC_CFGR1_CONTINUOUS((uint32_t)hadc->Init.ContinuousConvMode)    |
 8002b94:	431a      	orrs	r2, r3
                 hadc->Init.DataAlign                                             |
 8002b96:	687b      	ldr	r3, [r7, #4]
 8002b98:	68db      	ldr	r3, [r3, #12]
                 ADC_CFGR1_OVERRUN(hadc->Init.Overrun)                            |
 8002b9a:	431a      	orrs	r2, r3
                 ADC_SCANDIR(hadc->Init.ScanConvMode)                             |
 8002b9c:	687b      	ldr	r3, [r7, #4]
 8002b9e:	691b      	ldr	r3, [r3, #16]
 8002ba0:	2b02      	cmp	r3, #2
 8002ba2:	d101      	bne.n	8002ba8 <HAL_ADC_Init+0x124>
 8002ba4:	2304      	movs	r3, #4
 8002ba6:	e000      	b.n	8002baa <HAL_ADC_Init+0x126>
 8002ba8:	2300      	movs	r3, #0
                 hadc->Init.DataAlign                                             |
 8002baa:	431a      	orrs	r2, r3
                 ADC_CFGR1_DMACONTREQ((uint32_t)hadc->Init.DMAContinuousRequests)  );
 8002bac:	687b      	ldr	r3, [r7, #4]
 8002bae:	2124      	movs	r1, #36	; 0x24
 8002bb0:	5c5b      	ldrb	r3, [r3, r1]
 8002bb2:	005b      	lsls	r3, r3, #1
                 ADC_SCANDIR(hadc->Init.ScanConvMode)                             |
 8002bb4:	4313      	orrs	r3, r2
    tmpCFGR1 |= (ADC_CFGR1_AUTOWAIT((uint32_t)hadc->Init.LowPowerAutoWait)        |
 8002bb6:	68ba      	ldr	r2, [r7, #8]
 8002bb8:	4313      	orrs	r3, r2
 8002bba:	60bb      	str	r3, [r7, #8]
    
    /* Enable discontinuous mode only if continuous mode is disabled */
    if (hadc->Init.DiscontinuousConvMode == ENABLE)
 8002bbc:	687b      	ldr	r3, [r7, #4]
 8002bbe:	7edb      	ldrb	r3, [r3, #27]
 8002bc0:	2b01      	cmp	r3, #1
 8002bc2:	d115      	bne.n	8002bf0 <HAL_ADC_Init+0x16c>
    {
      if (hadc->Init.ContinuousConvMode == DISABLE)
 8002bc4:	687b      	ldr	r3, [r7, #4]
 8002bc6:	7e9b      	ldrb	r3, [r3, #26]
 8002bc8:	2b00      	cmp	r3, #0
 8002bca:	d105      	bne.n	8002bd8 <HAL_ADC_Init+0x154>
      {
        /* Enable the selected ADC group regular discontinuous mode */
        tmpCFGR1 |= ADC_CFGR1_DISCEN;
 8002bcc:	68bb      	ldr	r3, [r7, #8]
 8002bce:	2280      	movs	r2, #128	; 0x80
 8002bd0:	0252      	lsls	r2, r2, #9
 8002bd2:	4313      	orrs	r3, r2
 8002bd4:	60bb      	str	r3, [r7, #8]
 8002bd6:	e00b      	b.n	8002bf0 <HAL_ADC_Init+0x16c>
        /* ADC regular group discontinuous was intended to be enabled,        */
        /* but ADC regular group modes continuous and sequencer discontinuous */
        /* cannot be enabled simultaneously.                                  */
        
        /* Update ADC state machine to error */
        SET_BIT(hadc->State, HAL_ADC_STATE_ERROR_CONFIG);
 8002bd8:	687b      	ldr	r3, [r7, #4]
 8002bda:	6b9b      	ldr	r3, [r3, #56]	; 0x38
 8002bdc:	2220      	movs	r2, #32
 8002bde:	431a      	orrs	r2, r3
 8002be0:	687b      	ldr	r3, [r7, #4]
 8002be2:	639a      	str	r2, [r3, #56]	; 0x38
        
        /* Set ADC error code to ADC IP internal error */
        SET_BIT(hadc->ErrorCode, HAL_ADC_ERROR_INTERNAL);
 8002be4:	687b      	ldr	r3, [r7, #4]
 8002be6:	6bdb      	ldr	r3, [r3, #60]	; 0x3c
 8002be8:	2201      	movs	r2, #1
 8002bea:	431a      	orrs	r2, r3
 8002bec:	687b      	ldr	r3, [r7, #4]
 8002bee:	63da      	str	r2, [r3, #60]	; 0x3c
    /* Enable external trigger if trigger selection is different of software  */
    /* start.                                                                 */
    /* Note: This configuration keeps the hardware feature of parameter       */
    /*       ExternalTrigConvEdge "trigger edge none" equivalent to           */
    /*       software start.                                                  */
    if (hadc->Init.ExternalTrigConv != ADC_SOFTWARE_START)
 8002bf0:	687b      	ldr	r3, [r7, #4]
 8002bf2:	69da      	ldr	r2, [r3, #28]
 8002bf4:	23c2      	movs	r3, #194	; 0xc2
 8002bf6:	33ff      	adds	r3, #255	; 0xff
 8002bf8:	429a      	cmp	r2, r3
 8002bfa:	d007      	beq.n	8002c0c <HAL_ADC_Init+0x188>
    {
      tmpCFGR1 |= ( hadc->Init.ExternalTrigConv    |
 8002bfc:	687b      	ldr	r3, [r7, #4]
 8002bfe:	69da      	ldr	r2, [r3, #28]
                    hadc->Init.ExternalTrigConvEdge );
 8002c00:	687b      	ldr	r3, [r7, #4]
 8002c02:	6a1b      	ldr	r3, [r3, #32]
      tmpCFGR1 |= ( hadc->Init.ExternalTrigConv    |
 8002c04:	4313      	orrs	r3, r2
 8002c06:	68ba      	ldr	r2, [r7, #8]
 8002c08:	4313      	orrs	r3, r2
 8002c0a:	60bb      	str	r3, [r7, #8]
    }
    
    /* Update ADC configuration register with previous settings */
    hadc->Instance->CFGR1 |= tmpCFGR1;
 8002c0c:	687b      	ldr	r3, [r7, #4]
 8002c0e:	681b      	ldr	r3, [r3, #0]
 8002c10:	68d9      	ldr	r1, [r3, #12]
 8002c12:	687b      	ldr	r3, [r7, #4]
 8002c14:	681b      	ldr	r3, [r3, #0]
 8002c16:	68ba      	ldr	r2, [r7, #8]
 8002c18:	430a      	orrs	r2, r1
 8002c1a:	60da      	str	r2, [r3, #12]
    /* Management of parameters "SamplingTimeCommon" and "SamplingTime"       */
    /* (obsolete): sampling time set in this function if parameter            */
    /*  "SamplingTimeCommon" has been set to a valid sampling time.           */
    /* Otherwise, sampling time is set into ADC channel initialization        */
    /* structure with parameter "SamplingTime" (obsolete).                    */
    if (IS_ADC_SAMPLE_TIME(hadc->Init.SamplingTimeCommon))
 8002c1c:	687b      	ldr	r3, [r7, #4]
 8002c1e:	6ada      	ldr	r2, [r3, #44]	; 0x2c
 8002c20:	2380      	movs	r3, #128	; 0x80
 8002c22:	055b      	lsls	r3, r3, #21
 8002c24:	429a      	cmp	r2, r3
 8002c26:	d01b      	beq.n	8002c60 <HAL_ADC_Init+0x1dc>
 8002c28:	687b      	ldr	r3, [r7, #4]
 8002c2a:	6adb      	ldr	r3, [r3, #44]	; 0x2c
 8002c2c:	2b01      	cmp	r3, #1
 8002c2e:	d017      	beq.n	8002c60 <HAL_ADC_Init+0x1dc>
 8002c30:	687b      	ldr	r3, [r7, #4]
 8002c32:	6adb      	ldr	r3, [r3, #44]	; 0x2c
 8002c34:	2b02      	cmp	r3, #2
 8002c36:	d013      	beq.n	8002c60 <HAL_ADC_Init+0x1dc>
 8002c38:	687b      	ldr	r3, [r7, #4]
 8002c3a:	6adb      	ldr	r3, [r3, #44]	; 0x2c
 8002c3c:	2b03      	cmp	r3, #3
 8002c3e:	d00f      	beq.n	8002c60 <HAL_ADC_Init+0x1dc>
 8002c40:	687b      	ldr	r3, [r7, #4]
 8002c42:	6adb      	ldr	r3, [r3, #44]	; 0x2c
 8002c44:	2b04      	cmp	r3, #4
 8002c46:	d00b      	beq.n	8002c60 <HAL_ADC_Init+0x1dc>
 8002c48:	687b      	ldr	r3, [r7, #4]
 8002c4a:	6adb      	ldr	r3, [r3, #44]	; 0x2c
 8002c4c:	2b05      	cmp	r3, #5
 8002c4e:	d007      	beq.n	8002c60 <HAL_ADC_Init+0x1dc>
 8002c50:	687b      	ldr	r3, [r7, #4]
 8002c52:	6adb      	ldr	r3, [r3, #44]	; 0x2c
 8002c54:	2b06      	cmp	r3, #6
 8002c56:	d003      	beq.n	8002c60 <HAL_ADC_Init+0x1dc>
 8002c58:	687b      	ldr	r3, [r7, #4]
 8002c5a:	6adb      	ldr	r3, [r3, #44]	; 0x2c
 8002c5c:	2b07      	cmp	r3, #7
 8002c5e:	d112      	bne.n	8002c86 <HAL_ADC_Init+0x202>
    {
      /* Channel sampling time configuration */
      /* Clear the old sample time */
      hadc->Instance->SMPR &= ~(ADC_SMPR_SMP);
 8002c60:	687b      	ldr	r3, [r7, #4]
 8002c62:	681b      	ldr	r3, [r3, #0]
 8002c64:	695a      	ldr	r2, [r3, #20]
 8002c66:	687b      	ldr	r3, [r7, #4]
 8002c68:	681b      	ldr	r3, [r3, #0]
 8002c6a:	2107      	movs	r1, #7
 8002c6c:	438a      	bics	r2, r1
 8002c6e:	615a      	str	r2, [r3, #20]
      
      /* Set the new sample time */
      hadc->Instance->SMPR |= ADC_SMPR_SET(hadc->Init.SamplingTimeCommon);
 8002c70:	687b      	ldr	r3, [r7, #4]
 8002c72:	681b      	ldr	r3, [r3, #0]
 8002c74:	6959      	ldr	r1, [r3, #20]
 8002c76:	687b      	ldr	r3, [r7, #4]
 8002c78:	6adb      	ldr	r3, [r3, #44]	; 0x2c
 8002c7a:	2207      	movs	r2, #7
 8002c7c:	401a      	ands	r2, r3
 8002c7e:	687b      	ldr	r3, [r7, #4]
 8002c80:	681b      	ldr	r3, [r3, #0]
 8002c82:	430a      	orrs	r2, r1
 8002c84:	615a      	str	r2, [r3, #20]
    /* Check back that ADC registers have effectively been configured to      */
    /* ensure of no potential problem of ADC core IP clocking.                */
    /* Check through register CFGR1 (excluding analog watchdog configuration: */
    /* set into separate dedicated function, and bits of ADC resolution set   */
    /* out of temporary variable 'tmpCFGR1').                                 */
    if ((hadc->Instance->CFGR1 & ~(ADC_CFGR1_AWDCH | ADC_CFGR1_AWDEN | ADC_CFGR1_AWDSGL | ADC_CFGR1_RES))
 8002c86:	687b      	ldr	r3, [r7, #4]
 8002c88:	681b      	ldr	r3, [r3, #0]
 8002c8a:	68db      	ldr	r3, [r3, #12]
 8002c8c:	4a1c      	ldr	r2, [pc, #112]	; (8002d00 <HAL_ADC_Init+0x27c>)
 8002c8e:	4013      	ands	r3, r2
 8002c90:	68ba      	ldr	r2, [r7, #8]
 8002c92:	429a      	cmp	r2, r3
 8002c94:	d10b      	bne.n	8002cae <HAL_ADC_Init+0x22a>
         == tmpCFGR1)
    {
      /* Set ADC error code to none */
      ADC_CLEAR_ERRORCODE(hadc);
 8002c96:	687b      	ldr	r3, [r7, #4]
 8002c98:	2200      	movs	r2, #0
 8002c9a:	63da      	str	r2, [r3, #60]	; 0x3c
      
      /* Set the ADC state */
      ADC_STATE_CLR_SET(hadc->State,
 8002c9c:	687b      	ldr	r3, [r7, #4]
 8002c9e:	6b9b      	ldr	r3, [r3, #56]	; 0x38
 8002ca0:	2203      	movs	r2, #3
 8002ca2:	4393      	bics	r3, r2
 8002ca4:	2201      	movs	r2, #1
 8002ca6:	431a      	orrs	r2, r3
 8002ca8:	687b      	ldr	r3, [r7, #4]
 8002caa:	639a      	str	r2, [r3, #56]	; 0x38
    if ((hadc->Instance->CFGR1 & ~(ADC_CFGR1_AWDCH | ADC_CFGR1_AWDEN | ADC_CFGR1_AWDSGL | ADC_CFGR1_RES))
 8002cac:	e01c      	b.n	8002ce8 <HAL_ADC_Init+0x264>
                        HAL_ADC_STATE_READY);
    }
    else
    {
      /* Update ADC state machine to error */
      ADC_STATE_CLR_SET(hadc->State,
 8002cae:	687b      	ldr	r3, [r7, #4]
 8002cb0:	6b9b      	ldr	r3, [r3, #56]	; 0x38
 8002cb2:	2212      	movs	r2, #18
 8002cb4:	4393      	bics	r3, r2
 8002cb6:	2210      	movs	r2, #16
 8002cb8:	431a      	orrs	r2, r3
 8002cba:	687b      	ldr	r3, [r7, #4]
 8002cbc:	639a      	str	r2, [r3, #56]	; 0x38
                        HAL_ADC_STATE_BUSY_INTERNAL,
                        HAL_ADC_STATE_ERROR_INTERNAL);
      
      /* Set ADC error code to ADC IP internal error */
      SET_BIT(hadc->ErrorCode, HAL_ADC_ERROR_INTERNAL);
 8002cbe:	687b      	ldr	r3, [r7, #4]
 8002cc0:	6bdb      	ldr	r3, [r3, #60]	; 0x3c
 8002cc2:	2201      	movs	r2, #1
 8002cc4:	431a      	orrs	r2, r3
 8002cc6:	687b      	ldr	r3, [r7, #4]
 8002cc8:	63da      	str	r2, [r3, #60]	; 0x3c
      
      tmp_hal_status = HAL_ERROR;
 8002cca:	230f      	movs	r3, #15
 8002ccc:	18fb      	adds	r3, r7, r3
 8002cce:	2201      	movs	r2, #1
 8002cd0:	701a      	strb	r2, [r3, #0]
    if ((hadc->Instance->CFGR1 & ~(ADC_CFGR1_AWDCH | ADC_CFGR1_AWDEN | ADC_CFGR1_AWDSGL | ADC_CFGR1_RES))
 8002cd2:	e009      	b.n	8002ce8 <HAL_ADC_Init+0x264>
  
  }
  else
  {
    /* Update ADC state machine to error */
    SET_BIT(hadc->State, HAL_ADC_STATE_ERROR_INTERNAL);
 8002cd4:	687b      	ldr	r3, [r7, #4]
 8002cd6:	6b9b      	ldr	r3, [r3, #56]	; 0x38
 8002cd8:	2210      	movs	r2, #16
 8002cda:	431a      	orrs	r2, r3
 8002cdc:	687b      	ldr	r3, [r7, #4]
 8002cde:	639a      	str	r2, [r3, #56]	; 0x38
        
    tmp_hal_status = HAL_ERROR;
 8002ce0:	230f      	movs	r3, #15
 8002ce2:	18fb      	adds	r3, r7, r3
 8002ce4:	2201      	movs	r2, #1
 8002ce6:	701a      	strb	r2, [r3, #0]
  }
  
  /* Return function status */
  return tmp_hal_status;
 8002ce8:	230f      	movs	r3, #15
 8002cea:	18fb      	adds	r3, r7, r3
 8002cec:	781b      	ldrb	r3, [r3, #0]
}
 8002cee:	0018      	movs	r0, r3
 8002cf0:	46bd      	mov	sp, r7
 8002cf2:	b004      	add	sp, #16
 8002cf4:	bd80      	pop	{r7, pc}
 8002cf6:	46c0      	nop			; (mov r8, r8)
 8002cf8:	fffffefd 	.word	0xfffffefd
 8002cfc:	fffe0219 	.word	0xfffe0219
 8002d00:	833fffe7 	.word	0x833fffe7

08002d04 <HAL_ADC_Start>:
  *         Interruptions enabled in this function: None.
  * @param  hadc ADC handle
  * @retval HAL status
  */
HAL_StatusTypeDef HAL_ADC_Start(ADC_HandleTypeDef* hadc)
{
 8002d04:	b590      	push	{r4, r7, lr}
 8002d06:	b085      	sub	sp, #20
 8002d08:	af00      	add	r7, sp, #0
 8002d0a:	6078      	str	r0, [r7, #4]
  HAL_StatusTypeDef tmp_hal_status = HAL_OK;
 8002d0c:	230f      	movs	r3, #15
 8002d0e:	18fb      	adds	r3, r7, r3
 8002d10:	2200      	movs	r2, #0
 8002d12:	701a      	strb	r2, [r3, #0]

  /* Check the parameters */
  assert_param(IS_ADC_ALL_INSTANCE(hadc->Instance));

  /* Perform ADC enable and conversion start if no conversion is on going */
  if (ADC_IS_CONVERSION_ONGOING_REGULAR(hadc) == RESET)
 8002d14:	687b      	ldr	r3, [r7, #4]
 8002d16:	681b      	ldr	r3, [r3, #0]
 8002d18:	689b      	ldr	r3, [r3, #8]
 8002d1a:	2204      	movs	r2, #4
 8002d1c:	4013      	ands	r3, r2
 8002d1e:	d138      	bne.n	8002d92 <HAL_ADC_Start+0x8e>
  {
    /* Process locked */
    __HAL_LOCK(hadc);
 8002d20:	687b      	ldr	r3, [r7, #4]
 8002d22:	2234      	movs	r2, #52	; 0x34
 8002d24:	5c9b      	ldrb	r3, [r3, r2]
 8002d26:	2b01      	cmp	r3, #1
 8002d28:	d101      	bne.n	8002d2e <HAL_ADC_Start+0x2a>
 8002d2a:	2302      	movs	r3, #2
 8002d2c:	e038      	b.n	8002da0 <HAL_ADC_Start+0x9c>
 8002d2e:	687b      	ldr	r3, [r7, #4]
 8002d30:	2234      	movs	r2, #52	; 0x34
 8002d32:	2101      	movs	r1, #1
 8002d34:	5499      	strb	r1, [r3, r2]
      
    /* Enable the ADC peripheral */
    /* If low power mode AutoPowerOff is enabled, power-on/off phases are     */
    /* performed automatically by hardware.                                   */
    if (hadc->Init.LowPowerAutoPowerOff != ENABLE)
 8002d36:	687b      	ldr	r3, [r7, #4]
 8002d38:	7e5b      	ldrb	r3, [r3, #25]
 8002d3a:	2b01      	cmp	r3, #1
 8002d3c:	d007      	beq.n	8002d4e <HAL_ADC_Start+0x4a>
    {
      tmp_hal_status = ADC_Enable(hadc);
 8002d3e:	230f      	movs	r3, #15
 8002d40:	18fc      	adds	r4, r7, r3
 8002d42:	687b      	ldr	r3, [r7, #4]
 8002d44:	0018      	movs	r0, r3
 8002d46:	f000 f9dd 	bl	8003104 <ADC_Enable>
 8002d4a:	0003      	movs	r3, r0
 8002d4c:	7023      	strb	r3, [r4, #0]
    }
    
    /* Start conversion if ADC is effectively enabled */
    if (tmp_hal_status == HAL_OK)
 8002d4e:	230f      	movs	r3, #15
 8002d50:	18fb      	adds	r3, r7, r3
 8002d52:	781b      	ldrb	r3, [r3, #0]
 8002d54:	2b00      	cmp	r3, #0
 8002d56:	d120      	bne.n	8002d9a <HAL_ADC_Start+0x96>
    {
      /* Set ADC state                                                        */
      /* - Clear state bitfield related to regular group conversion results   */
      /* - Set state bitfield related to regular operation                    */
      ADC_STATE_CLR_SET(hadc->State,
 8002d58:	687b      	ldr	r3, [r7, #4]
 8002d5a:	6b9b      	ldr	r3, [r3, #56]	; 0x38
 8002d5c:	4a12      	ldr	r2, [pc, #72]	; (8002da8 <HAL_ADC_Start+0xa4>)
 8002d5e:	4013      	ands	r3, r2
 8002d60:	2280      	movs	r2, #128	; 0x80
 8002d62:	0052      	lsls	r2, r2, #1
 8002d64:	431a      	orrs	r2, r3
 8002d66:	687b      	ldr	r3, [r7, #4]
 8002d68:	639a      	str	r2, [r3, #56]	; 0x38
                        HAL_ADC_STATE_READY | HAL_ADC_STATE_REG_EOC | HAL_ADC_STATE_REG_OVR | HAL_ADC_STATE_REG_EOSMP,
                        HAL_ADC_STATE_REG_BUSY);
      
      /* Reset ADC all error code fields */
      ADC_CLEAR_ERRORCODE(hadc);
 8002d6a:	687b      	ldr	r3, [r7, #4]
 8002d6c:	2200      	movs	r2, #0
 8002d6e:	63da      	str	r2, [r3, #60]	; 0x3c
      
      /* Process unlocked */
      /* Unlock before starting ADC conversions: in case of potential         */
      /* interruption, to let the process to ADC IRQ Handler.                 */
      __HAL_UNLOCK(hadc);
 8002d70:	687b      	ldr	r3, [r7, #4]
 8002d72:	2234      	movs	r2, #52	; 0x34
 8002d74:	2100      	movs	r1, #0
 8002d76:	5499      	strb	r1, [r3, r2]
      
      /* Clear regular group conversion flag and overrun flag */
      /* (To ensure of no unknown state from potential previous ADC           */
      /* operations)                                                          */
      __HAL_ADC_CLEAR_FLAG(hadc, (ADC_FLAG_EOC | ADC_FLAG_EOS | ADC_FLAG_OVR));
 8002d78:	687b      	ldr	r3, [r7, #4]
 8002d7a:	681b      	ldr	r3, [r3, #0]
 8002d7c:	221c      	movs	r2, #28
 8002d7e:	601a      	str	r2, [r3, #0]
      
      /* Enable conversion of regular group.                                  */
      /* If software start has been selected, conversion starts immediately.  */
      /* If external trigger has been selected, conversion will start at next */
      /* trigger event.                                                       */
      hadc->Instance->CR |= ADC_CR_ADSTART;
 8002d80:	687b      	ldr	r3, [r7, #4]
 8002d82:	681b      	ldr	r3, [r3, #0]
 8002d84:	689a      	ldr	r2, [r3, #8]
 8002d86:	687b      	ldr	r3, [r7, #4]
 8002d88:	681b      	ldr	r3, [r3, #0]
 8002d8a:	2104      	movs	r1, #4
 8002d8c:	430a      	orrs	r2, r1
 8002d8e:	609a      	str	r2, [r3, #8]
 8002d90:	e003      	b.n	8002d9a <HAL_ADC_Start+0x96>
    }
  }
  else
  {
    tmp_hal_status = HAL_BUSY;
 8002d92:	230f      	movs	r3, #15
 8002d94:	18fb      	adds	r3, r7, r3
 8002d96:	2202      	movs	r2, #2
 8002d98:	701a      	strb	r2, [r3, #0]
  }
  
  /* Return function status */
  return tmp_hal_status;
 8002d9a:	230f      	movs	r3, #15
 8002d9c:	18fb      	adds	r3, r7, r3
 8002d9e:	781b      	ldrb	r3, [r3, #0]
}
 8002da0:	0018      	movs	r0, r3
 8002da2:	46bd      	mov	sp, r7
 8002da4:	b005      	add	sp, #20
 8002da6:	bd90      	pop	{r4, r7, pc}
 8002da8:	fffff0fe 	.word	0xfffff0fe

08002dac <HAL_ADC_PollForConversion>:
  * @param  hadc ADC handle
  * @param  Timeout Timeout value in millisecond.
  * @retval HAL status
  */
HAL_StatusTypeDef HAL_ADC_PollForConversion(ADC_HandleTypeDef* hadc, uint32_t Timeout)
{
 8002dac:	b580      	push	{r7, lr}
 8002dae:	b084      	sub	sp, #16
 8002db0:	af00      	add	r7, sp, #0
 8002db2:	6078      	str	r0, [r7, #4]
 8002db4:	6039      	str	r1, [r7, #0]
 
  /* Check the parameters */
  assert_param(IS_ADC_ALL_INSTANCE(hadc->Instance));

  /* If end of conversion selected to end of sequence */
  if (hadc->Init.EOCSelection == ADC_EOC_SEQ_CONV)
 8002db6:	687b      	ldr	r3, [r7, #4]
 8002db8:	695b      	ldr	r3, [r3, #20]
 8002dba:	2b08      	cmp	r3, #8
 8002dbc:	d102      	bne.n	8002dc4 <HAL_ADC_PollForConversion+0x18>
  {
    tmp_Flag_EOC = ADC_FLAG_EOS;
 8002dbe:	2308      	movs	r3, #8
 8002dc0:	60fb      	str	r3, [r7, #12]
 8002dc2:	e014      	b.n	8002dee <HAL_ADC_PollForConversion+0x42>
    /* each conversion:                                                       */
    /* Particular case is ADC configured in DMA mode and ADC sequencer with   */
    /* several ranks and polling for end of each conversion.                  */
    /* For code simplicity sake, this particular case is generalized to       */
    /* ADC configured in DMA mode and and polling for end of each conversion. */
    if (HAL_IS_BIT_SET(hadc->Instance->CFGR1, ADC_CFGR1_DMAEN))
 8002dc4:	687b      	ldr	r3, [r7, #4]
 8002dc6:	681b      	ldr	r3, [r3, #0]
 8002dc8:	68db      	ldr	r3, [r3, #12]
 8002dca:	2201      	movs	r2, #1
 8002dcc:	4013      	ands	r3, r2
 8002dce:	2b01      	cmp	r3, #1
 8002dd0:	d10b      	bne.n	8002dea <HAL_ADC_PollForConversion+0x3e>
    {
      /* Update ADC state machine to error */
      SET_BIT(hadc->State, HAL_ADC_STATE_ERROR_CONFIG);
 8002dd2:	687b      	ldr	r3, [r7, #4]
 8002dd4:	6b9b      	ldr	r3, [r3, #56]	; 0x38
 8002dd6:	2220      	movs	r2, #32
 8002dd8:	431a      	orrs	r2, r3
 8002dda:	687b      	ldr	r3, [r7, #4]
 8002ddc:	639a      	str	r2, [r3, #56]	; 0x38
      
      /* Process unlocked */
      __HAL_UNLOCK(hadc);
 8002dde:	687b      	ldr	r3, [r7, #4]
 8002de0:	2234      	movs	r2, #52	; 0x34
 8002de2:	2100      	movs	r1, #0
 8002de4:	5499      	strb	r1, [r3, r2]
      
      return HAL_ERROR;
 8002de6:	2301      	movs	r3, #1
 8002de8:	e06b      	b.n	8002ec2 <HAL_ADC_PollForConversion+0x116>
    }
    else
    {
      tmp_Flag_EOC = (ADC_FLAG_EOC | ADC_FLAG_EOS);
 8002dea:	230c      	movs	r3, #12
 8002dec:	60fb      	str	r3, [r7, #12]
    }
  }
  
  /* Get tick count */
  tickstart = HAL_GetTick();
 8002dee:	f7ff fe1d 	bl	8002a2c <HAL_GetTick>
 8002df2:	0003      	movs	r3, r0
 8002df4:	60bb      	str	r3, [r7, #8]
  
  /* Wait until End of Conversion flag is raised */
  while(HAL_IS_BIT_CLR(hadc->Instance->ISR, tmp_Flag_EOC))
 8002df6:	e019      	b.n	8002e2c <HAL_ADC_PollForConversion+0x80>
  {
    /* Check if timeout is disabled (set to infinite wait) */
    if(Timeout != HAL_MAX_DELAY)
 8002df8:	683b      	ldr	r3, [r7, #0]
 8002dfa:	3301      	adds	r3, #1
 8002dfc:	d016      	beq.n	8002e2c <HAL_ADC_PollForConversion+0x80>
    {
      if((Timeout == 0) || ((HAL_GetTick()-tickstart) > Timeout))
 8002dfe:	683b      	ldr	r3, [r7, #0]
 8002e00:	2b00      	cmp	r3, #0
 8002e02:	d007      	beq.n	8002e14 <HAL_ADC_PollForConversion+0x68>
 8002e04:	f7ff fe12 	bl	8002a2c <HAL_GetTick>
 8002e08:	0002      	movs	r2, r0
 8002e0a:	68bb      	ldr	r3, [r7, #8]
 8002e0c:	1ad3      	subs	r3, r2, r3
 8002e0e:	683a      	ldr	r2, [r7, #0]
 8002e10:	429a      	cmp	r2, r3
 8002e12:	d20b      	bcs.n	8002e2c <HAL_ADC_PollForConversion+0x80>
      {
        /* Update ADC state machine to timeout */
        SET_BIT(hadc->State, HAL_ADC_STATE_TIMEOUT);
 8002e14:	687b      	ldr	r3, [r7, #4]
 8002e16:	6b9b      	ldr	r3, [r3, #56]	; 0x38
 8002e18:	2204      	movs	r2, #4
 8002e1a:	431a      	orrs	r2, r3
 8002e1c:	687b      	ldr	r3, [r7, #4]
 8002e1e:	639a      	str	r2, [r3, #56]	; 0x38
        
        /* Process unlocked */
        __HAL_UNLOCK(hadc);
 8002e20:	687b      	ldr	r3, [r7, #4]
 8002e22:	2234      	movs	r2, #52	; 0x34
 8002e24:	2100      	movs	r1, #0
 8002e26:	5499      	strb	r1, [r3, r2]
        
        return HAL_TIMEOUT;
 8002e28:	2303      	movs	r3, #3
 8002e2a:	e04a      	b.n	8002ec2 <HAL_ADC_PollForConversion+0x116>
  while(HAL_IS_BIT_CLR(hadc->Instance->ISR, tmp_Flag_EOC))
 8002e2c:	687b      	ldr	r3, [r7, #4]
 8002e2e:	681b      	ldr	r3, [r3, #0]
 8002e30:	681b      	ldr	r3, [r3, #0]
 8002e32:	68fa      	ldr	r2, [r7, #12]
 8002e34:	4013      	ands	r3, r2
 8002e36:	d0df      	beq.n	8002df8 <HAL_ADC_PollForConversion+0x4c>
      }
    }
  }
    
  /* Update ADC state machine */
  SET_BIT(hadc->State, HAL_ADC_STATE_REG_EOC);
 8002e38:	687b      	ldr	r3, [r7, #4]
 8002e3a:	6b9b      	ldr	r3, [r3, #56]	; 0x38
 8002e3c:	2280      	movs	r2, #128	; 0x80
 8002e3e:	0092      	lsls	r2, r2, #2
 8002e40:	431a      	orrs	r2, r3
 8002e42:	687b      	ldr	r3, [r7, #4]
 8002e44:	639a      	str	r2, [r3, #56]	; 0x38
  
  /* Determine whether any further conversion upcoming on group regular       */
  /* by external trigger, continuous mode or scan sequence on going.          */
  if(ADC_IS_SOFTWARE_START_REGULAR(hadc)        && 
 8002e46:	687b      	ldr	r3, [r7, #4]
 8002e48:	681b      	ldr	r3, [r3, #0]
 8002e4a:	68da      	ldr	r2, [r3, #12]
 8002e4c:	23c0      	movs	r3, #192	; 0xc0
 8002e4e:	011b      	lsls	r3, r3, #4
 8002e50:	4013      	ands	r3, r2
 8002e52:	d12d      	bne.n	8002eb0 <HAL_ADC_PollForConversion+0x104>
     (hadc->Init.ContinuousConvMode == DISABLE)   )
 8002e54:	687b      	ldr	r3, [r7, #4]
 8002e56:	7e9b      	ldrb	r3, [r3, #26]
  if(ADC_IS_SOFTWARE_START_REGULAR(hadc)        && 
 8002e58:	2b00      	cmp	r3, #0
 8002e5a:	d129      	bne.n	8002eb0 <HAL_ADC_PollForConversion+0x104>
  {
    /* If End of Sequence is reached, disable interrupts */
    if( __HAL_ADC_GET_FLAG(hadc, ADC_FLAG_EOS) )
 8002e5c:	687b      	ldr	r3, [r7, #4]
 8002e5e:	681b      	ldr	r3, [r3, #0]
 8002e60:	681b      	ldr	r3, [r3, #0]
 8002e62:	2208      	movs	r2, #8
 8002e64:	4013      	ands	r3, r2
 8002e66:	2b08      	cmp	r3, #8
 8002e68:	d122      	bne.n	8002eb0 <HAL_ADC_PollForConversion+0x104>
    {
      /* Allowed to modify bits ADC_IT_EOC/ADC_IT_EOS only if bit             */
      /* ADSTART==0 (no conversion on going)                                  */
      if (ADC_IS_CONVERSION_ONGOING_REGULAR(hadc) == RESET)
 8002e6a:	687b      	ldr	r3, [r7, #4]
 8002e6c:	681b      	ldr	r3, [r3, #0]
 8002e6e:	689b      	ldr	r3, [r3, #8]
 8002e70:	2204      	movs	r2, #4
 8002e72:	4013      	ands	r3, r2
 8002e74:	d110      	bne.n	8002e98 <HAL_ADC_PollForConversion+0xec>
      {
        /* Disable ADC end of single conversion interrupt on group regular */
        /* Note: Overrun interrupt was enabled with EOC interrupt in          */
        /* HAL_Start_IT(), but is not disabled here because can be used       */
        /* by overrun IRQ process below.                                      */
        __HAL_ADC_DISABLE_IT(hadc, ADC_IT_EOC | ADC_IT_EOS);
 8002e76:	687b      	ldr	r3, [r7, #4]
 8002e78:	681b      	ldr	r3, [r3, #0]
 8002e7a:	685a      	ldr	r2, [r3, #4]
 8002e7c:	687b      	ldr	r3, [r7, #4]
 8002e7e:	681b      	ldr	r3, [r3, #0]
 8002e80:	210c      	movs	r1, #12
 8002e82:	438a      	bics	r2, r1
 8002e84:	605a      	str	r2, [r3, #4]
        
        /* Set ADC state */
        ADC_STATE_CLR_SET(hadc->State,
 8002e86:	687b      	ldr	r3, [r7, #4]
 8002e88:	6b9b      	ldr	r3, [r3, #56]	; 0x38
 8002e8a:	4a10      	ldr	r2, [pc, #64]	; (8002ecc <HAL_ADC_PollForConversion+0x120>)
 8002e8c:	4013      	ands	r3, r2
 8002e8e:	2201      	movs	r2, #1
 8002e90:	431a      	orrs	r2, r3
 8002e92:	687b      	ldr	r3, [r7, #4]
 8002e94:	639a      	str	r2, [r3, #56]	; 0x38
 8002e96:	e00b      	b.n	8002eb0 <HAL_ADC_PollForConversion+0x104>
                          HAL_ADC_STATE_READY);
      }
      else
      {
        /* Change ADC state to error state */
        SET_BIT(hadc->State, HAL_ADC_STATE_ERROR_CONFIG);
 8002e98:	687b      	ldr	r3, [r7, #4]
 8002e9a:	6b9b      	ldr	r3, [r3, #56]	; 0x38
 8002e9c:	2220      	movs	r2, #32
 8002e9e:	431a      	orrs	r2, r3
 8002ea0:	687b      	ldr	r3, [r7, #4]
 8002ea2:	639a      	str	r2, [r3, #56]	; 0x38
        
        /* Set ADC error code to ADC IP internal error */
        SET_BIT(hadc->ErrorCode, HAL_ADC_ERROR_INTERNAL);
 8002ea4:	687b      	ldr	r3, [r7, #4]
 8002ea6:	6bdb      	ldr	r3, [r3, #60]	; 0x3c
 8002ea8:	2201      	movs	r2, #1
 8002eaa:	431a      	orrs	r2, r3
 8002eac:	687b      	ldr	r3, [r7, #4]
 8002eae:	63da      	str	r2, [r3, #60]	; 0x3c
  }
  
  /* Clear end of conversion flag of regular group if low power feature       */
  /* "LowPowerAutoWait " is disabled, to not interfere with this feature      */
  /* until data register is read using function HAL_ADC_GetValue().           */
  if (hadc->Init.LowPowerAutoWait == DISABLE)
 8002eb0:	687b      	ldr	r3, [r7, #4]
 8002eb2:	7e1b      	ldrb	r3, [r3, #24]
 8002eb4:	2b00      	cmp	r3, #0
 8002eb6:	d103      	bne.n	8002ec0 <HAL_ADC_PollForConversion+0x114>
  {
    /* Clear regular group conversion flag */
    __HAL_ADC_CLEAR_FLAG(hadc, (ADC_FLAG_EOC | ADC_FLAG_EOS));
 8002eb8:	687b      	ldr	r3, [r7, #4]
 8002eba:	681b      	ldr	r3, [r3, #0]
 8002ebc:	220c      	movs	r2, #12
 8002ebe:	601a      	str	r2, [r3, #0]
  }
  
  /* Return ADC state */
  return HAL_OK;
 8002ec0:	2300      	movs	r3, #0
}
 8002ec2:	0018      	movs	r0, r3
 8002ec4:	46bd      	mov	sp, r7
 8002ec6:	b004      	add	sp, #16
 8002ec8:	bd80      	pop	{r7, pc}
 8002eca:	46c0      	nop			; (mov r8, r8)
 8002ecc:	fffffefe 	.word	0xfffffefe

08002ed0 <HAL_ADC_GetValue>:
  *         or @ref __HAL_ADC_CLEAR_FLAG(&hadc, ADC_FLAG_EOS).
  * @param  hadc ADC handle
  * @retval ADC group regular conversion data
  */
uint32_t HAL_ADC_GetValue(ADC_HandleTypeDef* hadc)
{
 8002ed0:	b580      	push	{r7, lr}
 8002ed2:	b082      	sub	sp, #8
 8002ed4:	af00      	add	r7, sp, #0
 8002ed6:	6078      	str	r0, [r7, #4]

  /* Note: EOC flag is not cleared here by software because automatically     */
  /*       cleared by hardware when reading register DR.                      */
  
  /* Return ADC converted value */ 
  return hadc->Instance->DR;
 8002ed8:	687b      	ldr	r3, [r7, #4]
 8002eda:	681b      	ldr	r3, [r3, #0]
 8002edc:	6c1b      	ldr	r3, [r3, #64]	; 0x40
}
 8002ede:	0018      	movs	r0, r3
 8002ee0:	46bd      	mov	sp, r7
 8002ee2:	b002      	add	sp, #8
 8002ee4:	bd80      	pop	{r7, pc}
	...

08002ee8 <HAL_ADC_ConfigChannel>:
  * @param  hadc ADC handle
  * @param  sConfig Structure of ADC channel for regular group.
  * @retval HAL status
  */
HAL_StatusTypeDef HAL_ADC_ConfigChannel(ADC_HandleTypeDef* hadc, ADC_ChannelConfTypeDef* sConfig)
{
 8002ee8:	b580      	push	{r7, lr}
 8002eea:	b084      	sub	sp, #16
 8002eec:	af00      	add	r7, sp, #0
 8002eee:	6078      	str	r0, [r7, #4]
 8002ef0:	6039      	str	r1, [r7, #0]
  HAL_StatusTypeDef tmp_hal_status = HAL_OK;
 8002ef2:	230f      	movs	r3, #15
 8002ef4:	18fb      	adds	r3, r7, r3
 8002ef6:	2200      	movs	r2, #0
 8002ef8:	701a      	strb	r2, [r3, #0]
  __IO uint32_t wait_loop_index = 0U;
 8002efa:	2300      	movs	r3, #0
 8002efc:	60bb      	str	r3, [r7, #8]
  /* Check the parameters */
  assert_param(IS_ADC_ALL_INSTANCE(hadc->Instance));
  assert_param(IS_ADC_CHANNEL(sConfig->Channel));
  assert_param(IS_ADC_RANK(sConfig->Rank));
  
  if (! IS_ADC_SAMPLE_TIME(hadc->Init.SamplingTimeCommon))
 8002efe:	687b      	ldr	r3, [r7, #4]
 8002f00:	6ada      	ldr	r2, [r3, #44]	; 0x2c
 8002f02:	2380      	movs	r3, #128	; 0x80
 8002f04:	055b      	lsls	r3, r3, #21
 8002f06:	429a      	cmp	r2, r3
 8002f08:	d011      	beq.n	8002f2e <HAL_ADC_ConfigChannel+0x46>
 8002f0a:	687b      	ldr	r3, [r7, #4]
 8002f0c:	6adb      	ldr	r3, [r3, #44]	; 0x2c
 8002f0e:	2b01      	cmp	r3, #1
 8002f10:	d00d      	beq.n	8002f2e <HAL_ADC_ConfigChannel+0x46>
 8002f12:	687b      	ldr	r3, [r7, #4]
 8002f14:	6adb      	ldr	r3, [r3, #44]	; 0x2c
 8002f16:	2b02      	cmp	r3, #2
 8002f18:	d009      	beq.n	8002f2e <HAL_ADC_ConfigChannel+0x46>
 8002f1a:	687b      	ldr	r3, [r7, #4]
 8002f1c:	6adb      	ldr	r3, [r3, #44]	; 0x2c
 8002f1e:	2b03      	cmp	r3, #3
 8002f20:	d005      	beq.n	8002f2e <HAL_ADC_ConfigChannel+0x46>
 8002f22:	687b      	ldr	r3, [r7, #4]
 8002f24:	6adb      	ldr	r3, [r3, #44]	; 0x2c
 8002f26:	2b04      	cmp	r3, #4
 8002f28:	d001      	beq.n	8002f2e <HAL_ADC_ConfigChannel+0x46>
 8002f2a:	687b      	ldr	r3, [r7, #4]
 8002f2c:	6adb      	ldr	r3, [r3, #44]	; 0x2c
  {
    assert_param(IS_ADC_SAMPLE_TIME(sConfig->SamplingTime));
  }
  
  /* Process locked */
  __HAL_LOCK(hadc);
 8002f2e:	687b      	ldr	r3, [r7, #4]
 8002f30:	2234      	movs	r2, #52	; 0x34
 8002f32:	5c9b      	ldrb	r3, [r3, r2]
 8002f34:	2b01      	cmp	r3, #1
 8002f36:	d101      	bne.n	8002f3c <HAL_ADC_ConfigChannel+0x54>
 8002f38:	2302      	movs	r3, #2
 8002f3a:	e0d0      	b.n	80030de <HAL_ADC_ConfigChannel+0x1f6>
 8002f3c:	687b      	ldr	r3, [r7, #4]
 8002f3e:	2234      	movs	r2, #52	; 0x34
 8002f40:	2101      	movs	r1, #1
 8002f42:	5499      	strb	r1, [r3, r2]
  /* Parameters that can be updated when ADC is disabled or enabled without   */
  /* conversion on going on regular group:                                    */
  /*  - Channel number                                                        */
  /*  - Channel sampling time                                                 */
  /*  - Management of internal measurement channels: VrefInt/TempSensor/Vbat  */
  if (ADC_IS_CONVERSION_ONGOING_REGULAR(hadc) == RESET)
 8002f44:	687b      	ldr	r3, [r7, #4]
 8002f46:	681b      	ldr	r3, [r3, #0]
 8002f48:	689b      	ldr	r3, [r3, #8]
 8002f4a:	2204      	movs	r2, #4
 8002f4c:	4013      	ands	r3, r2
 8002f4e:	d000      	beq.n	8002f52 <HAL_ADC_ConfigChannel+0x6a>
 8002f50:	e0b4      	b.n	80030bc <HAL_ADC_ConfigChannel+0x1d4>
  {
    /* Configure channel: depending on rank setting, add it or remove it from */
    /* ADC conversion sequencer.                                              */
    if (sConfig->Rank != ADC_RANK_NONE)
 8002f52:	683b      	ldr	r3, [r7, #0]
 8002f54:	685b      	ldr	r3, [r3, #4]
 8002f56:	4a64      	ldr	r2, [pc, #400]	; (80030e8 <HAL_ADC_ConfigChannel+0x200>)
 8002f58:	4293      	cmp	r3, r2
 8002f5a:	d100      	bne.n	8002f5e <HAL_ADC_ConfigChannel+0x76>
 8002f5c:	e082      	b.n	8003064 <HAL_ADC_ConfigChannel+0x17c>
    {
      /* Regular sequence configuration */
      /* Set the channel selection register from the selected channel */
      hadc->Instance->CHSELR |= ADC_CHSELR_CHANNEL(sConfig->Channel);
 8002f5e:	687b      	ldr	r3, [r7, #4]
 8002f60:	681b      	ldr	r3, [r3, #0]
 8002f62:	6a99      	ldr	r1, [r3, #40]	; 0x28
 8002f64:	683b      	ldr	r3, [r7, #0]
 8002f66:	681b      	ldr	r3, [r3, #0]
 8002f68:	2201      	movs	r2, #1
 8002f6a:	409a      	lsls	r2, r3
 8002f6c:	687b      	ldr	r3, [r7, #4]
 8002f6e:	681b      	ldr	r3, [r3, #0]
 8002f70:	430a      	orrs	r2, r1
 8002f72:	629a      	str	r2, [r3, #40]	; 0x28
      /* Channel sampling time configuration */
      /* Management of parameters "SamplingTimeCommon" and "SamplingTime"     */
      /* (obsolete): sampling time set in this function with                  */
      /* parameter "SamplingTime" (obsolete) only if not already set into     */
      /* ADC initialization structure with parameter "SamplingTimeCommon".    */
      if (! IS_ADC_SAMPLE_TIME(hadc->Init.SamplingTimeCommon))
 8002f74:	687b      	ldr	r3, [r7, #4]
 8002f76:	6ada      	ldr	r2, [r3, #44]	; 0x2c
 8002f78:	2380      	movs	r3, #128	; 0x80
 8002f7a:	055b      	lsls	r3, r3, #21
 8002f7c:	429a      	cmp	r2, r3
 8002f7e:	d037      	beq.n	8002ff0 <HAL_ADC_ConfigChannel+0x108>
 8002f80:	687b      	ldr	r3, [r7, #4]
 8002f82:	6adb      	ldr	r3, [r3, #44]	; 0x2c
 8002f84:	2b01      	cmp	r3, #1
 8002f86:	d033      	beq.n	8002ff0 <HAL_ADC_ConfigChannel+0x108>
 8002f88:	687b      	ldr	r3, [r7, #4]
 8002f8a:	6adb      	ldr	r3, [r3, #44]	; 0x2c
 8002f8c:	2b02      	cmp	r3, #2
 8002f8e:	d02f      	beq.n	8002ff0 <HAL_ADC_ConfigChannel+0x108>
 8002f90:	687b      	ldr	r3, [r7, #4]
 8002f92:	6adb      	ldr	r3, [r3, #44]	; 0x2c
 8002f94:	2b03      	cmp	r3, #3
 8002f96:	d02b      	beq.n	8002ff0 <HAL_ADC_ConfigChannel+0x108>
 8002f98:	687b      	ldr	r3, [r7, #4]
 8002f9a:	6adb      	ldr	r3, [r3, #44]	; 0x2c
 8002f9c:	2b04      	cmp	r3, #4
 8002f9e:	d027      	beq.n	8002ff0 <HAL_ADC_ConfigChannel+0x108>
 8002fa0:	687b      	ldr	r3, [r7, #4]
 8002fa2:	6adb      	ldr	r3, [r3, #44]	; 0x2c
 8002fa4:	2b05      	cmp	r3, #5
 8002fa6:	d023      	beq.n	8002ff0 <HAL_ADC_ConfigChannel+0x108>
 8002fa8:	687b      	ldr	r3, [r7, #4]
 8002faa:	6adb      	ldr	r3, [r3, #44]	; 0x2c
 8002fac:	2b06      	cmp	r3, #6
 8002fae:	d01f      	beq.n	8002ff0 <HAL_ADC_ConfigChannel+0x108>
 8002fb0:	687b      	ldr	r3, [r7, #4]
 8002fb2:	6adb      	ldr	r3, [r3, #44]	; 0x2c
 8002fb4:	2b07      	cmp	r3, #7
 8002fb6:	d01b      	beq.n	8002ff0 <HAL_ADC_ConfigChannel+0x108>
      {
        /* Modify sampling time if needed (not needed in case of reoccurrence */
        /* for several channels programmed consecutively into the sequencer)  */
        if (sConfig->SamplingTime != ADC_GET_SAMPLINGTIME(hadc))
 8002fb8:	683b      	ldr	r3, [r7, #0]
 8002fba:	689a      	ldr	r2, [r3, #8]
 8002fbc:	687b      	ldr	r3, [r7, #4]
 8002fbe:	681b      	ldr	r3, [r3, #0]
 8002fc0:	695b      	ldr	r3, [r3, #20]
 8002fc2:	2107      	movs	r1, #7
 8002fc4:	400b      	ands	r3, r1
 8002fc6:	429a      	cmp	r2, r3
 8002fc8:	d012      	beq.n	8002ff0 <HAL_ADC_ConfigChannel+0x108>
        {
          /* Channel sampling time configuration */
          /* Clear the old sample time */
          hadc->Instance->SMPR &= ~(ADC_SMPR_SMP);
 8002fca:	687b      	ldr	r3, [r7, #4]
 8002fcc:	681b      	ldr	r3, [r3, #0]
 8002fce:	695a      	ldr	r2, [r3, #20]
 8002fd0:	687b      	ldr	r3, [r7, #4]
 8002fd2:	681b      	ldr	r3, [r3, #0]
 8002fd4:	2107      	movs	r1, #7
 8002fd6:	438a      	bics	r2, r1
 8002fd8:	615a      	str	r2, [r3, #20]
          
          /* Set the new sample time */
          hadc->Instance->SMPR |= ADC_SMPR_SET(sConfig->SamplingTime);
 8002fda:	687b      	ldr	r3, [r7, #4]
 8002fdc:	681b      	ldr	r3, [r3, #0]
 8002fde:	6959      	ldr	r1, [r3, #20]
 8002fe0:	683b      	ldr	r3, [r7, #0]
 8002fe2:	689b      	ldr	r3, [r3, #8]
 8002fe4:	2207      	movs	r2, #7
 8002fe6:	401a      	ands	r2, r3
 8002fe8:	687b      	ldr	r3, [r7, #4]
 8002fea:	681b      	ldr	r3, [r3, #0]
 8002fec:	430a      	orrs	r2, r1
 8002fee:	615a      	str	r2, [r3, #20]
      /* internal measurement paths enable: If internal channel selected,     */
      /* enable dedicated internal buffers and path.                          */
      /* Note: these internal measurement paths can be disabled using         */
      /*       HAL_ADC_DeInit() or removing the channel from sequencer with   */
      /*       channel configuration parameter "Rank".                        */
      if(ADC_IS_CHANNEL_INTERNAL(sConfig->Channel))
 8002ff0:	683b      	ldr	r3, [r7, #0]
 8002ff2:	681b      	ldr	r3, [r3, #0]
 8002ff4:	2b10      	cmp	r3, #16
 8002ff6:	d007      	beq.n	8003008 <HAL_ADC_ConfigChannel+0x120>
 8002ff8:	683b      	ldr	r3, [r7, #0]
 8002ffa:	681b      	ldr	r3, [r3, #0]
 8002ffc:	2b11      	cmp	r3, #17
 8002ffe:	d003      	beq.n	8003008 <HAL_ADC_ConfigChannel+0x120>
 8003000:	683b      	ldr	r3, [r7, #0]
 8003002:	681b      	ldr	r3, [r3, #0]
 8003004:	2b12      	cmp	r3, #18
 8003006:	d163      	bne.n	80030d0 <HAL_ADC_ConfigChannel+0x1e8>
      {
        /* If Channel_16 is selected, enable Temp. sensor measurement path. */
        /* If Channel_17 is selected, enable VREFINT measurement path. */
        /* If Channel_18 is selected, enable VBAT measurement path. */
        ADC->CCR |= ADC_CHANNEL_INTERNAL_PATH(sConfig->Channel);
 8003008:	4b38      	ldr	r3, [pc, #224]	; (80030ec <HAL_ADC_ConfigChannel+0x204>)
 800300a:	6819      	ldr	r1, [r3, #0]
 800300c:	683b      	ldr	r3, [r7, #0]
 800300e:	681b      	ldr	r3, [r3, #0]
 8003010:	2b10      	cmp	r3, #16
 8003012:	d009      	beq.n	8003028 <HAL_ADC_ConfigChannel+0x140>
 8003014:	683b      	ldr	r3, [r7, #0]
 8003016:	681b      	ldr	r3, [r3, #0]
 8003018:	2b11      	cmp	r3, #17
 800301a:	d102      	bne.n	8003022 <HAL_ADC_ConfigChannel+0x13a>
 800301c:	2380      	movs	r3, #128	; 0x80
 800301e:	03db      	lsls	r3, r3, #15
 8003020:	e004      	b.n	800302c <HAL_ADC_ConfigChannel+0x144>
 8003022:	2380      	movs	r3, #128	; 0x80
 8003024:	045b      	lsls	r3, r3, #17
 8003026:	e001      	b.n	800302c <HAL_ADC_ConfigChannel+0x144>
 8003028:	2380      	movs	r3, #128	; 0x80
 800302a:	041b      	lsls	r3, r3, #16
 800302c:	4a2f      	ldr	r2, [pc, #188]	; (80030ec <HAL_ADC_ConfigChannel+0x204>)
 800302e:	430b      	orrs	r3, r1
 8003030:	6013      	str	r3, [r2, #0]
        
        /* If Temp. sensor is selected, wait for stabilization delay */
        if (sConfig->Channel == ADC_CHANNEL_TEMPSENSOR)
 8003032:	683b      	ldr	r3, [r7, #0]
 8003034:	681b      	ldr	r3, [r3, #0]
 8003036:	2b10      	cmp	r3, #16
 8003038:	d14a      	bne.n	80030d0 <HAL_ADC_ConfigChannel+0x1e8>
        {
          /* Delay for temperature sensor stabilization time */
          /* Compute number of CPU cycles to wait for */
          wait_loop_index = (ADC_TEMPSENSOR_DELAY_US * (SystemCoreClock / 1000000U));
 800303a:	4b2d      	ldr	r3, [pc, #180]	; (80030f0 <HAL_ADC_ConfigChannel+0x208>)
 800303c:	681b      	ldr	r3, [r3, #0]
 800303e:	492d      	ldr	r1, [pc, #180]	; (80030f4 <HAL_ADC_ConfigChannel+0x20c>)
 8003040:	0018      	movs	r0, r3
 8003042:	f7fd f873 	bl	800012c <__udivsi3>
 8003046:	0003      	movs	r3, r0
 8003048:	001a      	movs	r2, r3
 800304a:	0013      	movs	r3, r2
 800304c:	009b      	lsls	r3, r3, #2
 800304e:	189b      	adds	r3, r3, r2
 8003050:	005b      	lsls	r3, r3, #1
 8003052:	60bb      	str	r3, [r7, #8]
          while(wait_loop_index != 0U)
 8003054:	e002      	b.n	800305c <HAL_ADC_ConfigChannel+0x174>
          {
            wait_loop_index--;
 8003056:	68bb      	ldr	r3, [r7, #8]
 8003058:	3b01      	subs	r3, #1
 800305a:	60bb      	str	r3, [r7, #8]
          while(wait_loop_index != 0U)
 800305c:	68bb      	ldr	r3, [r7, #8]
 800305e:	2b00      	cmp	r3, #0
 8003060:	d1f9      	bne.n	8003056 <HAL_ADC_ConfigChannel+0x16e>
 8003062:	e035      	b.n	80030d0 <HAL_ADC_ConfigChannel+0x1e8>
    }
    else
    {
      /* Regular sequence configuration */
      /* Reset the channel selection register from the selected channel */
      hadc->Instance->CHSELR &= ~ADC_CHSELR_CHANNEL(sConfig->Channel);
 8003064:	687b      	ldr	r3, [r7, #4]
 8003066:	681b      	ldr	r3, [r3, #0]
 8003068:	6a9a      	ldr	r2, [r3, #40]	; 0x28
 800306a:	683b      	ldr	r3, [r7, #0]
 800306c:	681b      	ldr	r3, [r3, #0]
 800306e:	2101      	movs	r1, #1
 8003070:	4099      	lsls	r1, r3
 8003072:	000b      	movs	r3, r1
 8003074:	43d9      	mvns	r1, r3
 8003076:	687b      	ldr	r3, [r7, #4]
 8003078:	681b      	ldr	r3, [r3, #0]
 800307a:	400a      	ands	r2, r1
 800307c:	629a      	str	r2, [r3, #40]	; 0x28
      
      /* Management of internal measurement channels: VrefInt/TempSensor/Vbat */
      /* internal measurement paths disable: If internal channel selected,    */
      /* disable dedicated internal buffers and path.                         */
      if(ADC_IS_CHANNEL_INTERNAL(sConfig->Channel))
 800307e:	683b      	ldr	r3, [r7, #0]
 8003080:	681b      	ldr	r3, [r3, #0]
 8003082:	2b10      	cmp	r3, #16
 8003084:	d007      	beq.n	8003096 <HAL_ADC_ConfigChannel+0x1ae>
 8003086:	683b      	ldr	r3, [r7, #0]
 8003088:	681b      	ldr	r3, [r3, #0]
 800308a:	2b11      	cmp	r3, #17
 800308c:	d003      	beq.n	8003096 <HAL_ADC_ConfigChannel+0x1ae>
 800308e:	683b      	ldr	r3, [r7, #0]
 8003090:	681b      	ldr	r3, [r3, #0]
 8003092:	2b12      	cmp	r3, #18
 8003094:	d11c      	bne.n	80030d0 <HAL_ADC_ConfigChannel+0x1e8>
      {
        /* If Channel_16 is selected, disable Temp. sensor measurement path. */
        /* If Channel_17 is selected, disable VREFINT measurement path. */
        /* If Channel_18 is selected, disable VBAT measurement path. */
        ADC->CCR &= ~ADC_CHANNEL_INTERNAL_PATH(sConfig->Channel);
 8003096:	4b15      	ldr	r3, [pc, #84]	; (80030ec <HAL_ADC_ConfigChannel+0x204>)
 8003098:	6819      	ldr	r1, [r3, #0]
 800309a:	683b      	ldr	r3, [r7, #0]
 800309c:	681b      	ldr	r3, [r3, #0]
 800309e:	2b10      	cmp	r3, #16
 80030a0:	d007      	beq.n	80030b2 <HAL_ADC_ConfigChannel+0x1ca>
 80030a2:	683b      	ldr	r3, [r7, #0]
 80030a4:	681b      	ldr	r3, [r3, #0]
 80030a6:	2b11      	cmp	r3, #17
 80030a8:	d101      	bne.n	80030ae <HAL_ADC_ConfigChannel+0x1c6>
 80030aa:	4b13      	ldr	r3, [pc, #76]	; (80030f8 <HAL_ADC_ConfigChannel+0x210>)
 80030ac:	e002      	b.n	80030b4 <HAL_ADC_ConfigChannel+0x1cc>
 80030ae:	4b13      	ldr	r3, [pc, #76]	; (80030fc <HAL_ADC_ConfigChannel+0x214>)
 80030b0:	e000      	b.n	80030b4 <HAL_ADC_ConfigChannel+0x1cc>
 80030b2:	4b13      	ldr	r3, [pc, #76]	; (8003100 <HAL_ADC_ConfigChannel+0x218>)
 80030b4:	4a0d      	ldr	r2, [pc, #52]	; (80030ec <HAL_ADC_ConfigChannel+0x204>)
 80030b6:	400b      	ands	r3, r1
 80030b8:	6013      	str	r3, [r2, #0]
 80030ba:	e009      	b.n	80030d0 <HAL_ADC_ConfigChannel+0x1e8>
  /* channel could be done on neither of the channel configuration structure  */
  /* parameters.                                                              */
  else
  {
    /* Update ADC state machine to error */
    SET_BIT(hadc->State, HAL_ADC_STATE_ERROR_CONFIG);
 80030bc:	687b      	ldr	r3, [r7, #4]
 80030be:	6b9b      	ldr	r3, [r3, #56]	; 0x38
 80030c0:	2220      	movs	r2, #32
 80030c2:	431a      	orrs	r2, r3
 80030c4:	687b      	ldr	r3, [r7, #4]
 80030c6:	639a      	str	r2, [r3, #56]	; 0x38
    
    tmp_hal_status = HAL_ERROR;
 80030c8:	230f      	movs	r3, #15
 80030ca:	18fb      	adds	r3, r7, r3
 80030cc:	2201      	movs	r2, #1
 80030ce:	701a      	strb	r2, [r3, #0]
  }
  
  /* Process unlocked */
  __HAL_UNLOCK(hadc);
 80030d0:	687b      	ldr	r3, [r7, #4]
 80030d2:	2234      	movs	r2, #52	; 0x34
 80030d4:	2100      	movs	r1, #0
 80030d6:	5499      	strb	r1, [r3, r2]
  
  /* Return function status */
  return tmp_hal_status;
 80030d8:	230f      	movs	r3, #15
 80030da:	18fb      	adds	r3, r7, r3
 80030dc:	781b      	ldrb	r3, [r3, #0]
}
 80030de:	0018      	movs	r0, r3
 80030e0:	46bd      	mov	sp, r7
 80030e2:	b004      	add	sp, #16
 80030e4:	bd80      	pop	{r7, pc}
 80030e6:	46c0      	nop			; (mov r8, r8)
 80030e8:	00001001 	.word	0x00001001
 80030ec:	40012708 	.word	0x40012708
 80030f0:	20000000 	.word	0x20000000
 80030f4:	000f4240 	.word	0x000f4240
 80030f8:	ffbfffff 	.word	0xffbfffff
 80030fc:	feffffff 	.word	0xfeffffff
 8003100:	ff7fffff 	.word	0xff7fffff

08003104 <ADC_Enable>:
  *         "if (hadc->Init.LowPowerAutoPowerOff != ENABLE)".
  * @param  hadc ADC handle
  * @retval HAL status.
  */
static HAL_StatusTypeDef ADC_Enable(ADC_HandleTypeDef* hadc)
{
 8003104:	b580      	push	{r7, lr}
 8003106:	b084      	sub	sp, #16
 8003108:	af00      	add	r7, sp, #0
 800310a:	6078      	str	r0, [r7, #4]
  uint32_t tickstart = 0U;
 800310c:	2300      	movs	r3, #0
 800310e:	60fb      	str	r3, [r7, #12]
  __IO uint32_t wait_loop_index = 0U;
 8003110:	2300      	movs	r3, #0
 8003112:	60bb      	str	r3, [r7, #8]
  
  /* ADC enable and wait for ADC ready (in case of ADC is disabled or         */
  /* enabling phase not yet completed: flag ADC ready not yet set).           */
  /* Timeout implemented to not be stuck if ADC cannot be enabled (possible   */
  /* causes: ADC clock not running, ...).                                     */
  if (ADC_IS_ENABLE(hadc) == RESET)
 8003114:	687b      	ldr	r3, [r7, #4]
 8003116:	681b      	ldr	r3, [r3, #0]
 8003118:	689b      	ldr	r3, [r3, #8]
 800311a:	2203      	movs	r2, #3
 800311c:	4013      	ands	r3, r2
 800311e:	2b01      	cmp	r3, #1
 8003120:	d112      	bne.n	8003148 <ADC_Enable+0x44>
 8003122:	687b      	ldr	r3, [r7, #4]
 8003124:	681b      	ldr	r3, [r3, #0]
 8003126:	681b      	ldr	r3, [r3, #0]
 8003128:	2201      	movs	r2, #1
 800312a:	4013      	ands	r3, r2
 800312c:	2b01      	cmp	r3, #1
 800312e:	d009      	beq.n	8003144 <ADC_Enable+0x40>
 8003130:	687b      	ldr	r3, [r7, #4]
 8003132:	681b      	ldr	r3, [r3, #0]
 8003134:	68da      	ldr	r2, [r3, #12]
 8003136:	2380      	movs	r3, #128	; 0x80
 8003138:	021b      	lsls	r3, r3, #8
 800313a:	401a      	ands	r2, r3
 800313c:	2380      	movs	r3, #128	; 0x80
 800313e:	021b      	lsls	r3, r3, #8
 8003140:	429a      	cmp	r2, r3
 8003142:	d101      	bne.n	8003148 <ADC_Enable+0x44>
 8003144:	2301      	movs	r3, #1
 8003146:	e000      	b.n	800314a <ADC_Enable+0x46>
 8003148:	2300      	movs	r3, #0
 800314a:	2b00      	cmp	r3, #0
 800314c:	d14b      	bne.n	80031e6 <ADC_Enable+0xe2>
  {
    /* Check if conditions to enable the ADC are fulfilled */
    if (ADC_ENABLING_CONDITIONS(hadc) == RESET)
 800314e:	687b      	ldr	r3, [r7, #4]
 8003150:	681b      	ldr	r3, [r3, #0]
 8003152:	689b      	ldr	r3, [r3, #8]
 8003154:	4a26      	ldr	r2, [pc, #152]	; (80031f0 <ADC_Enable+0xec>)
 8003156:	4013      	ands	r3, r2
 8003158:	d00d      	beq.n	8003176 <ADC_Enable+0x72>
    {
      /* Update ADC state machine to error */
      SET_BIT(hadc->State, HAL_ADC_STATE_ERROR_INTERNAL);
 800315a:	687b      	ldr	r3, [r7, #4]
 800315c:	6b9b      	ldr	r3, [r3, #56]	; 0x38
 800315e:	2210      	movs	r2, #16
 8003160:	431a      	orrs	r2, r3
 8003162:	687b      	ldr	r3, [r7, #4]
 8003164:	639a      	str	r2, [r3, #56]	; 0x38
    
      /* Set ADC error code to ADC IP internal error */
      SET_BIT(hadc->ErrorCode, HAL_ADC_ERROR_INTERNAL);
 8003166:	687b      	ldr	r3, [r7, #4]
 8003168:	6bdb      	ldr	r3, [r3, #60]	; 0x3c
 800316a:	2201      	movs	r2, #1
 800316c:	431a      	orrs	r2, r3
 800316e:	687b      	ldr	r3, [r7, #4]
 8003170:	63da      	str	r2, [r3, #60]	; 0x3c
      
      return HAL_ERROR;
 8003172:	2301      	movs	r3, #1
 8003174:	e038      	b.n	80031e8 <ADC_Enable+0xe4>
    }
    
    /* Enable the ADC peripheral */
    __HAL_ADC_ENABLE(hadc);
 8003176:	687b      	ldr	r3, [r7, #4]
 8003178:	681b      	ldr	r3, [r3, #0]
 800317a:	689a      	ldr	r2, [r3, #8]
 800317c:	687b      	ldr	r3, [r7, #4]
 800317e:	681b      	ldr	r3, [r3, #0]
 8003180:	2101      	movs	r1, #1
 8003182:	430a      	orrs	r2, r1
 8003184:	609a      	str	r2, [r3, #8]
    
    /* Delay for ADC stabilization time */
    /* Compute number of CPU cycles to wait for */
    wait_loop_index = (ADC_STAB_DELAY_US * (SystemCoreClock / 1000000U));
 8003186:	4b1b      	ldr	r3, [pc, #108]	; (80031f4 <ADC_Enable+0xf0>)
 8003188:	681b      	ldr	r3, [r3, #0]
 800318a:	491b      	ldr	r1, [pc, #108]	; (80031f8 <ADC_Enable+0xf4>)
 800318c:	0018      	movs	r0, r3
 800318e:	f7fc ffcd 	bl	800012c <__udivsi3>
 8003192:	0003      	movs	r3, r0
 8003194:	60bb      	str	r3, [r7, #8]
    while(wait_loop_index != 0U)
 8003196:	e002      	b.n	800319e <ADC_Enable+0x9a>
    {
      wait_loop_index--;
 8003198:	68bb      	ldr	r3, [r7, #8]
 800319a:	3b01      	subs	r3, #1
 800319c:	60bb      	str	r3, [r7, #8]
    while(wait_loop_index != 0U)
 800319e:	68bb      	ldr	r3, [r7, #8]
 80031a0:	2b00      	cmp	r3, #0
 80031a2:	d1f9      	bne.n	8003198 <ADC_Enable+0x94>
    }

    /* Get tick count */
    tickstart = HAL_GetTick();
 80031a4:	f7ff fc42 	bl	8002a2c <HAL_GetTick>
 80031a8:	0003      	movs	r3, r0
 80031aa:	60fb      	str	r3, [r7, #12]
    
    /* Wait for ADC effectively enabled */
    while(__HAL_ADC_GET_FLAG(hadc, ADC_FLAG_RDY) == RESET)
 80031ac:	e014      	b.n	80031d8 <ADC_Enable+0xd4>
    {
      if((HAL_GetTick() - tickstart) > ADC_ENABLE_TIMEOUT)
 80031ae:	f7ff fc3d 	bl	8002a2c <HAL_GetTick>
 80031b2:	0002      	movs	r2, r0
 80031b4:	68fb      	ldr	r3, [r7, #12]
 80031b6:	1ad3      	subs	r3, r2, r3
 80031b8:	2b02      	cmp	r3, #2
 80031ba:	d90d      	bls.n	80031d8 <ADC_Enable+0xd4>
      {
        /* Update ADC state machine to error */
        SET_BIT(hadc->State, HAL_ADC_STATE_ERROR_INTERNAL);
 80031bc:	687b      	ldr	r3, [r7, #4]
 80031be:	6b9b      	ldr	r3, [r3, #56]	; 0x38
 80031c0:	2210      	movs	r2, #16
 80031c2:	431a      	orrs	r2, r3
 80031c4:	687b      	ldr	r3, [r7, #4]
 80031c6:	639a      	str	r2, [r3, #56]	; 0x38
      
        /* Set ADC error code to ADC IP internal error */
        SET_BIT(hadc->ErrorCode, HAL_ADC_ERROR_INTERNAL);
 80031c8:	687b      	ldr	r3, [r7, #4]
 80031ca:	6bdb      	ldr	r3, [r3, #60]	; 0x3c
 80031cc:	2201      	movs	r2, #1
 80031ce:	431a      	orrs	r2, r3
 80031d0:	687b      	ldr	r3, [r7, #4]
 80031d2:	63da      	str	r2, [r3, #60]	; 0x3c
      
        return HAL_ERROR;
 80031d4:	2301      	movs	r3, #1
 80031d6:	e007      	b.n	80031e8 <ADC_Enable+0xe4>
    while(__HAL_ADC_GET_FLAG(hadc, ADC_FLAG_RDY) == RESET)
 80031d8:	687b      	ldr	r3, [r7, #4]
 80031da:	681b      	ldr	r3, [r3, #0]
 80031dc:	681b      	ldr	r3, [r3, #0]
 80031de:	2201      	movs	r2, #1
 80031e0:	4013      	ands	r3, r2
 80031e2:	2b01      	cmp	r3, #1
 80031e4:	d1e3      	bne.n	80031ae <ADC_Enable+0xaa>
    }   
    
  }
   
  /* Return HAL status */
  return HAL_OK;
 80031e6:	2300      	movs	r3, #0
}
 80031e8:	0018      	movs	r0, r3
 80031ea:	46bd      	mov	sp, r7
 80031ec:	b004      	add	sp, #16
 80031ee:	bd80      	pop	{r7, pc}
 80031f0:	80000017 	.word	0x80000017
 80031f4:	20000000 	.word	0x20000000
 80031f8:	000f4240 	.word	0x000f4240

080031fc <HAL_ADCEx_Calibration_Start>:
  *         HAL_ADC_GetValue() (value on 7 bits: from DR[6;0]).
  * @param  hadc ADC handle
  * @retval HAL status
  */
HAL_StatusTypeDef HAL_ADCEx_Calibration_Start(ADC_HandleTypeDef* hadc)
{
 80031fc:	b580      	push	{r7, lr}
 80031fe:	b086      	sub	sp, #24
 8003200:	af00      	add	r7, sp, #0
 8003202:	6078      	str	r0, [r7, #4]
  HAL_StatusTypeDef tmp_hal_status = HAL_OK;
 8003204:	2317      	movs	r3, #23
 8003206:	18fb      	adds	r3, r7, r3
 8003208:	2200      	movs	r2, #0
 800320a:	701a      	strb	r2, [r3, #0]
  uint32_t tickstart = 0U;
 800320c:	2300      	movs	r3, #0
 800320e:	613b      	str	r3, [r7, #16]
  uint32_t backup_setting_adc_dma_transfer = 0; /* Note: Variable not declared as volatile because register read is already declared as volatile */
 8003210:	2300      	movs	r3, #0
 8003212:	60fb      	str	r3, [r7, #12]
  
  /* Check the parameters */
  assert_param(IS_ADC_ALL_INSTANCE(hadc->Instance));

  /* Process locked */
  __HAL_LOCK(hadc);
 8003214:	687b      	ldr	r3, [r7, #4]
 8003216:	2234      	movs	r2, #52	; 0x34
 8003218:	5c9b      	ldrb	r3, [r3, r2]
 800321a:	2b01      	cmp	r3, #1
 800321c:	d101      	bne.n	8003222 <HAL_ADCEx_Calibration_Start+0x26>
 800321e:	2302      	movs	r3, #2
 8003220:	e084      	b.n	800332c <HAL_ADCEx_Calibration_Start+0x130>
 8003222:	687b      	ldr	r3, [r7, #4]
 8003224:	2234      	movs	r2, #52	; 0x34
 8003226:	2101      	movs	r1, #1
 8003228:	5499      	strb	r1, [r3, r2]
  
  /* Calibration prerequisite: ADC must be disabled. */
  if (ADC_IS_ENABLE(hadc) == RESET)
 800322a:	687b      	ldr	r3, [r7, #4]
 800322c:	681b      	ldr	r3, [r3, #0]
 800322e:	689b      	ldr	r3, [r3, #8]
 8003230:	2203      	movs	r2, #3
 8003232:	4013      	ands	r3, r2
 8003234:	2b01      	cmp	r3, #1
 8003236:	d112      	bne.n	800325e <HAL_ADCEx_Calibration_Start+0x62>
 8003238:	687b      	ldr	r3, [r7, #4]
 800323a:	681b      	ldr	r3, [r3, #0]
 800323c:	681b      	ldr	r3, [r3, #0]
 800323e:	2201      	movs	r2, #1
 8003240:	4013      	ands	r3, r2
 8003242:	2b01      	cmp	r3, #1
 8003244:	d009      	beq.n	800325a <HAL_ADCEx_Calibration_Start+0x5e>
 8003246:	687b      	ldr	r3, [r7, #4]
 8003248:	681b      	ldr	r3, [r3, #0]
 800324a:	68da      	ldr	r2, [r3, #12]
 800324c:	2380      	movs	r3, #128	; 0x80
 800324e:	021b      	lsls	r3, r3, #8
 8003250:	401a      	ands	r2, r3
 8003252:	2380      	movs	r3, #128	; 0x80
 8003254:	021b      	lsls	r3, r3, #8
 8003256:	429a      	cmp	r2, r3
 8003258:	d101      	bne.n	800325e <HAL_ADCEx_Calibration_Start+0x62>
 800325a:	2301      	movs	r3, #1
 800325c:	e000      	b.n	8003260 <HAL_ADCEx_Calibration_Start+0x64>
 800325e:	2300      	movs	r3, #0
 8003260:	2b00      	cmp	r3, #0
 8003262:	d152      	bne.n	800330a <HAL_ADCEx_Calibration_Start+0x10e>
  {
    /* Set ADC state */
    ADC_STATE_CLR_SET(hadc->State, 
 8003264:	687b      	ldr	r3, [r7, #4]
 8003266:	6b9b      	ldr	r3, [r3, #56]	; 0x38
 8003268:	4a32      	ldr	r2, [pc, #200]	; (8003334 <HAL_ADCEx_Calibration_Start+0x138>)
 800326a:	4013      	ands	r3, r2
 800326c:	2202      	movs	r2, #2
 800326e:	431a      	orrs	r2, r3
 8003270:	687b      	ldr	r3, [r7, #4]
 8003272:	639a      	str	r2, [r3, #56]	; 0x38
    /* Note: Specificity of this STM32 serie: Calibration factor is           */
    /*       available in data register and also transfered by DMA.           */
    /*       To not insert ADC calibration factor among ADC conversion data   */
    /*       in array variable, DMA transfer must be disabled during          */
    /*       calibration.                                                     */
    backup_setting_adc_dma_transfer = READ_BIT(hadc->Instance->CFGR1, ADC_CFGR1_DMAEN | ADC_CFGR1_DMACFG);
 8003274:	687b      	ldr	r3, [r7, #4]
 8003276:	681b      	ldr	r3, [r3, #0]
 8003278:	68db      	ldr	r3, [r3, #12]
 800327a:	2203      	movs	r2, #3
 800327c:	4013      	ands	r3, r2
 800327e:	60fb      	str	r3, [r7, #12]
    CLEAR_BIT(hadc->Instance->CFGR1, ADC_CFGR1_DMAEN | ADC_CFGR1_DMACFG);
 8003280:	687b      	ldr	r3, [r7, #4]
 8003282:	681b      	ldr	r3, [r3, #0]
 8003284:	68da      	ldr	r2, [r3, #12]
 8003286:	687b      	ldr	r3, [r7, #4]
 8003288:	681b      	ldr	r3, [r3, #0]
 800328a:	2103      	movs	r1, #3
 800328c:	438a      	bics	r2, r1
 800328e:	60da      	str	r2, [r3, #12]

    /* Start ADC calibration */
    hadc->Instance->CR |= ADC_CR_ADCAL;
 8003290:	687b      	ldr	r3, [r7, #4]
 8003292:	681b      	ldr	r3, [r3, #0]
 8003294:	689a      	ldr	r2, [r3, #8]
 8003296:	687b      	ldr	r3, [r7, #4]
 8003298:	681b      	ldr	r3, [r3, #0]
 800329a:	2180      	movs	r1, #128	; 0x80
 800329c:	0609      	lsls	r1, r1, #24
 800329e:	430a      	orrs	r2, r1
 80032a0:	609a      	str	r2, [r3, #8]

    tickstart = HAL_GetTick();  
 80032a2:	f7ff fbc3 	bl	8002a2c <HAL_GetTick>
 80032a6:	0003      	movs	r3, r0
 80032a8:	613b      	str	r3, [r7, #16]

    /* Wait for calibration completion */
    while(HAL_IS_BIT_SET(hadc->Instance->CR, ADC_CR_ADCAL))
 80032aa:	e014      	b.n	80032d6 <HAL_ADCEx_Calibration_Start+0xda>
    {
      if((HAL_GetTick() - tickstart) > ADC_CALIBRATION_TIMEOUT)
 80032ac:	f7ff fbbe 	bl	8002a2c <HAL_GetTick>
 80032b0:	0002      	movs	r2, r0
 80032b2:	693b      	ldr	r3, [r7, #16]
 80032b4:	1ad3      	subs	r3, r2, r3
 80032b6:	2b02      	cmp	r3, #2
 80032b8:	d90d      	bls.n	80032d6 <HAL_ADCEx_Calibration_Start+0xda>
      {
        /* Update ADC state machine to error */
        ADC_STATE_CLR_SET(hadc->State,
 80032ba:	687b      	ldr	r3, [r7, #4]
 80032bc:	6b9b      	ldr	r3, [r3, #56]	; 0x38
 80032be:	2212      	movs	r2, #18
 80032c0:	4393      	bics	r3, r2
 80032c2:	2210      	movs	r2, #16
 80032c4:	431a      	orrs	r2, r3
 80032c6:	687b      	ldr	r3, [r7, #4]
 80032c8:	639a      	str	r2, [r3, #56]	; 0x38
                          HAL_ADC_STATE_BUSY_INTERNAL,
                          HAL_ADC_STATE_ERROR_INTERNAL);
        
        /* Process unlocked */
        __HAL_UNLOCK(hadc);
 80032ca:	687b      	ldr	r3, [r7, #4]
 80032cc:	2234      	movs	r2, #52	; 0x34
 80032ce:	2100      	movs	r1, #0
 80032d0:	5499      	strb	r1, [r3, r2]
        
        return HAL_ERROR;
 80032d2:	2301      	movs	r3, #1
 80032d4:	e02a      	b.n	800332c <HAL_ADCEx_Calibration_Start+0x130>
    while(HAL_IS_BIT_SET(hadc->Instance->CR, ADC_CR_ADCAL))
 80032d6:	687b      	ldr	r3, [r7, #4]
 80032d8:	681b      	ldr	r3, [r3, #0]
 80032da:	689b      	ldr	r3, [r3, #8]
 80032dc:	0fdb      	lsrs	r3, r3, #31
 80032de:	07da      	lsls	r2, r3, #31
 80032e0:	2380      	movs	r3, #128	; 0x80
 80032e2:	061b      	lsls	r3, r3, #24
 80032e4:	429a      	cmp	r2, r3
 80032e6:	d0e1      	beq.n	80032ac <HAL_ADCEx_Calibration_Start+0xb0>
      }
    }
    
    /* Restore ADC DMA transfer request after calibration */
    SET_BIT(hadc->Instance->CFGR1, backup_setting_adc_dma_transfer);
 80032e8:	687b      	ldr	r3, [r7, #4]
 80032ea:	681b      	ldr	r3, [r3, #0]
 80032ec:	68d9      	ldr	r1, [r3, #12]
 80032ee:	687b      	ldr	r3, [r7, #4]
 80032f0:	681b      	ldr	r3, [r3, #0]
 80032f2:	68fa      	ldr	r2, [r7, #12]
 80032f4:	430a      	orrs	r2, r1
 80032f6:	60da      	str	r2, [r3, #12]

    /* Set ADC state */
    ADC_STATE_CLR_SET(hadc->State,
 80032f8:	687b      	ldr	r3, [r7, #4]
 80032fa:	6b9b      	ldr	r3, [r3, #56]	; 0x38
 80032fc:	2203      	movs	r2, #3
 80032fe:	4393      	bics	r3, r2
 8003300:	2201      	movs	r2, #1
 8003302:	431a      	orrs	r2, r3
 8003304:	687b      	ldr	r3, [r7, #4]
 8003306:	639a      	str	r2, [r3, #56]	; 0x38
 8003308:	e009      	b.n	800331e <HAL_ADCEx_Calibration_Start+0x122>
                      HAL_ADC_STATE_READY);
  }
  else
  {
    /* Update ADC state machine to error */
    SET_BIT(hadc->State, HAL_ADC_STATE_ERROR_CONFIG);
 800330a:	687b      	ldr	r3, [r7, #4]
 800330c:	6b9b      	ldr	r3, [r3, #56]	; 0x38
 800330e:	2220      	movs	r2, #32
 8003310:	431a      	orrs	r2, r3
 8003312:	687b      	ldr	r3, [r7, #4]
 8003314:	639a      	str	r2, [r3, #56]	; 0x38
    
    tmp_hal_status = HAL_ERROR;
 8003316:	2317      	movs	r3, #23
 8003318:	18fb      	adds	r3, r7, r3
 800331a:	2201      	movs	r2, #1
 800331c:	701a      	strb	r2, [r3, #0]
  }
  
  /* Process unlocked */
  __HAL_UNLOCK(hadc);
 800331e:	687b      	ldr	r3, [r7, #4]
 8003320:	2234      	movs	r2, #52	; 0x34
 8003322:	2100      	movs	r1, #0
 8003324:	5499      	strb	r1, [r3, r2]
  
  /* Return function status */
  return tmp_hal_status;
 8003326:	2317      	movs	r3, #23
 8003328:	18fb      	adds	r3, r7, r3
 800332a:	781b      	ldrb	r3, [r3, #0]
}
 800332c:	0018      	movs	r0, r3
 800332e:	46bd      	mov	sp, r7
 8003330:	b006      	add	sp, #24
 8003332:	bd80      	pop	{r7, pc}
 8003334:	fffffefd 	.word	0xfffffefd

08003338 <__NVIC_EnableIRQ>:
  \details Enables a device specific interrupt in the NVIC interrupt controller.
  \param [in]      IRQn  Device specific interrupt number.
  \note    IRQn must not be negative.
 */
__STATIC_INLINE void __NVIC_EnableIRQ(IRQn_Type IRQn)
{
 8003338:	b580      	push	{r7, lr}
 800333a:	b082      	sub	sp, #8
 800333c:	af00      	add	r7, sp, #0
 800333e:	0002      	movs	r2, r0
 8003340:	1dfb      	adds	r3, r7, #7
 8003342:	701a      	strb	r2, [r3, #0]
  if ((int32_t)(IRQn) >= 0)
 8003344:	1dfb      	adds	r3, r7, #7
 8003346:	781b      	ldrb	r3, [r3, #0]
 8003348:	2b7f      	cmp	r3, #127	; 0x7f
 800334a:	d809      	bhi.n	8003360 <__NVIC_EnableIRQ+0x28>
  {
    NVIC->ISER[0U] = (uint32_t)(1UL << (((uint32_t)IRQn) & 0x1FUL));
 800334c:	1dfb      	adds	r3, r7, #7
 800334e:	781b      	ldrb	r3, [r3, #0]
 8003350:	001a      	movs	r2, r3
 8003352:	231f      	movs	r3, #31
 8003354:	401a      	ands	r2, r3
 8003356:	4b04      	ldr	r3, [pc, #16]	; (8003368 <__NVIC_EnableIRQ+0x30>)
 8003358:	2101      	movs	r1, #1
 800335a:	4091      	lsls	r1, r2
 800335c:	000a      	movs	r2, r1
 800335e:	601a      	str	r2, [r3, #0]
  }
}
 8003360:	46c0      	nop			; (mov r8, r8)
 8003362:	46bd      	mov	sp, r7
 8003364:	b002      	add	sp, #8
 8003366:	bd80      	pop	{r7, pc}
 8003368:	e000e100 	.word	0xe000e100

0800336c <__NVIC_SetPriority>:
  \param [in]      IRQn  Interrupt number.
  \param [in]  priority  Priority to set.
  \note    The priority cannot be set for every processor exception.
 */
__STATIC_INLINE void __NVIC_SetPriority(IRQn_Type IRQn, uint32_t priority)
{
 800336c:	b590      	push	{r4, r7, lr}
 800336e:	b083      	sub	sp, #12
 8003370:	af00      	add	r7, sp, #0
 8003372:	0002      	movs	r2, r0
 8003374:	6039      	str	r1, [r7, #0]
 8003376:	1dfb      	adds	r3, r7, #7
 8003378:	701a      	strb	r2, [r3, #0]
  if ((int32_t)(IRQn) >= 0)
 800337a:	1dfb      	adds	r3, r7, #7
 800337c:	781b      	ldrb	r3, [r3, #0]
 800337e:	2b7f      	cmp	r3, #127	; 0x7f
 8003380:	d828      	bhi.n	80033d4 <__NVIC_SetPriority+0x68>
  {
    NVIC->IP[_IP_IDX(IRQn)]  = ((uint32_t)(NVIC->IP[_IP_IDX(IRQn)]  & ~(0xFFUL << _BIT_SHIFT(IRQn))) |
 8003382:	4a2f      	ldr	r2, [pc, #188]	; (8003440 <__NVIC_SetPriority+0xd4>)
 8003384:	1dfb      	adds	r3, r7, #7
 8003386:	781b      	ldrb	r3, [r3, #0]
 8003388:	b25b      	sxtb	r3, r3
 800338a:	089b      	lsrs	r3, r3, #2
 800338c:	33c0      	adds	r3, #192	; 0xc0
 800338e:	009b      	lsls	r3, r3, #2
 8003390:	589b      	ldr	r3, [r3, r2]
 8003392:	1dfa      	adds	r2, r7, #7
 8003394:	7812      	ldrb	r2, [r2, #0]
 8003396:	0011      	movs	r1, r2
 8003398:	2203      	movs	r2, #3
 800339a:	400a      	ands	r2, r1
 800339c:	00d2      	lsls	r2, r2, #3
 800339e:	21ff      	movs	r1, #255	; 0xff
 80033a0:	4091      	lsls	r1, r2
 80033a2:	000a      	movs	r2, r1
 80033a4:	43d2      	mvns	r2, r2
 80033a6:	401a      	ands	r2, r3
 80033a8:	0011      	movs	r1, r2
       (((priority << (8U - __NVIC_PRIO_BITS)) & (uint32_t)0xFFUL) << _BIT_SHIFT(IRQn)));
 80033aa:	683b      	ldr	r3, [r7, #0]
 80033ac:	019b      	lsls	r3, r3, #6
 80033ae:	22ff      	movs	r2, #255	; 0xff
 80033b0:	401a      	ands	r2, r3
 80033b2:	1dfb      	adds	r3, r7, #7
 80033b4:	781b      	ldrb	r3, [r3, #0]
 80033b6:	0018      	movs	r0, r3
 80033b8:	2303      	movs	r3, #3
 80033ba:	4003      	ands	r3, r0
 80033bc:	00db      	lsls	r3, r3, #3
 80033be:	409a      	lsls	r2, r3
    NVIC->IP[_IP_IDX(IRQn)]  = ((uint32_t)(NVIC->IP[_IP_IDX(IRQn)]  & ~(0xFFUL << _BIT_SHIFT(IRQn))) |
 80033c0:	481f      	ldr	r0, [pc, #124]	; (8003440 <__NVIC_SetPriority+0xd4>)
 80033c2:	1dfb      	adds	r3, r7, #7
 80033c4:	781b      	ldrb	r3, [r3, #0]
 80033c6:	b25b      	sxtb	r3, r3
 80033c8:	089b      	lsrs	r3, r3, #2
 80033ca:	430a      	orrs	r2, r1
 80033cc:	33c0      	adds	r3, #192	; 0xc0
 80033ce:	009b      	lsls	r3, r3, #2
 80033d0:	501a      	str	r2, [r3, r0]
  else
  {
    SCB->SHP[_SHP_IDX(IRQn)] = ((uint32_t)(SCB->SHP[_SHP_IDX(IRQn)] & ~(0xFFUL << _BIT_SHIFT(IRQn))) |
       (((priority << (8U - __NVIC_PRIO_BITS)) & (uint32_t)0xFFUL) << _BIT_SHIFT(IRQn)));
  }
}
 80033d2:	e031      	b.n	8003438 <__NVIC_SetPriority+0xcc>
    SCB->SHP[_SHP_IDX(IRQn)] = ((uint32_t)(SCB->SHP[_SHP_IDX(IRQn)] & ~(0xFFUL << _BIT_SHIFT(IRQn))) |
 80033d4:	4a1b      	ldr	r2, [pc, #108]	; (8003444 <__NVIC_SetPriority+0xd8>)
 80033d6:	1dfb      	adds	r3, r7, #7
 80033d8:	781b      	ldrb	r3, [r3, #0]
 80033da:	0019      	movs	r1, r3
 80033dc:	230f      	movs	r3, #15
 80033de:	400b      	ands	r3, r1
 80033e0:	3b08      	subs	r3, #8
 80033e2:	089b      	lsrs	r3, r3, #2
 80033e4:	3306      	adds	r3, #6
 80033e6:	009b      	lsls	r3, r3, #2
 80033e8:	18d3      	adds	r3, r2, r3
 80033ea:	3304      	adds	r3, #4
 80033ec:	681b      	ldr	r3, [r3, #0]
 80033ee:	1dfa      	adds	r2, r7, #7
 80033f0:	7812      	ldrb	r2, [r2, #0]
 80033f2:	0011      	movs	r1, r2
 80033f4:	2203      	movs	r2, #3
 80033f6:	400a      	ands	r2, r1
 80033f8:	00d2      	lsls	r2, r2, #3
 80033fa:	21ff      	movs	r1, #255	; 0xff
 80033fc:	4091      	lsls	r1, r2
 80033fe:	000a      	movs	r2, r1
 8003400:	43d2      	mvns	r2, r2
 8003402:	401a      	ands	r2, r3
 8003404:	0011      	movs	r1, r2
       (((priority << (8U - __NVIC_PRIO_BITS)) & (uint32_t)0xFFUL) << _BIT_SHIFT(IRQn)));
 8003406:	683b      	ldr	r3, [r7, #0]
 8003408:	019b      	lsls	r3, r3, #6
 800340a:	22ff      	movs	r2, #255	; 0xff
 800340c:	401a      	ands	r2, r3
 800340e:	1dfb      	adds	r3, r7, #7
 8003410:	781b      	ldrb	r3, [r3, #0]
 8003412:	0018      	movs	r0, r3
 8003414:	2303      	movs	r3, #3
 8003416:	4003      	ands	r3, r0
 8003418:	00db      	lsls	r3, r3, #3
 800341a:	409a      	lsls	r2, r3
    SCB->SHP[_SHP_IDX(IRQn)] = ((uint32_t)(SCB->SHP[_SHP_IDX(IRQn)] & ~(0xFFUL << _BIT_SHIFT(IRQn))) |
 800341c:	4809      	ldr	r0, [pc, #36]	; (8003444 <__NVIC_SetPriority+0xd8>)
 800341e:	1dfb      	adds	r3, r7, #7
 8003420:	781b      	ldrb	r3, [r3, #0]
 8003422:	001c      	movs	r4, r3
 8003424:	230f      	movs	r3, #15
 8003426:	4023      	ands	r3, r4
 8003428:	3b08      	subs	r3, #8
 800342a:	089b      	lsrs	r3, r3, #2
 800342c:	430a      	orrs	r2, r1
 800342e:	3306      	adds	r3, #6
 8003430:	009b      	lsls	r3, r3, #2
 8003432:	18c3      	adds	r3, r0, r3
 8003434:	3304      	adds	r3, #4
 8003436:	601a      	str	r2, [r3, #0]
}
 8003438:	46c0      	nop			; (mov r8, r8)
 800343a:	46bd      	mov	sp, r7
 800343c:	b003      	add	sp, #12
 800343e:	bd90      	pop	{r4, r7, pc}
 8003440:	e000e100 	.word	0xe000e100
 8003444:	e000ed00 	.word	0xe000ed00

08003448 <SysTick_Config>:
  \note    When the variable <b>__Vendor_SysTickConfig</b> is set to 1, then the
           function <b>SysTick_Config</b> is not included. In this case, the file <b><i>device</i>.h</b>
           must contain a vendor-specific implementation of this function.
 */
__STATIC_INLINE uint32_t SysTick_Config(uint32_t ticks)
{
 8003448:	b580      	push	{r7, lr}
 800344a:	b082      	sub	sp, #8
 800344c:	af00      	add	r7, sp, #0
 800344e:	6078      	str	r0, [r7, #4]
  if ((ticks - 1UL) > SysTick_LOAD_RELOAD_Msk)
 8003450:	687b      	ldr	r3, [r7, #4]
 8003452:	3b01      	subs	r3, #1
 8003454:	4a0c      	ldr	r2, [pc, #48]	; (8003488 <SysTick_Config+0x40>)
 8003456:	4293      	cmp	r3, r2
 8003458:	d901      	bls.n	800345e <SysTick_Config+0x16>
  {
    return (1UL);                                                   /* Reload value impossible */
 800345a:	2301      	movs	r3, #1
 800345c:	e010      	b.n	8003480 <SysTick_Config+0x38>
  }

  SysTick->LOAD  = (uint32_t)(ticks - 1UL);                         /* set reload register */
 800345e:	4b0b      	ldr	r3, [pc, #44]	; (800348c <SysTick_Config+0x44>)
 8003460:	687a      	ldr	r2, [r7, #4]
 8003462:	3a01      	subs	r2, #1
 8003464:	605a      	str	r2, [r3, #4]
  NVIC_SetPriority (SysTick_IRQn, (1UL << __NVIC_PRIO_BITS) - 1UL); /* set Priority for Systick Interrupt */
 8003466:	2301      	movs	r3, #1
 8003468:	425b      	negs	r3, r3
 800346a:	2103      	movs	r1, #3
 800346c:	0018      	movs	r0, r3
 800346e:	f7ff ff7d 	bl	800336c <__NVIC_SetPriority>
  SysTick->VAL   = 0UL;                                             /* Load the SysTick Counter Value */
 8003472:	4b06      	ldr	r3, [pc, #24]	; (800348c <SysTick_Config+0x44>)
 8003474:	2200      	movs	r2, #0
 8003476:	609a      	str	r2, [r3, #8]
  SysTick->CTRL  = SysTick_CTRL_CLKSOURCE_Msk |
 8003478:	4b04      	ldr	r3, [pc, #16]	; (800348c <SysTick_Config+0x44>)
 800347a:	2207      	movs	r2, #7
 800347c:	601a      	str	r2, [r3, #0]
                   SysTick_CTRL_TICKINT_Msk   |
                   SysTick_CTRL_ENABLE_Msk;                         /* Enable SysTick IRQ and SysTick Timer */
  return (0UL);                                                     /* Function successful */
 800347e:	2300      	movs	r3, #0
}
 8003480:	0018      	movs	r0, r3
 8003482:	46bd      	mov	sp, r7
 8003484:	b002      	add	sp, #8
 8003486:	bd80      	pop	{r7, pc}
 8003488:	00ffffff 	.word	0x00ffffff
 800348c:	e000e010 	.word	0xe000e010

08003490 <HAL_NVIC_SetPriority>:
  *         with stm32f0xx devices, this parameter is a dummy value and it is ignored, because 
  *         no subpriority supported in Cortex M0 based products.   
  * @retval None
  */
void HAL_NVIC_SetPriority(IRQn_Type IRQn, uint32_t PreemptPriority, uint32_t SubPriority)
{ 
 8003490:	b580      	push	{r7, lr}
 8003492:	b084      	sub	sp, #16
 8003494:	af00      	add	r7, sp, #0
 8003496:	60b9      	str	r1, [r7, #8]
 8003498:	607a      	str	r2, [r7, #4]
 800349a:	210f      	movs	r1, #15
 800349c:	187b      	adds	r3, r7, r1
 800349e:	1c02      	adds	r2, r0, #0
 80034a0:	701a      	strb	r2, [r3, #0]
  /* Check the parameters */
  assert_param(IS_NVIC_PREEMPTION_PRIORITY(PreemptPriority));
  NVIC_SetPriority(IRQn,PreemptPriority);
 80034a2:	68ba      	ldr	r2, [r7, #8]
 80034a4:	187b      	adds	r3, r7, r1
 80034a6:	781b      	ldrb	r3, [r3, #0]
 80034a8:	b25b      	sxtb	r3, r3
 80034aa:	0011      	movs	r1, r2
 80034ac:	0018      	movs	r0, r3
 80034ae:	f7ff ff5d 	bl	800336c <__NVIC_SetPriority>
}
 80034b2:	46c0      	nop			; (mov r8, r8)
 80034b4:	46bd      	mov	sp, r7
 80034b6:	b004      	add	sp, #16
 80034b8:	bd80      	pop	{r7, pc}

080034ba <HAL_NVIC_EnableIRQ>:
  *         This parameter can be an enumerator of IRQn_Type enumeration
  *         (For the complete STM32 Devices IRQ Channels list, please refer to the appropriate CMSIS device file (stm32f0xxxx.h))
  * @retval None
  */
void HAL_NVIC_EnableIRQ(IRQn_Type IRQn)
{
 80034ba:	b580      	push	{r7, lr}
 80034bc:	b082      	sub	sp, #8
 80034be:	af00      	add	r7, sp, #0
 80034c0:	0002      	movs	r2, r0
 80034c2:	1dfb      	adds	r3, r7, #7
 80034c4:	701a      	strb	r2, [r3, #0]
  /* Check the parameters */
  assert_param(IS_NVIC_DEVICE_IRQ(IRQn));
  
  /* Enable interrupt */
  NVIC_EnableIRQ(IRQn);
 80034c6:	1dfb      	adds	r3, r7, #7
 80034c8:	781b      	ldrb	r3, [r3, #0]
 80034ca:	b25b      	sxtb	r3, r3
 80034cc:	0018      	movs	r0, r3
 80034ce:	f7ff ff33 	bl	8003338 <__NVIC_EnableIRQ>
}
 80034d2:	46c0      	nop			; (mov r8, r8)
 80034d4:	46bd      	mov	sp, r7
 80034d6:	b002      	add	sp, #8
 80034d8:	bd80      	pop	{r7, pc}

080034da <HAL_SYSTICK_Config>:
  * @param  TicksNumb Specifies the ticks Number of ticks between two interrupts.
  * @retval status:  - 0  Function succeeded.
  *                  - 1  Function failed.
  */
uint32_t HAL_SYSTICK_Config(uint32_t TicksNumb)
{
 80034da:	b580      	push	{r7, lr}
 80034dc:	b082      	sub	sp, #8
 80034de:	af00      	add	r7, sp, #0
 80034e0:	6078      	str	r0, [r7, #4]
   return SysTick_Config(TicksNumb);
 80034e2:	687b      	ldr	r3, [r7, #4]
 80034e4:	0018      	movs	r0, r3
 80034e6:	f7ff ffaf 	bl	8003448 <SysTick_Config>
 80034ea:	0003      	movs	r3, r0
}
 80034ec:	0018      	movs	r0, r3
 80034ee:	46bd      	mov	sp, r7
 80034f0:	b002      	add	sp, #8
 80034f2:	bd80      	pop	{r7, pc}

080034f4 <HAL_GPIO_Init>:
  * @param  GPIO_Init pointer to a GPIO_InitTypeDef structure that contains
  *         the configuration information for the specified GPIO peripheral.
  * @retval None
  */
void HAL_GPIO_Init(GPIO_TypeDef  *GPIOx, GPIO_InitTypeDef *GPIO_Init)
{ 
 80034f4:	b580      	push	{r7, lr}
 80034f6:	b086      	sub	sp, #24
 80034f8:	af00      	add	r7, sp, #0
 80034fa:	6078      	str	r0, [r7, #4]
 80034fc:	6039      	str	r1, [r7, #0]
  uint32_t position = 0x00u;
 80034fe:	2300      	movs	r3, #0
 8003500:	617b      	str	r3, [r7, #20]
  assert_param(IS_GPIO_PIN(GPIO_Init->Pin));
  assert_param(IS_GPIO_MODE(GPIO_Init->Mode));
  assert_param(IS_GPIO_PULL(GPIO_Init->Pull));

  /* Configure the port pins */
  while (((GPIO_Init->Pin) >> position) != 0x00u)
 8003502:	e155      	b.n	80037b0 <HAL_GPIO_Init+0x2bc>
  {
    /* Get current io position */
    iocurrent = (GPIO_Init->Pin) & (1uL << position);
 8003504:	683b      	ldr	r3, [r7, #0]
 8003506:	681b      	ldr	r3, [r3, #0]
 8003508:	2101      	movs	r1, #1
 800350a:	697a      	ldr	r2, [r7, #20]
 800350c:	4091      	lsls	r1, r2
 800350e:	000a      	movs	r2, r1
 8003510:	4013      	ands	r3, r2
 8003512:	60fb      	str	r3, [r7, #12]

    if (iocurrent != 0x00u)
 8003514:	68fb      	ldr	r3, [r7, #12]
 8003516:	2b00      	cmp	r3, #0
 8003518:	d100      	bne.n	800351c <HAL_GPIO_Init+0x28>
 800351a:	e146      	b.n	80037aa <HAL_GPIO_Init+0x2b6>
    {
      /*--------------------- GPIO Mode Configuration ------------------------*/
      /* In case of Alternate function mode selection */
      if((GPIO_Init->Mode == GPIO_MODE_AF_PP) || (GPIO_Init->Mode == GPIO_MODE_AF_OD))
 800351c:	683b      	ldr	r3, [r7, #0]
 800351e:	685b      	ldr	r3, [r3, #4]
 8003520:	2b02      	cmp	r3, #2
 8003522:	d003      	beq.n	800352c <HAL_GPIO_Init+0x38>
 8003524:	683b      	ldr	r3, [r7, #0]
 8003526:	685b      	ldr	r3, [r3, #4]
 8003528:	2b12      	cmp	r3, #18
 800352a:	d123      	bne.n	8003574 <HAL_GPIO_Init+0x80>
        /* Check the Alternate function parameters */
        assert_param(IS_GPIO_AF_INSTANCE(GPIOx));
        assert_param(IS_GPIO_AF(GPIO_Init->Alternate));

        /* Configure Alternate function mapped with the current IO */
        temp = GPIOx->AFR[position >> 3u];
 800352c:	697b      	ldr	r3, [r7, #20]
 800352e:	08da      	lsrs	r2, r3, #3
 8003530:	687b      	ldr	r3, [r7, #4]
 8003532:	3208      	adds	r2, #8
 8003534:	0092      	lsls	r2, r2, #2
 8003536:	58d3      	ldr	r3, [r2, r3]
 8003538:	613b      	str	r3, [r7, #16]
        temp &= ~(0xFu << ((position & 0x07u) * 4u));
 800353a:	697b      	ldr	r3, [r7, #20]
 800353c:	2207      	movs	r2, #7
 800353e:	4013      	ands	r3, r2
 8003540:	009b      	lsls	r3, r3, #2
 8003542:	220f      	movs	r2, #15
 8003544:	409a      	lsls	r2, r3
 8003546:	0013      	movs	r3, r2
 8003548:	43da      	mvns	r2, r3
 800354a:	693b      	ldr	r3, [r7, #16]
 800354c:	4013      	ands	r3, r2
 800354e:	613b      	str	r3, [r7, #16]
        temp |= ((GPIO_Init->Alternate) << ((position & 0x07u) * 4u));
 8003550:	683b      	ldr	r3, [r7, #0]
 8003552:	691a      	ldr	r2, [r3, #16]
 8003554:	697b      	ldr	r3, [r7, #20]
 8003556:	2107      	movs	r1, #7
 8003558:	400b      	ands	r3, r1
 800355a:	009b      	lsls	r3, r3, #2
 800355c:	409a      	lsls	r2, r3
 800355e:	0013      	movs	r3, r2
 8003560:	693a      	ldr	r2, [r7, #16]
 8003562:	4313      	orrs	r3, r2
 8003564:	613b      	str	r3, [r7, #16]
        GPIOx->AFR[position >> 3u] = temp;
 8003566:	697b      	ldr	r3, [r7, #20]
 8003568:	08da      	lsrs	r2, r3, #3
 800356a:	687b      	ldr	r3, [r7, #4]
 800356c:	3208      	adds	r2, #8
 800356e:	0092      	lsls	r2, r2, #2
 8003570:	6939      	ldr	r1, [r7, #16]
 8003572:	50d1      	str	r1, [r2, r3]
      }

      /* Configure IO Direction mode (Input, Output, Alternate or Analog) */
      temp = GPIOx->MODER;
 8003574:	687b      	ldr	r3, [r7, #4]
 8003576:	681b      	ldr	r3, [r3, #0]
 8003578:	613b      	str	r3, [r7, #16]
      temp &= ~(GPIO_MODER_MODER0 << (position * 2u));
 800357a:	697b      	ldr	r3, [r7, #20]
 800357c:	005b      	lsls	r3, r3, #1
 800357e:	2203      	movs	r2, #3
 8003580:	409a      	lsls	r2, r3
 8003582:	0013      	movs	r3, r2
 8003584:	43da      	mvns	r2, r3
 8003586:	693b      	ldr	r3, [r7, #16]
 8003588:	4013      	ands	r3, r2
 800358a:	613b      	str	r3, [r7, #16]
      temp |= ((GPIO_Init->Mode & GPIO_MODE) << (position * 2u));
 800358c:	683b      	ldr	r3, [r7, #0]
 800358e:	685b      	ldr	r3, [r3, #4]
 8003590:	2203      	movs	r2, #3
 8003592:	401a      	ands	r2, r3
 8003594:	697b      	ldr	r3, [r7, #20]
 8003596:	005b      	lsls	r3, r3, #1
 8003598:	409a      	lsls	r2, r3
 800359a:	0013      	movs	r3, r2
 800359c:	693a      	ldr	r2, [r7, #16]
 800359e:	4313      	orrs	r3, r2
 80035a0:	613b      	str	r3, [r7, #16]
      GPIOx->MODER = temp;
 80035a2:	687b      	ldr	r3, [r7, #4]
 80035a4:	693a      	ldr	r2, [r7, #16]
 80035a6:	601a      	str	r2, [r3, #0]

      /* In case of Output or Alternate function mode selection */
      if((GPIO_Init->Mode == GPIO_MODE_OUTPUT_PP) || (GPIO_Init->Mode == GPIO_MODE_AF_PP) ||
 80035a8:	683b      	ldr	r3, [r7, #0]
 80035aa:	685b      	ldr	r3, [r3, #4]
 80035ac:	2b01      	cmp	r3, #1
 80035ae:	d00b      	beq.n	80035c8 <HAL_GPIO_Init+0xd4>
 80035b0:	683b      	ldr	r3, [r7, #0]
 80035b2:	685b      	ldr	r3, [r3, #4]
 80035b4:	2b02      	cmp	r3, #2
 80035b6:	d007      	beq.n	80035c8 <HAL_GPIO_Init+0xd4>
         (GPIO_Init->Mode == GPIO_MODE_OUTPUT_OD) || (GPIO_Init->Mode == GPIO_MODE_AF_OD))
 80035b8:	683b      	ldr	r3, [r7, #0]
 80035ba:	685b      	ldr	r3, [r3, #4]
      if((GPIO_Init->Mode == GPIO_MODE_OUTPUT_PP) || (GPIO_Init->Mode == GPIO_MODE_AF_PP) ||
 80035bc:	2b11      	cmp	r3, #17
 80035be:	d003      	beq.n	80035c8 <HAL_GPIO_Init+0xd4>
         (GPIO_Init->Mode == GPIO_MODE_OUTPUT_OD) || (GPIO_Init->Mode == GPIO_MODE_AF_OD))
 80035c0:	683b      	ldr	r3, [r7, #0]
 80035c2:	685b      	ldr	r3, [r3, #4]
 80035c4:	2b12      	cmp	r3, #18
 80035c6:	d130      	bne.n	800362a <HAL_GPIO_Init+0x136>
      {
        /* Check the Speed parameter */
        assert_param(IS_GPIO_SPEED(GPIO_Init->Speed));
        /* Configure the IO Speed */
        temp = GPIOx->OSPEEDR;
 80035c8:	687b      	ldr	r3, [r7, #4]
 80035ca:	689b      	ldr	r3, [r3, #8]
 80035cc:	613b      	str	r3, [r7, #16]
        temp &= ~(GPIO_OSPEEDER_OSPEEDR0 << (position * 2u));
 80035ce:	697b      	ldr	r3, [r7, #20]
 80035d0:	005b      	lsls	r3, r3, #1
 80035d2:	2203      	movs	r2, #3
 80035d4:	409a      	lsls	r2, r3
 80035d6:	0013      	movs	r3, r2
 80035d8:	43da      	mvns	r2, r3
 80035da:	693b      	ldr	r3, [r7, #16]
 80035dc:	4013      	ands	r3, r2
 80035de:	613b      	str	r3, [r7, #16]
        temp |= (GPIO_Init->Speed << (position * 2u));
 80035e0:	683b      	ldr	r3, [r7, #0]
 80035e2:	68da      	ldr	r2, [r3, #12]
 80035e4:	697b      	ldr	r3, [r7, #20]
 80035e6:	005b      	lsls	r3, r3, #1
 80035e8:	409a      	lsls	r2, r3
 80035ea:	0013      	movs	r3, r2
 80035ec:	693a      	ldr	r2, [r7, #16]
 80035ee:	4313      	orrs	r3, r2
 80035f0:	613b      	str	r3, [r7, #16]
        GPIOx->OSPEEDR = temp;
 80035f2:	687b      	ldr	r3, [r7, #4]
 80035f4:	693a      	ldr	r2, [r7, #16]
 80035f6:	609a      	str	r2, [r3, #8]

        /* Configure the IO Output Type */
        temp = GPIOx->OTYPER;
 80035f8:	687b      	ldr	r3, [r7, #4]
 80035fa:	685b      	ldr	r3, [r3, #4]
 80035fc:	613b      	str	r3, [r7, #16]
        temp &= ~(GPIO_OTYPER_OT_0 << position) ;
 80035fe:	2201      	movs	r2, #1
 8003600:	697b      	ldr	r3, [r7, #20]
 8003602:	409a      	lsls	r2, r3
 8003604:	0013      	movs	r3, r2
 8003606:	43da      	mvns	r2, r3
 8003608:	693b      	ldr	r3, [r7, #16]
 800360a:	4013      	ands	r3, r2
 800360c:	613b      	str	r3, [r7, #16]
        temp |= (((GPIO_Init->Mode & GPIO_OUTPUT_TYPE) >> 4u) << position);
 800360e:	683b      	ldr	r3, [r7, #0]
 8003610:	685b      	ldr	r3, [r3, #4]
 8003612:	091b      	lsrs	r3, r3, #4
 8003614:	2201      	movs	r2, #1
 8003616:	401a      	ands	r2, r3
 8003618:	697b      	ldr	r3, [r7, #20]
 800361a:	409a      	lsls	r2, r3
 800361c:	0013      	movs	r3, r2
 800361e:	693a      	ldr	r2, [r7, #16]
 8003620:	4313      	orrs	r3, r2
 8003622:	613b      	str	r3, [r7, #16]
        GPIOx->OTYPER = temp;
 8003624:	687b      	ldr	r3, [r7, #4]
 8003626:	693a      	ldr	r2, [r7, #16]
 8003628:	605a      	str	r2, [r3, #4]
      }

      /* Activate the Pull-up or Pull down resistor for the current IO */
      temp = GPIOx->PUPDR;
 800362a:	687b      	ldr	r3, [r7, #4]
 800362c:	68db      	ldr	r3, [r3, #12]
 800362e:	613b      	str	r3, [r7, #16]
      temp &= ~(GPIO_PUPDR_PUPDR0 << (position * 2u));
 8003630:	697b      	ldr	r3, [r7, #20]
 8003632:	005b      	lsls	r3, r3, #1
 8003634:	2203      	movs	r2, #3
 8003636:	409a      	lsls	r2, r3
 8003638:	0013      	movs	r3, r2
 800363a:	43da      	mvns	r2, r3
 800363c:	693b      	ldr	r3, [r7, #16]
 800363e:	4013      	ands	r3, r2
 8003640:	613b      	str	r3, [r7, #16]
      temp |= ((GPIO_Init->Pull) << (position * 2u));
 8003642:	683b      	ldr	r3, [r7, #0]
 8003644:	689a      	ldr	r2, [r3, #8]
 8003646:	697b      	ldr	r3, [r7, #20]
 8003648:	005b      	lsls	r3, r3, #1
 800364a:	409a      	lsls	r2, r3
 800364c:	0013      	movs	r3, r2
 800364e:	693a      	ldr	r2, [r7, #16]
 8003650:	4313      	orrs	r3, r2
 8003652:	613b      	str	r3, [r7, #16]
      GPIOx->PUPDR = temp;
 8003654:	687b      	ldr	r3, [r7, #4]
 8003656:	693a      	ldr	r2, [r7, #16]
 8003658:	60da      	str	r2, [r3, #12]

      /*--------------------- EXTI Mode Configuration ------------------------*/
      /* Configure the External Interrupt or event for the current IO */
      if((GPIO_Init->Mode & EXTI_MODE) == EXTI_MODE)
 800365a:	683b      	ldr	r3, [r7, #0]
 800365c:	685a      	ldr	r2, [r3, #4]
 800365e:	2380      	movs	r3, #128	; 0x80
 8003660:	055b      	lsls	r3, r3, #21
 8003662:	4013      	ands	r3, r2
 8003664:	d100      	bne.n	8003668 <HAL_GPIO_Init+0x174>
 8003666:	e0a0      	b.n	80037aa <HAL_GPIO_Init+0x2b6>
      {
        /* Enable SYSCFG Clock */
        __HAL_RCC_SYSCFG_CLK_ENABLE();
 8003668:	4b57      	ldr	r3, [pc, #348]	; (80037c8 <HAL_GPIO_Init+0x2d4>)
 800366a:	699a      	ldr	r2, [r3, #24]
 800366c:	4b56      	ldr	r3, [pc, #344]	; (80037c8 <HAL_GPIO_Init+0x2d4>)
 800366e:	2101      	movs	r1, #1
 8003670:	430a      	orrs	r2, r1
 8003672:	619a      	str	r2, [r3, #24]
 8003674:	4b54      	ldr	r3, [pc, #336]	; (80037c8 <HAL_GPIO_Init+0x2d4>)
 8003676:	699b      	ldr	r3, [r3, #24]
 8003678:	2201      	movs	r2, #1
 800367a:	4013      	ands	r3, r2
 800367c:	60bb      	str	r3, [r7, #8]
 800367e:	68bb      	ldr	r3, [r7, #8]

        temp = SYSCFG->EXTICR[position >> 2u];
 8003680:	4a52      	ldr	r2, [pc, #328]	; (80037cc <HAL_GPIO_Init+0x2d8>)
 8003682:	697b      	ldr	r3, [r7, #20]
 8003684:	089b      	lsrs	r3, r3, #2
 8003686:	3302      	adds	r3, #2
 8003688:	009b      	lsls	r3, r3, #2
 800368a:	589b      	ldr	r3, [r3, r2]
 800368c:	613b      	str	r3, [r7, #16]
        temp &= ~(0x0FuL << (4u * (position & 0x03u)));
 800368e:	697b      	ldr	r3, [r7, #20]
 8003690:	2203      	movs	r2, #3
 8003692:	4013      	ands	r3, r2
 8003694:	009b      	lsls	r3, r3, #2
 8003696:	220f      	movs	r2, #15
 8003698:	409a      	lsls	r2, r3
 800369a:	0013      	movs	r3, r2
 800369c:	43da      	mvns	r2, r3
 800369e:	693b      	ldr	r3, [r7, #16]
 80036a0:	4013      	ands	r3, r2
 80036a2:	613b      	str	r3, [r7, #16]
        temp |= (GPIO_GET_INDEX(GPIOx) << (4u * (position & 0x03u)));
 80036a4:	687a      	ldr	r2, [r7, #4]
 80036a6:	2390      	movs	r3, #144	; 0x90
 80036a8:	05db      	lsls	r3, r3, #23
 80036aa:	429a      	cmp	r2, r3
 80036ac:	d019      	beq.n	80036e2 <HAL_GPIO_Init+0x1ee>
 80036ae:	687b      	ldr	r3, [r7, #4]
 80036b0:	4a47      	ldr	r2, [pc, #284]	; (80037d0 <HAL_GPIO_Init+0x2dc>)
 80036b2:	4293      	cmp	r3, r2
 80036b4:	d013      	beq.n	80036de <HAL_GPIO_Init+0x1ea>
 80036b6:	687b      	ldr	r3, [r7, #4]
 80036b8:	4a46      	ldr	r2, [pc, #280]	; (80037d4 <HAL_GPIO_Init+0x2e0>)
 80036ba:	4293      	cmp	r3, r2
 80036bc:	d00d      	beq.n	80036da <HAL_GPIO_Init+0x1e6>
 80036be:	687b      	ldr	r3, [r7, #4]
 80036c0:	4a45      	ldr	r2, [pc, #276]	; (80037d8 <HAL_GPIO_Init+0x2e4>)
 80036c2:	4293      	cmp	r3, r2
 80036c4:	d007      	beq.n	80036d6 <HAL_GPIO_Init+0x1e2>
 80036c6:	687b      	ldr	r3, [r7, #4]
 80036c8:	4a44      	ldr	r2, [pc, #272]	; (80037dc <HAL_GPIO_Init+0x2e8>)
 80036ca:	4293      	cmp	r3, r2
 80036cc:	d101      	bne.n	80036d2 <HAL_GPIO_Init+0x1de>
 80036ce:	2304      	movs	r3, #4
 80036d0:	e008      	b.n	80036e4 <HAL_GPIO_Init+0x1f0>
 80036d2:	2305      	movs	r3, #5
 80036d4:	e006      	b.n	80036e4 <HAL_GPIO_Init+0x1f0>
 80036d6:	2303      	movs	r3, #3
 80036d8:	e004      	b.n	80036e4 <HAL_GPIO_Init+0x1f0>
 80036da:	2302      	movs	r3, #2
 80036dc:	e002      	b.n	80036e4 <HAL_GPIO_Init+0x1f0>
 80036de:	2301      	movs	r3, #1
 80036e0:	e000      	b.n	80036e4 <HAL_GPIO_Init+0x1f0>
 80036e2:	2300      	movs	r3, #0
 80036e4:	697a      	ldr	r2, [r7, #20]
 80036e6:	2103      	movs	r1, #3
 80036e8:	400a      	ands	r2, r1
 80036ea:	0092      	lsls	r2, r2, #2
 80036ec:	4093      	lsls	r3, r2
 80036ee:	693a      	ldr	r2, [r7, #16]
 80036f0:	4313      	orrs	r3, r2
 80036f2:	613b      	str	r3, [r7, #16]
        SYSCFG->EXTICR[position >> 2u] = temp;
 80036f4:	4935      	ldr	r1, [pc, #212]	; (80037cc <HAL_GPIO_Init+0x2d8>)
 80036f6:	697b      	ldr	r3, [r7, #20]
 80036f8:	089b      	lsrs	r3, r3, #2
 80036fa:	3302      	adds	r3, #2
 80036fc:	009b      	lsls	r3, r3, #2
 80036fe:	693a      	ldr	r2, [r7, #16]
 8003700:	505a      	str	r2, [r3, r1]

        /* Clear EXTI line configuration */
        temp = EXTI->IMR;
 8003702:	4b37      	ldr	r3, [pc, #220]	; (80037e0 <HAL_GPIO_Init+0x2ec>)
 8003704:	681b      	ldr	r3, [r3, #0]
 8003706:	613b      	str	r3, [r7, #16]
        temp &= ~(iocurrent);
 8003708:	68fb      	ldr	r3, [r7, #12]
 800370a:	43da      	mvns	r2, r3
 800370c:	693b      	ldr	r3, [r7, #16]
 800370e:	4013      	ands	r3, r2
 8003710:	613b      	str	r3, [r7, #16]
        if((GPIO_Init->Mode & GPIO_MODE_IT) == GPIO_MODE_IT)
 8003712:	683b      	ldr	r3, [r7, #0]
 8003714:	685a      	ldr	r2, [r3, #4]
 8003716:	2380      	movs	r3, #128	; 0x80
 8003718:	025b      	lsls	r3, r3, #9
 800371a:	4013      	ands	r3, r2
 800371c:	d003      	beq.n	8003726 <HAL_GPIO_Init+0x232>
        {
          temp |= iocurrent;
 800371e:	693a      	ldr	r2, [r7, #16]
 8003720:	68fb      	ldr	r3, [r7, #12]
 8003722:	4313      	orrs	r3, r2
 8003724:	613b      	str	r3, [r7, #16]
        }
        EXTI->IMR = temp;
 8003726:	4b2e      	ldr	r3, [pc, #184]	; (80037e0 <HAL_GPIO_Init+0x2ec>)
 8003728:	693a      	ldr	r2, [r7, #16]
 800372a:	601a      	str	r2, [r3, #0]

        temp = EXTI->EMR;
 800372c:	4b2c      	ldr	r3, [pc, #176]	; (80037e0 <HAL_GPIO_Init+0x2ec>)
 800372e:	685b      	ldr	r3, [r3, #4]
 8003730:	613b      	str	r3, [r7, #16]
        temp &= ~(iocurrent);
 8003732:	68fb      	ldr	r3, [r7, #12]
 8003734:	43da      	mvns	r2, r3
 8003736:	693b      	ldr	r3, [r7, #16]
 8003738:	4013      	ands	r3, r2
 800373a:	613b      	str	r3, [r7, #16]
        if((GPIO_Init->Mode & GPIO_MODE_EVT) == GPIO_MODE_EVT)
 800373c:	683b      	ldr	r3, [r7, #0]
 800373e:	685a      	ldr	r2, [r3, #4]
 8003740:	2380      	movs	r3, #128	; 0x80
 8003742:	029b      	lsls	r3, r3, #10
 8003744:	4013      	ands	r3, r2
 8003746:	d003      	beq.n	8003750 <HAL_GPIO_Init+0x25c>
        {
          temp |= iocurrent;
 8003748:	693a      	ldr	r2, [r7, #16]
 800374a:	68fb      	ldr	r3, [r7, #12]
 800374c:	4313      	orrs	r3, r2
 800374e:	613b      	str	r3, [r7, #16]
        }
        EXTI->EMR = temp;
 8003750:	4b23      	ldr	r3, [pc, #140]	; (80037e0 <HAL_GPIO_Init+0x2ec>)
 8003752:	693a      	ldr	r2, [r7, #16]
 8003754:	605a      	str	r2, [r3, #4]

        /* Clear Rising Falling edge configuration */
        temp = EXTI->RTSR;
 8003756:	4b22      	ldr	r3, [pc, #136]	; (80037e0 <HAL_GPIO_Init+0x2ec>)
 8003758:	689b      	ldr	r3, [r3, #8]
 800375a:	613b      	str	r3, [r7, #16]
        temp &= ~(iocurrent);
 800375c:	68fb      	ldr	r3, [r7, #12]
 800375e:	43da      	mvns	r2, r3
 8003760:	693b      	ldr	r3, [r7, #16]
 8003762:	4013      	ands	r3, r2
 8003764:	613b      	str	r3, [r7, #16]
        if((GPIO_Init->Mode & RISING_EDGE) == RISING_EDGE)
 8003766:	683b      	ldr	r3, [r7, #0]
 8003768:	685a      	ldr	r2, [r3, #4]
 800376a:	2380      	movs	r3, #128	; 0x80
 800376c:	035b      	lsls	r3, r3, #13
 800376e:	4013      	ands	r3, r2
 8003770:	d003      	beq.n	800377a <HAL_GPIO_Init+0x286>
        {
          temp |= iocurrent;
 8003772:	693a      	ldr	r2, [r7, #16]
 8003774:	68fb      	ldr	r3, [r7, #12]
 8003776:	4313      	orrs	r3, r2
 8003778:	613b      	str	r3, [r7, #16]
        }
        EXTI->RTSR = temp;
 800377a:	4b19      	ldr	r3, [pc, #100]	; (80037e0 <HAL_GPIO_Init+0x2ec>)
 800377c:	693a      	ldr	r2, [r7, #16]
 800377e:	609a      	str	r2, [r3, #8]

        temp = EXTI->FTSR;
 8003780:	4b17      	ldr	r3, [pc, #92]	; (80037e0 <HAL_GPIO_Init+0x2ec>)
 8003782:	68db      	ldr	r3, [r3, #12]
 8003784:	613b      	str	r3, [r7, #16]
        temp &= ~(iocurrent);
 8003786:	68fb      	ldr	r3, [r7, #12]
 8003788:	43da      	mvns	r2, r3
 800378a:	693b      	ldr	r3, [r7, #16]
 800378c:	4013      	ands	r3, r2
 800378e:	613b      	str	r3, [r7, #16]
        if((GPIO_Init->Mode & FALLING_EDGE) == FALLING_EDGE)
 8003790:	683b      	ldr	r3, [r7, #0]
 8003792:	685a      	ldr	r2, [r3, #4]
 8003794:	2380      	movs	r3, #128	; 0x80
 8003796:	039b      	lsls	r3, r3, #14
 8003798:	4013      	ands	r3, r2
 800379a:	d003      	beq.n	80037a4 <HAL_GPIO_Init+0x2b0>
        {
          temp |= iocurrent;
 800379c:	693a      	ldr	r2, [r7, #16]
 800379e:	68fb      	ldr	r3, [r7, #12]
 80037a0:	4313      	orrs	r3, r2
 80037a2:	613b      	str	r3, [r7, #16]
        }
        EXTI->FTSR = temp;
 80037a4:	4b0e      	ldr	r3, [pc, #56]	; (80037e0 <HAL_GPIO_Init+0x2ec>)
 80037a6:	693a      	ldr	r2, [r7, #16]
 80037a8:	60da      	str	r2, [r3, #12]
      }
    }

    position++;
 80037aa:	697b      	ldr	r3, [r7, #20]
 80037ac:	3301      	adds	r3, #1
 80037ae:	617b      	str	r3, [r7, #20]
  while (((GPIO_Init->Pin) >> position) != 0x00u)
 80037b0:	683b      	ldr	r3, [r7, #0]
 80037b2:	681a      	ldr	r2, [r3, #0]
 80037b4:	697b      	ldr	r3, [r7, #20]
 80037b6:	40da      	lsrs	r2, r3
 80037b8:	1e13      	subs	r3, r2, #0
 80037ba:	d000      	beq.n	80037be <HAL_GPIO_Init+0x2ca>
 80037bc:	e6a2      	b.n	8003504 <HAL_GPIO_Init+0x10>
  } 
}
 80037be:	46c0      	nop			; (mov r8, r8)
 80037c0:	46bd      	mov	sp, r7
 80037c2:	b006      	add	sp, #24
 80037c4:	bd80      	pop	{r7, pc}
 80037c6:	46c0      	nop			; (mov r8, r8)
 80037c8:	40021000 	.word	0x40021000
 80037cc:	40010000 	.word	0x40010000
 80037d0:	48000400 	.word	0x48000400
 80037d4:	48000800 	.word	0x48000800
 80037d8:	48000c00 	.word	0x48000c00
 80037dc:	48001000 	.word	0x48001000
 80037e0:	40010400 	.word	0x40010400

080037e4 <HAL_GPIO_ReadPin>:
  * @param  GPIO_Pin specifies the port bit to read.
  *         This parameter can be GPIO_PIN_x where x can be (0..15).
  * @retval The input port pin value.
  */
GPIO_PinState HAL_GPIO_ReadPin(GPIO_TypeDef* GPIOx, uint16_t GPIO_Pin)
{
 80037e4:	b580      	push	{r7, lr}
 80037e6:	b084      	sub	sp, #16
 80037e8:	af00      	add	r7, sp, #0
 80037ea:	6078      	str	r0, [r7, #4]
 80037ec:	000a      	movs	r2, r1
 80037ee:	1cbb      	adds	r3, r7, #2
 80037f0:	801a      	strh	r2, [r3, #0]
  GPIO_PinState bitstatus;

  /* Check the parameters */
  assert_param(IS_GPIO_PIN(GPIO_Pin));

  if ((GPIOx->IDR & GPIO_Pin) != (uint32_t)GPIO_PIN_RESET)
 80037f2:	687b      	ldr	r3, [r7, #4]
 80037f4:	691b      	ldr	r3, [r3, #16]
 80037f6:	1cba      	adds	r2, r7, #2
 80037f8:	8812      	ldrh	r2, [r2, #0]
 80037fa:	4013      	ands	r3, r2
 80037fc:	d004      	beq.n	8003808 <HAL_GPIO_ReadPin+0x24>
  {
    bitstatus = GPIO_PIN_SET;
 80037fe:	230f      	movs	r3, #15
 8003800:	18fb      	adds	r3, r7, r3
 8003802:	2201      	movs	r2, #1
 8003804:	701a      	strb	r2, [r3, #0]
 8003806:	e003      	b.n	8003810 <HAL_GPIO_ReadPin+0x2c>
  }
  else
  {
    bitstatus = GPIO_PIN_RESET;
 8003808:	230f      	movs	r3, #15
 800380a:	18fb      	adds	r3, r7, r3
 800380c:	2200      	movs	r2, #0
 800380e:	701a      	strb	r2, [r3, #0]
  }
  return bitstatus;
 8003810:	230f      	movs	r3, #15
 8003812:	18fb      	adds	r3, r7, r3
 8003814:	781b      	ldrb	r3, [r3, #0]
  }
 8003816:	0018      	movs	r0, r3
 8003818:	46bd      	mov	sp, r7
 800381a:	b004      	add	sp, #16
 800381c:	bd80      	pop	{r7, pc}

0800381e <HAL_GPIO_WritePin>:
  *            @arg GPIO_PIN_RESET: to clear the port pin
  *            @arg GPIO_PIN_SET: to set the port pin
  * @retval None
  */
void HAL_GPIO_WritePin(GPIO_TypeDef* GPIOx, uint16_t GPIO_Pin, GPIO_PinState PinState)
{
 800381e:	b580      	push	{r7, lr}
 8003820:	b082      	sub	sp, #8
 8003822:	af00      	add	r7, sp, #0
 8003824:	6078      	str	r0, [r7, #4]
 8003826:	0008      	movs	r0, r1
 8003828:	0011      	movs	r1, r2
 800382a:	1cbb      	adds	r3, r7, #2
 800382c:	1c02      	adds	r2, r0, #0
 800382e:	801a      	strh	r2, [r3, #0]
 8003830:	1c7b      	adds	r3, r7, #1
 8003832:	1c0a      	adds	r2, r1, #0
 8003834:	701a      	strb	r2, [r3, #0]
  /* Check the parameters */
  assert_param(IS_GPIO_PIN(GPIO_Pin));
  assert_param(IS_GPIO_PIN_ACTION(PinState));

  if (PinState != GPIO_PIN_RESET)
 8003836:	1c7b      	adds	r3, r7, #1
 8003838:	781b      	ldrb	r3, [r3, #0]
 800383a:	2b00      	cmp	r3, #0
 800383c:	d004      	beq.n	8003848 <HAL_GPIO_WritePin+0x2a>
  {
    GPIOx->BSRR = (uint32_t)GPIO_Pin;
 800383e:	1cbb      	adds	r3, r7, #2
 8003840:	881a      	ldrh	r2, [r3, #0]
 8003842:	687b      	ldr	r3, [r7, #4]
 8003844:	619a      	str	r2, [r3, #24]
  }
  else
  {
    GPIOx->BRR = (uint32_t)GPIO_Pin;
  }
}
 8003846:	e003      	b.n	8003850 <HAL_GPIO_WritePin+0x32>
    GPIOx->BRR = (uint32_t)GPIO_Pin;
 8003848:	1cbb      	adds	r3, r7, #2
 800384a:	881a      	ldrh	r2, [r3, #0]
 800384c:	687b      	ldr	r3, [r7, #4]
 800384e:	629a      	str	r2, [r3, #40]	; 0x28
}
 8003850:	46c0      	nop			; (mov r8, r8)
 8003852:	46bd      	mov	sp, r7
 8003854:	b002      	add	sp, #8
 8003856:	bd80      	pop	{r7, pc}

08003858 <HAL_GPIO_TogglePin>:
  * @param  GPIOx where x can be (A..F) to select the GPIO peripheral for STM32F0 family
  * @param  GPIO_Pin specifies the pin to be toggled.
  * @retval None
  */
void HAL_GPIO_TogglePin(GPIO_TypeDef* GPIOx, uint16_t GPIO_Pin)
{
 8003858:	b580      	push	{r7, lr}
 800385a:	b082      	sub	sp, #8
 800385c:	af00      	add	r7, sp, #0
 800385e:	6078      	str	r0, [r7, #4]
 8003860:	000a      	movs	r2, r1
 8003862:	1cbb      	adds	r3, r7, #2
 8003864:	801a      	strh	r2, [r3, #0]
  /* Check the parameters */
  assert_param(IS_GPIO_PIN(GPIO_Pin));

  if ((GPIOx->ODR & GPIO_Pin) != 0X00u)
 8003866:	687b      	ldr	r3, [r7, #4]
 8003868:	695b      	ldr	r3, [r3, #20]
 800386a:	1cba      	adds	r2, r7, #2
 800386c:	8812      	ldrh	r2, [r2, #0]
 800386e:	4013      	ands	r3, r2
 8003870:	d005      	beq.n	800387e <HAL_GPIO_TogglePin+0x26>
  {
    GPIOx->BSRR = (uint32_t)GPIO_Pin << GPIO_NUMBER;
 8003872:	1cbb      	adds	r3, r7, #2
 8003874:	881b      	ldrh	r3, [r3, #0]
 8003876:	041a      	lsls	r2, r3, #16
 8003878:	687b      	ldr	r3, [r7, #4]
 800387a:	619a      	str	r2, [r3, #24]
  }
  else
  {
    GPIOx->BSRR = (uint32_t)GPIO_Pin;
  }
}
 800387c:	e003      	b.n	8003886 <HAL_GPIO_TogglePin+0x2e>
    GPIOx->BSRR = (uint32_t)GPIO_Pin;
 800387e:	1cbb      	adds	r3, r7, #2
 8003880:	881a      	ldrh	r2, [r3, #0]
 8003882:	687b      	ldr	r3, [r7, #4]
 8003884:	619a      	str	r2, [r3, #24]
}
 8003886:	46c0      	nop			; (mov r8, r8)
 8003888:	46bd      	mov	sp, r7
 800388a:	b002      	add	sp, #8
 800388c:	bd80      	pop	{r7, pc}
	...

08003890 <HAL_GPIO_EXTI_IRQHandler>:
  * @brief  Handle EXTI interrupt request.
  * @param  GPIO_Pin Specifies the port pin connected to corresponding EXTI line.
  * @retval None
  */
void HAL_GPIO_EXTI_IRQHandler(uint16_t GPIO_Pin)
{
 8003890:	b580      	push	{r7, lr}
 8003892:	b082      	sub	sp, #8
 8003894:	af00      	add	r7, sp, #0
 8003896:	0002      	movs	r2, r0
 8003898:	1dbb      	adds	r3, r7, #6
 800389a:	801a      	strh	r2, [r3, #0]
  /* EXTI line interrupt detected */
  if(__HAL_GPIO_EXTI_GET_IT(GPIO_Pin) != 0x00u)
 800389c:	4b09      	ldr	r3, [pc, #36]	; (80038c4 <HAL_GPIO_EXTI_IRQHandler+0x34>)
 800389e:	695b      	ldr	r3, [r3, #20]
 80038a0:	1dba      	adds	r2, r7, #6
 80038a2:	8812      	ldrh	r2, [r2, #0]
 80038a4:	4013      	ands	r3, r2
 80038a6:	d008      	beq.n	80038ba <HAL_GPIO_EXTI_IRQHandler+0x2a>
  { 
    __HAL_GPIO_EXTI_CLEAR_IT(GPIO_Pin);
 80038a8:	4b06      	ldr	r3, [pc, #24]	; (80038c4 <HAL_GPIO_EXTI_IRQHandler+0x34>)
 80038aa:	1dba      	adds	r2, r7, #6
 80038ac:	8812      	ldrh	r2, [r2, #0]
 80038ae:	615a      	str	r2, [r3, #20]
    HAL_GPIO_EXTI_Callback(GPIO_Pin);
 80038b0:	1dbb      	adds	r3, r7, #6
 80038b2:	881b      	ldrh	r3, [r3, #0]
 80038b4:	0018      	movs	r0, r3
 80038b6:	f000 f807 	bl	80038c8 <HAL_GPIO_EXTI_Callback>
  }
}
 80038ba:	46c0      	nop			; (mov r8, r8)
 80038bc:	46bd      	mov	sp, r7
 80038be:	b002      	add	sp, #8
 80038c0:	bd80      	pop	{r7, pc}
 80038c2:	46c0      	nop			; (mov r8, r8)
 80038c4:	40010400 	.word	0x40010400

080038c8 <HAL_GPIO_EXTI_Callback>:
  * @brief  EXTI line detection callback.
  * @param  GPIO_Pin Specifies the port pin connected to corresponding EXTI line.
  * @retval None
  */
__weak void HAL_GPIO_EXTI_Callback(uint16_t GPIO_Pin)
{
 80038c8:	b580      	push	{r7, lr}
 80038ca:	b082      	sub	sp, #8
 80038cc:	af00      	add	r7, sp, #0
 80038ce:	0002      	movs	r2, r0
 80038d0:	1dbb      	adds	r3, r7, #6
 80038d2:	801a      	strh	r2, [r3, #0]
  UNUSED(GPIO_Pin);

  /* NOTE: This function should not be modified, when the callback is needed,
            the HAL_GPIO_EXTI_Callback could be implemented in the user file
   */ 
}
 80038d4:	46c0      	nop			; (mov r8, r8)
 80038d6:	46bd      	mov	sp, r7
 80038d8:	b002      	add	sp, #8
 80038da:	bd80      	pop	{r7, pc}

080038dc <HAL_RCC_OscConfig>:
  *         supported by this macro. User should request a transition to HSE Off
  *         first and then HSE On or HSE Bypass.
  * @retval HAL status
  */
HAL_StatusTypeDef HAL_RCC_OscConfig(RCC_OscInitTypeDef  *RCC_OscInitStruct)
{
 80038dc:	b580      	push	{r7, lr}
 80038de:	b088      	sub	sp, #32
 80038e0:	af00      	add	r7, sp, #0
 80038e2:	6078      	str	r0, [r7, #4]
  uint32_t tickstart;
  uint32_t pll_config;
  uint32_t pll_config2;

  /* Check Null pointer */
  if(RCC_OscInitStruct == NULL)
 80038e4:	687b      	ldr	r3, [r7, #4]
 80038e6:	2b00      	cmp	r3, #0
 80038e8:	d102      	bne.n	80038f0 <HAL_RCC_OscConfig+0x14>
  {
    return HAL_ERROR;
 80038ea:	2301      	movs	r3, #1
 80038ec:	f000 fb76 	bl	8003fdc <HAL_RCC_OscConfig+0x700>

  /* Check the parameters */
  assert_param(IS_RCC_OSCILLATORTYPE(RCC_OscInitStruct->OscillatorType));

  /*------------------------------- HSE Configuration ------------------------*/ 
  if(((RCC_OscInitStruct->OscillatorType) & RCC_OSCILLATORTYPE_HSE) == RCC_OSCILLATORTYPE_HSE)
 80038f0:	687b      	ldr	r3, [r7, #4]
 80038f2:	681b      	ldr	r3, [r3, #0]
 80038f4:	2201      	movs	r2, #1
 80038f6:	4013      	ands	r3, r2
 80038f8:	d100      	bne.n	80038fc <HAL_RCC_OscConfig+0x20>
 80038fa:	e08e      	b.n	8003a1a <HAL_RCC_OscConfig+0x13e>
  {
    /* Check the parameters */
    assert_param(IS_RCC_HSE(RCC_OscInitStruct->HSEState));

    /* When the HSE is used as system clock or clock source for PLL in these cases it is not allowed to be disabled */
    if((__HAL_RCC_GET_SYSCLK_SOURCE() == RCC_SYSCLKSOURCE_STATUS_HSE) 
 80038fc:	4bc5      	ldr	r3, [pc, #788]	; (8003c14 <HAL_RCC_OscConfig+0x338>)
 80038fe:	685b      	ldr	r3, [r3, #4]
 8003900:	220c      	movs	r2, #12
 8003902:	4013      	ands	r3, r2
 8003904:	2b04      	cmp	r3, #4
 8003906:	d00e      	beq.n	8003926 <HAL_RCC_OscConfig+0x4a>
       || ((__HAL_RCC_GET_SYSCLK_SOURCE() == RCC_SYSCLKSOURCE_STATUS_PLLCLK) && (__HAL_RCC_GET_PLL_OSCSOURCE() == RCC_PLLSOURCE_HSE)))
 8003908:	4bc2      	ldr	r3, [pc, #776]	; (8003c14 <HAL_RCC_OscConfig+0x338>)
 800390a:	685b      	ldr	r3, [r3, #4]
 800390c:	220c      	movs	r2, #12
 800390e:	4013      	ands	r3, r2
 8003910:	2b08      	cmp	r3, #8
 8003912:	d117      	bne.n	8003944 <HAL_RCC_OscConfig+0x68>
 8003914:	4bbf      	ldr	r3, [pc, #764]	; (8003c14 <HAL_RCC_OscConfig+0x338>)
 8003916:	685a      	ldr	r2, [r3, #4]
 8003918:	23c0      	movs	r3, #192	; 0xc0
 800391a:	025b      	lsls	r3, r3, #9
 800391c:	401a      	ands	r2, r3
 800391e:	2380      	movs	r3, #128	; 0x80
 8003920:	025b      	lsls	r3, r3, #9
 8003922:	429a      	cmp	r2, r3
 8003924:	d10e      	bne.n	8003944 <HAL_RCC_OscConfig+0x68>
    {
      if((__HAL_RCC_GET_FLAG(RCC_FLAG_HSERDY) != RESET) && (RCC_OscInitStruct->HSEState == RCC_HSE_OFF))
 8003926:	4bbb      	ldr	r3, [pc, #748]	; (8003c14 <HAL_RCC_OscConfig+0x338>)
 8003928:	681a      	ldr	r2, [r3, #0]
 800392a:	2380      	movs	r3, #128	; 0x80
 800392c:	029b      	lsls	r3, r3, #10
 800392e:	4013      	ands	r3, r2
 8003930:	d100      	bne.n	8003934 <HAL_RCC_OscConfig+0x58>
 8003932:	e071      	b.n	8003a18 <HAL_RCC_OscConfig+0x13c>
 8003934:	687b      	ldr	r3, [r7, #4]
 8003936:	685b      	ldr	r3, [r3, #4]
 8003938:	2b00      	cmp	r3, #0
 800393a:	d000      	beq.n	800393e <HAL_RCC_OscConfig+0x62>
 800393c:	e06c      	b.n	8003a18 <HAL_RCC_OscConfig+0x13c>
      {
        return HAL_ERROR;
 800393e:	2301      	movs	r3, #1
 8003940:	f000 fb4c 	bl	8003fdc <HAL_RCC_OscConfig+0x700>
      }
    }
    else
    {
      /* Set the new HSE configuration ---------------------------------------*/
      __HAL_RCC_HSE_CONFIG(RCC_OscInitStruct->HSEState);
 8003944:	687b      	ldr	r3, [r7, #4]
 8003946:	685b      	ldr	r3, [r3, #4]
 8003948:	2b01      	cmp	r3, #1
 800394a:	d107      	bne.n	800395c <HAL_RCC_OscConfig+0x80>
 800394c:	4bb1      	ldr	r3, [pc, #708]	; (8003c14 <HAL_RCC_OscConfig+0x338>)
 800394e:	681a      	ldr	r2, [r3, #0]
 8003950:	4bb0      	ldr	r3, [pc, #704]	; (8003c14 <HAL_RCC_OscConfig+0x338>)
 8003952:	2180      	movs	r1, #128	; 0x80
 8003954:	0249      	lsls	r1, r1, #9
 8003956:	430a      	orrs	r2, r1
 8003958:	601a      	str	r2, [r3, #0]
 800395a:	e02f      	b.n	80039bc <HAL_RCC_OscConfig+0xe0>
 800395c:	687b      	ldr	r3, [r7, #4]
 800395e:	685b      	ldr	r3, [r3, #4]
 8003960:	2b00      	cmp	r3, #0
 8003962:	d10c      	bne.n	800397e <HAL_RCC_OscConfig+0xa2>
 8003964:	4bab      	ldr	r3, [pc, #684]	; (8003c14 <HAL_RCC_OscConfig+0x338>)
 8003966:	681a      	ldr	r2, [r3, #0]
 8003968:	4baa      	ldr	r3, [pc, #680]	; (8003c14 <HAL_RCC_OscConfig+0x338>)
 800396a:	49ab      	ldr	r1, [pc, #684]	; (8003c18 <HAL_RCC_OscConfig+0x33c>)
 800396c:	400a      	ands	r2, r1
 800396e:	601a      	str	r2, [r3, #0]
 8003970:	4ba8      	ldr	r3, [pc, #672]	; (8003c14 <HAL_RCC_OscConfig+0x338>)
 8003972:	681a      	ldr	r2, [r3, #0]
 8003974:	4ba7      	ldr	r3, [pc, #668]	; (8003c14 <HAL_RCC_OscConfig+0x338>)
 8003976:	49a9      	ldr	r1, [pc, #676]	; (8003c1c <HAL_RCC_OscConfig+0x340>)
 8003978:	400a      	ands	r2, r1
 800397a:	601a      	str	r2, [r3, #0]
 800397c:	e01e      	b.n	80039bc <HAL_RCC_OscConfig+0xe0>
 800397e:	687b      	ldr	r3, [r7, #4]
 8003980:	685b      	ldr	r3, [r3, #4]
 8003982:	2b05      	cmp	r3, #5
 8003984:	d10e      	bne.n	80039a4 <HAL_RCC_OscConfig+0xc8>
 8003986:	4ba3      	ldr	r3, [pc, #652]	; (8003c14 <HAL_RCC_OscConfig+0x338>)
 8003988:	681a      	ldr	r2, [r3, #0]
 800398a:	4ba2      	ldr	r3, [pc, #648]	; (8003c14 <HAL_RCC_OscConfig+0x338>)
 800398c:	2180      	movs	r1, #128	; 0x80
 800398e:	02c9      	lsls	r1, r1, #11
 8003990:	430a      	orrs	r2, r1
 8003992:	601a      	str	r2, [r3, #0]
 8003994:	4b9f      	ldr	r3, [pc, #636]	; (8003c14 <HAL_RCC_OscConfig+0x338>)
 8003996:	681a      	ldr	r2, [r3, #0]
 8003998:	4b9e      	ldr	r3, [pc, #632]	; (8003c14 <HAL_RCC_OscConfig+0x338>)
 800399a:	2180      	movs	r1, #128	; 0x80
 800399c:	0249      	lsls	r1, r1, #9
 800399e:	430a      	orrs	r2, r1
 80039a0:	601a      	str	r2, [r3, #0]
 80039a2:	e00b      	b.n	80039bc <HAL_RCC_OscConfig+0xe0>
 80039a4:	4b9b      	ldr	r3, [pc, #620]	; (8003c14 <HAL_RCC_OscConfig+0x338>)
 80039a6:	681a      	ldr	r2, [r3, #0]
 80039a8:	4b9a      	ldr	r3, [pc, #616]	; (8003c14 <HAL_RCC_OscConfig+0x338>)
 80039aa:	499b      	ldr	r1, [pc, #620]	; (8003c18 <HAL_RCC_OscConfig+0x33c>)
 80039ac:	400a      	ands	r2, r1
 80039ae:	601a      	str	r2, [r3, #0]
 80039b0:	4b98      	ldr	r3, [pc, #608]	; (8003c14 <HAL_RCC_OscConfig+0x338>)
 80039b2:	681a      	ldr	r2, [r3, #0]
 80039b4:	4b97      	ldr	r3, [pc, #604]	; (8003c14 <HAL_RCC_OscConfig+0x338>)
 80039b6:	4999      	ldr	r1, [pc, #612]	; (8003c1c <HAL_RCC_OscConfig+0x340>)
 80039b8:	400a      	ands	r2, r1
 80039ba:	601a      	str	r2, [r3, #0]
      

       /* Check the HSE State */
      if(RCC_OscInitStruct->HSEState != RCC_HSE_OFF)
 80039bc:	687b      	ldr	r3, [r7, #4]
 80039be:	685b      	ldr	r3, [r3, #4]
 80039c0:	2b00      	cmp	r3, #0
 80039c2:	d014      	beq.n	80039ee <HAL_RCC_OscConfig+0x112>
      {
        /* Get Start Tick */
        tickstart = HAL_GetTick();
 80039c4:	f7ff f832 	bl	8002a2c <HAL_GetTick>
 80039c8:	0003      	movs	r3, r0
 80039ca:	61bb      	str	r3, [r7, #24]
        
        /* Wait till HSE is ready */
        while(__HAL_RCC_GET_FLAG(RCC_FLAG_HSERDY) == RESET)
 80039cc:	e008      	b.n	80039e0 <HAL_RCC_OscConfig+0x104>
        {
          if((HAL_GetTick() - tickstart ) > HSE_TIMEOUT_VALUE)
 80039ce:	f7ff f82d 	bl	8002a2c <HAL_GetTick>
 80039d2:	0002      	movs	r2, r0
 80039d4:	69bb      	ldr	r3, [r7, #24]
 80039d6:	1ad3      	subs	r3, r2, r3
 80039d8:	2b64      	cmp	r3, #100	; 0x64
 80039da:	d901      	bls.n	80039e0 <HAL_RCC_OscConfig+0x104>
          {
            return HAL_TIMEOUT;
 80039dc:	2303      	movs	r3, #3
 80039de:	e2fd      	b.n	8003fdc <HAL_RCC_OscConfig+0x700>
        while(__HAL_RCC_GET_FLAG(RCC_FLAG_HSERDY) == RESET)
 80039e0:	4b8c      	ldr	r3, [pc, #560]	; (8003c14 <HAL_RCC_OscConfig+0x338>)
 80039e2:	681a      	ldr	r2, [r3, #0]
 80039e4:	2380      	movs	r3, #128	; 0x80
 80039e6:	029b      	lsls	r3, r3, #10
 80039e8:	4013      	ands	r3, r2
 80039ea:	d0f0      	beq.n	80039ce <HAL_RCC_OscConfig+0xf2>
 80039ec:	e015      	b.n	8003a1a <HAL_RCC_OscConfig+0x13e>
        }
      }
      else
      {
        /* Get Start Tick */
        tickstart = HAL_GetTick();
 80039ee:	f7ff f81d 	bl	8002a2c <HAL_GetTick>
 80039f2:	0003      	movs	r3, r0
 80039f4:	61bb      	str	r3, [r7, #24]
        
        /* Wait till HSE is disabled */
        while(__HAL_RCC_GET_FLAG(RCC_FLAG_HSERDY) != RESET)
 80039f6:	e008      	b.n	8003a0a <HAL_RCC_OscConfig+0x12e>
        {
           if((HAL_GetTick() - tickstart ) > HSE_TIMEOUT_VALUE)
 80039f8:	f7ff f818 	bl	8002a2c <HAL_GetTick>
 80039fc:	0002      	movs	r2, r0
 80039fe:	69bb      	ldr	r3, [r7, #24]
 8003a00:	1ad3      	subs	r3, r2, r3
 8003a02:	2b64      	cmp	r3, #100	; 0x64
 8003a04:	d901      	bls.n	8003a0a <HAL_RCC_OscConfig+0x12e>
          {
            return HAL_TIMEOUT;
 8003a06:	2303      	movs	r3, #3
 8003a08:	e2e8      	b.n	8003fdc <HAL_RCC_OscConfig+0x700>
        while(__HAL_RCC_GET_FLAG(RCC_FLAG_HSERDY) != RESET)
 8003a0a:	4b82      	ldr	r3, [pc, #520]	; (8003c14 <HAL_RCC_OscConfig+0x338>)
 8003a0c:	681a      	ldr	r2, [r3, #0]
 8003a0e:	2380      	movs	r3, #128	; 0x80
 8003a10:	029b      	lsls	r3, r3, #10
 8003a12:	4013      	ands	r3, r2
 8003a14:	d1f0      	bne.n	80039f8 <HAL_RCC_OscConfig+0x11c>
 8003a16:	e000      	b.n	8003a1a <HAL_RCC_OscConfig+0x13e>
      if((__HAL_RCC_GET_FLAG(RCC_FLAG_HSERDY) != RESET) && (RCC_OscInitStruct->HSEState == RCC_HSE_OFF))
 8003a18:	46c0      	nop			; (mov r8, r8)
        }
      }
    }
  }
  /*----------------------------- HSI Configuration --------------------------*/ 
  if(((RCC_OscInitStruct->OscillatorType) & RCC_OSCILLATORTYPE_HSI) == RCC_OSCILLATORTYPE_HSI)
 8003a1a:	687b      	ldr	r3, [r7, #4]
 8003a1c:	681b      	ldr	r3, [r3, #0]
 8003a1e:	2202      	movs	r2, #2
 8003a20:	4013      	ands	r3, r2
 8003a22:	d100      	bne.n	8003a26 <HAL_RCC_OscConfig+0x14a>
 8003a24:	e06c      	b.n	8003b00 <HAL_RCC_OscConfig+0x224>
    /* Check the parameters */
    assert_param(IS_RCC_HSI(RCC_OscInitStruct->HSIState));
    assert_param(IS_RCC_CALIBRATION_VALUE(RCC_OscInitStruct->HSICalibrationValue));
    
    /* Check if HSI is used as system clock or as PLL source when PLL is selected as system clock */ 
    if((__HAL_RCC_GET_SYSCLK_SOURCE() == RCC_SYSCLKSOURCE_STATUS_HSI) 
 8003a26:	4b7b      	ldr	r3, [pc, #492]	; (8003c14 <HAL_RCC_OscConfig+0x338>)
 8003a28:	685b      	ldr	r3, [r3, #4]
 8003a2a:	220c      	movs	r2, #12
 8003a2c:	4013      	ands	r3, r2
 8003a2e:	d00e      	beq.n	8003a4e <HAL_RCC_OscConfig+0x172>
       || ((__HAL_RCC_GET_SYSCLK_SOURCE() == RCC_SYSCLKSOURCE_STATUS_PLLCLK) && (__HAL_RCC_GET_PLL_OSCSOURCE() == RCC_PLLSOURCE_HSI)))
 8003a30:	4b78      	ldr	r3, [pc, #480]	; (8003c14 <HAL_RCC_OscConfig+0x338>)
 8003a32:	685b      	ldr	r3, [r3, #4]
 8003a34:	220c      	movs	r2, #12
 8003a36:	4013      	ands	r3, r2
 8003a38:	2b08      	cmp	r3, #8
 8003a3a:	d11f      	bne.n	8003a7c <HAL_RCC_OscConfig+0x1a0>
 8003a3c:	4b75      	ldr	r3, [pc, #468]	; (8003c14 <HAL_RCC_OscConfig+0x338>)
 8003a3e:	685a      	ldr	r2, [r3, #4]
 8003a40:	23c0      	movs	r3, #192	; 0xc0
 8003a42:	025b      	lsls	r3, r3, #9
 8003a44:	401a      	ands	r2, r3
 8003a46:	2380      	movs	r3, #128	; 0x80
 8003a48:	021b      	lsls	r3, r3, #8
 8003a4a:	429a      	cmp	r2, r3
 8003a4c:	d116      	bne.n	8003a7c <HAL_RCC_OscConfig+0x1a0>
    {
      /* When HSI is used as system clock it will not disabled */
      if((__HAL_RCC_GET_FLAG(RCC_FLAG_HSIRDY) != RESET) && (RCC_OscInitStruct->HSIState != RCC_HSI_ON))
 8003a4e:	4b71      	ldr	r3, [pc, #452]	; (8003c14 <HAL_RCC_OscConfig+0x338>)
 8003a50:	681b      	ldr	r3, [r3, #0]
 8003a52:	2202      	movs	r2, #2
 8003a54:	4013      	ands	r3, r2
 8003a56:	d005      	beq.n	8003a64 <HAL_RCC_OscConfig+0x188>
 8003a58:	687b      	ldr	r3, [r7, #4]
 8003a5a:	68db      	ldr	r3, [r3, #12]
 8003a5c:	2b01      	cmp	r3, #1
 8003a5e:	d001      	beq.n	8003a64 <HAL_RCC_OscConfig+0x188>
      {
        return HAL_ERROR;
 8003a60:	2301      	movs	r3, #1
 8003a62:	e2bb      	b.n	8003fdc <HAL_RCC_OscConfig+0x700>
      }
      /* Otherwise, just the calibration is allowed */
      else
      {
        /* Adjusts the Internal High Speed oscillator (HSI) calibration value.*/
        __HAL_RCC_HSI_CALIBRATIONVALUE_ADJUST(RCC_OscInitStruct->HSICalibrationValue);
 8003a64:	4b6b      	ldr	r3, [pc, #428]	; (8003c14 <HAL_RCC_OscConfig+0x338>)
 8003a66:	681b      	ldr	r3, [r3, #0]
 8003a68:	22f8      	movs	r2, #248	; 0xf8
 8003a6a:	4393      	bics	r3, r2
 8003a6c:	0019      	movs	r1, r3
 8003a6e:	687b      	ldr	r3, [r7, #4]
 8003a70:	691b      	ldr	r3, [r3, #16]
 8003a72:	00da      	lsls	r2, r3, #3
 8003a74:	4b67      	ldr	r3, [pc, #412]	; (8003c14 <HAL_RCC_OscConfig+0x338>)
 8003a76:	430a      	orrs	r2, r1
 8003a78:	601a      	str	r2, [r3, #0]
      if((__HAL_RCC_GET_FLAG(RCC_FLAG_HSIRDY) != RESET) && (RCC_OscInitStruct->HSIState != RCC_HSI_ON))
 8003a7a:	e041      	b.n	8003b00 <HAL_RCC_OscConfig+0x224>
      }
    }
    else
    {
      /* Check the HSI State */
      if(RCC_OscInitStruct->HSIState != RCC_HSI_OFF)
 8003a7c:	687b      	ldr	r3, [r7, #4]
 8003a7e:	68db      	ldr	r3, [r3, #12]
 8003a80:	2b00      	cmp	r3, #0
 8003a82:	d024      	beq.n	8003ace <HAL_RCC_OscConfig+0x1f2>
      {
       /* Enable the Internal High Speed oscillator (HSI). */
        __HAL_RCC_HSI_ENABLE();
 8003a84:	4b63      	ldr	r3, [pc, #396]	; (8003c14 <HAL_RCC_OscConfig+0x338>)
 8003a86:	681a      	ldr	r2, [r3, #0]
 8003a88:	4b62      	ldr	r3, [pc, #392]	; (8003c14 <HAL_RCC_OscConfig+0x338>)
 8003a8a:	2101      	movs	r1, #1
 8003a8c:	430a      	orrs	r2, r1
 8003a8e:	601a      	str	r2, [r3, #0]
        
        /* Get Start Tick */
        tickstart = HAL_GetTick();
 8003a90:	f7fe ffcc 	bl	8002a2c <HAL_GetTick>
 8003a94:	0003      	movs	r3, r0
 8003a96:	61bb      	str	r3, [r7, #24]
        
        /* Wait till HSI is ready */
        while(__HAL_RCC_GET_FLAG(RCC_FLAG_HSIRDY) == RESET)
 8003a98:	e008      	b.n	8003aac <HAL_RCC_OscConfig+0x1d0>
        {
          if((HAL_GetTick() - tickstart ) > HSI_TIMEOUT_VALUE)
 8003a9a:	f7fe ffc7 	bl	8002a2c <HAL_GetTick>
 8003a9e:	0002      	movs	r2, r0
 8003aa0:	69bb      	ldr	r3, [r7, #24]
 8003aa2:	1ad3      	subs	r3, r2, r3
 8003aa4:	2b02      	cmp	r3, #2
 8003aa6:	d901      	bls.n	8003aac <HAL_RCC_OscConfig+0x1d0>
          {
            return HAL_TIMEOUT;
 8003aa8:	2303      	movs	r3, #3
 8003aaa:	e297      	b.n	8003fdc <HAL_RCC_OscConfig+0x700>
        while(__HAL_RCC_GET_FLAG(RCC_FLAG_HSIRDY) == RESET)
 8003aac:	4b59      	ldr	r3, [pc, #356]	; (8003c14 <HAL_RCC_OscConfig+0x338>)
 8003aae:	681b      	ldr	r3, [r3, #0]
 8003ab0:	2202      	movs	r2, #2
 8003ab2:	4013      	ands	r3, r2
 8003ab4:	d0f1      	beq.n	8003a9a <HAL_RCC_OscConfig+0x1be>
          }
        }
                
        /* Adjusts the Internal High Speed oscillator (HSI) calibration value.*/
        __HAL_RCC_HSI_CALIBRATIONVALUE_ADJUST(RCC_OscInitStruct->HSICalibrationValue);
 8003ab6:	4b57      	ldr	r3, [pc, #348]	; (8003c14 <HAL_RCC_OscConfig+0x338>)
 8003ab8:	681b      	ldr	r3, [r3, #0]
 8003aba:	22f8      	movs	r2, #248	; 0xf8
 8003abc:	4393      	bics	r3, r2
 8003abe:	0019      	movs	r1, r3
 8003ac0:	687b      	ldr	r3, [r7, #4]
 8003ac2:	691b      	ldr	r3, [r3, #16]
 8003ac4:	00da      	lsls	r2, r3, #3
 8003ac6:	4b53      	ldr	r3, [pc, #332]	; (8003c14 <HAL_RCC_OscConfig+0x338>)
 8003ac8:	430a      	orrs	r2, r1
 8003aca:	601a      	str	r2, [r3, #0]
 8003acc:	e018      	b.n	8003b00 <HAL_RCC_OscConfig+0x224>
      }
      else
      {
        /* Disable the Internal High Speed oscillator (HSI). */
        __HAL_RCC_HSI_DISABLE();
 8003ace:	4b51      	ldr	r3, [pc, #324]	; (8003c14 <HAL_RCC_OscConfig+0x338>)
 8003ad0:	681a      	ldr	r2, [r3, #0]
 8003ad2:	4b50      	ldr	r3, [pc, #320]	; (8003c14 <HAL_RCC_OscConfig+0x338>)
 8003ad4:	2101      	movs	r1, #1
 8003ad6:	438a      	bics	r2, r1
 8003ad8:	601a      	str	r2, [r3, #0]
        
        /* Get Start Tick */
        tickstart = HAL_GetTick();
 8003ada:	f7fe ffa7 	bl	8002a2c <HAL_GetTick>
 8003ade:	0003      	movs	r3, r0
 8003ae0:	61bb      	str	r3, [r7, #24]
        
        /* Wait till HSI is disabled */
        while(__HAL_RCC_GET_FLAG(RCC_FLAG_HSIRDY) != RESET)
 8003ae2:	e008      	b.n	8003af6 <HAL_RCC_OscConfig+0x21a>
        {
          if((HAL_GetTick() - tickstart ) > HSI_TIMEOUT_VALUE)
 8003ae4:	f7fe ffa2 	bl	8002a2c <HAL_GetTick>
 8003ae8:	0002      	movs	r2, r0
 8003aea:	69bb      	ldr	r3, [r7, #24]
 8003aec:	1ad3      	subs	r3, r2, r3
 8003aee:	2b02      	cmp	r3, #2
 8003af0:	d901      	bls.n	8003af6 <HAL_RCC_OscConfig+0x21a>
          {
            return HAL_TIMEOUT;
 8003af2:	2303      	movs	r3, #3
 8003af4:	e272      	b.n	8003fdc <HAL_RCC_OscConfig+0x700>
        while(__HAL_RCC_GET_FLAG(RCC_FLAG_HSIRDY) != RESET)
 8003af6:	4b47      	ldr	r3, [pc, #284]	; (8003c14 <HAL_RCC_OscConfig+0x338>)
 8003af8:	681b      	ldr	r3, [r3, #0]
 8003afa:	2202      	movs	r2, #2
 8003afc:	4013      	ands	r3, r2
 8003afe:	d1f1      	bne.n	8003ae4 <HAL_RCC_OscConfig+0x208>
        }
      }
    }
  }
  /*------------------------------ LSI Configuration -------------------------*/ 
  if(((RCC_OscInitStruct->OscillatorType) & RCC_OSCILLATORTYPE_LSI) == RCC_OSCILLATORTYPE_LSI)
 8003b00:	687b      	ldr	r3, [r7, #4]
 8003b02:	681b      	ldr	r3, [r3, #0]
 8003b04:	2208      	movs	r2, #8
 8003b06:	4013      	ands	r3, r2
 8003b08:	d036      	beq.n	8003b78 <HAL_RCC_OscConfig+0x29c>
  {
    /* Check the parameters */
    assert_param(IS_RCC_LSI(RCC_OscInitStruct->LSIState));
    
    /* Check the LSI State */
    if(RCC_OscInitStruct->LSIState != RCC_LSI_OFF)
 8003b0a:	687b      	ldr	r3, [r7, #4]
 8003b0c:	69db      	ldr	r3, [r3, #28]
 8003b0e:	2b00      	cmp	r3, #0
 8003b10:	d019      	beq.n	8003b46 <HAL_RCC_OscConfig+0x26a>
    {
      /* Enable the Internal Low Speed oscillator (LSI). */
      __HAL_RCC_LSI_ENABLE();
 8003b12:	4b40      	ldr	r3, [pc, #256]	; (8003c14 <HAL_RCC_OscConfig+0x338>)
 8003b14:	6a5a      	ldr	r2, [r3, #36]	; 0x24
 8003b16:	4b3f      	ldr	r3, [pc, #252]	; (8003c14 <HAL_RCC_OscConfig+0x338>)
 8003b18:	2101      	movs	r1, #1
 8003b1a:	430a      	orrs	r2, r1
 8003b1c:	625a      	str	r2, [r3, #36]	; 0x24
      
      /* Get Start Tick */
      tickstart = HAL_GetTick();
 8003b1e:	f7fe ff85 	bl	8002a2c <HAL_GetTick>
 8003b22:	0003      	movs	r3, r0
 8003b24:	61bb      	str	r3, [r7, #24]
      
      /* Wait till LSI is ready */  
      while(__HAL_RCC_GET_FLAG(RCC_FLAG_LSIRDY) == RESET)
 8003b26:	e008      	b.n	8003b3a <HAL_RCC_OscConfig+0x25e>
      {
        if((HAL_GetTick() - tickstart ) > LSI_TIMEOUT_VALUE)
 8003b28:	f7fe ff80 	bl	8002a2c <HAL_GetTick>
 8003b2c:	0002      	movs	r2, r0
 8003b2e:	69bb      	ldr	r3, [r7, #24]
 8003b30:	1ad3      	subs	r3, r2, r3
 8003b32:	2b02      	cmp	r3, #2
 8003b34:	d901      	bls.n	8003b3a <HAL_RCC_OscConfig+0x25e>
        {
          return HAL_TIMEOUT;
 8003b36:	2303      	movs	r3, #3
 8003b38:	e250      	b.n	8003fdc <HAL_RCC_OscConfig+0x700>
      while(__HAL_RCC_GET_FLAG(RCC_FLAG_LSIRDY) == RESET)
 8003b3a:	4b36      	ldr	r3, [pc, #216]	; (8003c14 <HAL_RCC_OscConfig+0x338>)
 8003b3c:	6a5b      	ldr	r3, [r3, #36]	; 0x24
 8003b3e:	2202      	movs	r2, #2
 8003b40:	4013      	ands	r3, r2
 8003b42:	d0f1      	beq.n	8003b28 <HAL_RCC_OscConfig+0x24c>
 8003b44:	e018      	b.n	8003b78 <HAL_RCC_OscConfig+0x29c>
      }
    }
    else
    {
      /* Disable the Internal Low Speed oscillator (LSI). */
      __HAL_RCC_LSI_DISABLE();
 8003b46:	4b33      	ldr	r3, [pc, #204]	; (8003c14 <HAL_RCC_OscConfig+0x338>)
 8003b48:	6a5a      	ldr	r2, [r3, #36]	; 0x24
 8003b4a:	4b32      	ldr	r3, [pc, #200]	; (8003c14 <HAL_RCC_OscConfig+0x338>)
 8003b4c:	2101      	movs	r1, #1
 8003b4e:	438a      	bics	r2, r1
 8003b50:	625a      	str	r2, [r3, #36]	; 0x24
      
      /* Get Start Tick */
      tickstart = HAL_GetTick();
 8003b52:	f7fe ff6b 	bl	8002a2c <HAL_GetTick>
 8003b56:	0003      	movs	r3, r0
 8003b58:	61bb      	str	r3, [r7, #24]
      
      /* Wait till LSI is disabled */  
      while(__HAL_RCC_GET_FLAG(RCC_FLAG_LSIRDY) != RESET)
 8003b5a:	e008      	b.n	8003b6e <HAL_RCC_OscConfig+0x292>
      {
        if((HAL_GetTick() - tickstart ) > LSI_TIMEOUT_VALUE)
 8003b5c:	f7fe ff66 	bl	8002a2c <HAL_GetTick>
 8003b60:	0002      	movs	r2, r0
 8003b62:	69bb      	ldr	r3, [r7, #24]
 8003b64:	1ad3      	subs	r3, r2, r3
 8003b66:	2b02      	cmp	r3, #2
 8003b68:	d901      	bls.n	8003b6e <HAL_RCC_OscConfig+0x292>
        {
          return HAL_TIMEOUT;
 8003b6a:	2303      	movs	r3, #3
 8003b6c:	e236      	b.n	8003fdc <HAL_RCC_OscConfig+0x700>
      while(__HAL_RCC_GET_FLAG(RCC_FLAG_LSIRDY) != RESET)
 8003b6e:	4b29      	ldr	r3, [pc, #164]	; (8003c14 <HAL_RCC_OscConfig+0x338>)
 8003b70:	6a5b      	ldr	r3, [r3, #36]	; 0x24
 8003b72:	2202      	movs	r2, #2
 8003b74:	4013      	ands	r3, r2
 8003b76:	d1f1      	bne.n	8003b5c <HAL_RCC_OscConfig+0x280>
        }
      }
    }
  }
  /*------------------------------ LSE Configuration -------------------------*/ 
  if(((RCC_OscInitStruct->OscillatorType) & RCC_OSCILLATORTYPE_LSE) == RCC_OSCILLATORTYPE_LSE)
 8003b78:	687b      	ldr	r3, [r7, #4]
 8003b7a:	681b      	ldr	r3, [r3, #0]
 8003b7c:	2204      	movs	r2, #4
 8003b7e:	4013      	ands	r3, r2
 8003b80:	d100      	bne.n	8003b84 <HAL_RCC_OscConfig+0x2a8>
 8003b82:	e0b5      	b.n	8003cf0 <HAL_RCC_OscConfig+0x414>
  {
    FlagStatus       pwrclkchanged = RESET;
 8003b84:	231f      	movs	r3, #31
 8003b86:	18fb      	adds	r3, r7, r3
 8003b88:	2200      	movs	r2, #0
 8003b8a:	701a      	strb	r2, [r3, #0]
    /* Check the parameters */
    assert_param(IS_RCC_LSE(RCC_OscInitStruct->LSEState));

    /* Update LSE configuration in Backup Domain control register    */
    /* Requires to enable write access to Backup Domain of necessary */
    if(__HAL_RCC_PWR_IS_CLK_DISABLED())
 8003b8c:	4b21      	ldr	r3, [pc, #132]	; (8003c14 <HAL_RCC_OscConfig+0x338>)
 8003b8e:	69da      	ldr	r2, [r3, #28]
 8003b90:	2380      	movs	r3, #128	; 0x80
 8003b92:	055b      	lsls	r3, r3, #21
 8003b94:	4013      	ands	r3, r2
 8003b96:	d111      	bne.n	8003bbc <HAL_RCC_OscConfig+0x2e0>
    {
      __HAL_RCC_PWR_CLK_ENABLE();
 8003b98:	4b1e      	ldr	r3, [pc, #120]	; (8003c14 <HAL_RCC_OscConfig+0x338>)
 8003b9a:	69da      	ldr	r2, [r3, #28]
 8003b9c:	4b1d      	ldr	r3, [pc, #116]	; (8003c14 <HAL_RCC_OscConfig+0x338>)
 8003b9e:	2180      	movs	r1, #128	; 0x80
 8003ba0:	0549      	lsls	r1, r1, #21
 8003ba2:	430a      	orrs	r2, r1
 8003ba4:	61da      	str	r2, [r3, #28]
 8003ba6:	4b1b      	ldr	r3, [pc, #108]	; (8003c14 <HAL_RCC_OscConfig+0x338>)
 8003ba8:	69da      	ldr	r2, [r3, #28]
 8003baa:	2380      	movs	r3, #128	; 0x80
 8003bac:	055b      	lsls	r3, r3, #21
 8003bae:	4013      	ands	r3, r2
 8003bb0:	60fb      	str	r3, [r7, #12]
 8003bb2:	68fb      	ldr	r3, [r7, #12]
      pwrclkchanged = SET;
 8003bb4:	231f      	movs	r3, #31
 8003bb6:	18fb      	adds	r3, r7, r3
 8003bb8:	2201      	movs	r2, #1
 8003bba:	701a      	strb	r2, [r3, #0]
    }
    
    if(HAL_IS_BIT_CLR(PWR->CR, PWR_CR_DBP))
 8003bbc:	4b18      	ldr	r3, [pc, #96]	; (8003c20 <HAL_RCC_OscConfig+0x344>)
 8003bbe:	681a      	ldr	r2, [r3, #0]
 8003bc0:	2380      	movs	r3, #128	; 0x80
 8003bc2:	005b      	lsls	r3, r3, #1
 8003bc4:	4013      	ands	r3, r2
 8003bc6:	d11a      	bne.n	8003bfe <HAL_RCC_OscConfig+0x322>
    {
      /* Enable write access to Backup domain */
      SET_BIT(PWR->CR, PWR_CR_DBP);
 8003bc8:	4b15      	ldr	r3, [pc, #84]	; (8003c20 <HAL_RCC_OscConfig+0x344>)
 8003bca:	681a      	ldr	r2, [r3, #0]
 8003bcc:	4b14      	ldr	r3, [pc, #80]	; (8003c20 <HAL_RCC_OscConfig+0x344>)
 8003bce:	2180      	movs	r1, #128	; 0x80
 8003bd0:	0049      	lsls	r1, r1, #1
 8003bd2:	430a      	orrs	r2, r1
 8003bd4:	601a      	str	r2, [r3, #0]
      
      /* Wait for Backup domain Write protection disable */
      tickstart = HAL_GetTick();
 8003bd6:	f7fe ff29 	bl	8002a2c <HAL_GetTick>
 8003bda:	0003      	movs	r3, r0
 8003bdc:	61bb      	str	r3, [r7, #24]

      while(HAL_IS_BIT_CLR(PWR->CR, PWR_CR_DBP))
 8003bde:	e008      	b.n	8003bf2 <HAL_RCC_OscConfig+0x316>
      {
        if((HAL_GetTick() - tickstart) > RCC_DBP_TIMEOUT_VALUE)
 8003be0:	f7fe ff24 	bl	8002a2c <HAL_GetTick>
 8003be4:	0002      	movs	r2, r0
 8003be6:	69bb      	ldr	r3, [r7, #24]
 8003be8:	1ad3      	subs	r3, r2, r3
 8003bea:	2b64      	cmp	r3, #100	; 0x64
 8003bec:	d901      	bls.n	8003bf2 <HAL_RCC_OscConfig+0x316>
        {
          return HAL_TIMEOUT;
 8003bee:	2303      	movs	r3, #3
 8003bf0:	e1f4      	b.n	8003fdc <HAL_RCC_OscConfig+0x700>
      while(HAL_IS_BIT_CLR(PWR->CR, PWR_CR_DBP))
 8003bf2:	4b0b      	ldr	r3, [pc, #44]	; (8003c20 <HAL_RCC_OscConfig+0x344>)
 8003bf4:	681a      	ldr	r2, [r3, #0]
 8003bf6:	2380      	movs	r3, #128	; 0x80
 8003bf8:	005b      	lsls	r3, r3, #1
 8003bfa:	4013      	ands	r3, r2
 8003bfc:	d0f0      	beq.n	8003be0 <HAL_RCC_OscConfig+0x304>
        }
      }
    }

    /* Set the new LSE configuration -----------------------------------------*/
    __HAL_RCC_LSE_CONFIG(RCC_OscInitStruct->LSEState);
 8003bfe:	687b      	ldr	r3, [r7, #4]
 8003c00:	689b      	ldr	r3, [r3, #8]
 8003c02:	2b01      	cmp	r3, #1
 8003c04:	d10e      	bne.n	8003c24 <HAL_RCC_OscConfig+0x348>
 8003c06:	4b03      	ldr	r3, [pc, #12]	; (8003c14 <HAL_RCC_OscConfig+0x338>)
 8003c08:	6a1a      	ldr	r2, [r3, #32]
 8003c0a:	4b02      	ldr	r3, [pc, #8]	; (8003c14 <HAL_RCC_OscConfig+0x338>)
 8003c0c:	2101      	movs	r1, #1
 8003c0e:	430a      	orrs	r2, r1
 8003c10:	621a      	str	r2, [r3, #32]
 8003c12:	e035      	b.n	8003c80 <HAL_RCC_OscConfig+0x3a4>
 8003c14:	40021000 	.word	0x40021000
 8003c18:	fffeffff 	.word	0xfffeffff
 8003c1c:	fffbffff 	.word	0xfffbffff
 8003c20:	40007000 	.word	0x40007000
 8003c24:	687b      	ldr	r3, [r7, #4]
 8003c26:	689b      	ldr	r3, [r3, #8]
 8003c28:	2b00      	cmp	r3, #0
 8003c2a:	d10c      	bne.n	8003c46 <HAL_RCC_OscConfig+0x36a>
 8003c2c:	4bca      	ldr	r3, [pc, #808]	; (8003f58 <HAL_RCC_OscConfig+0x67c>)
 8003c2e:	6a1a      	ldr	r2, [r3, #32]
 8003c30:	4bc9      	ldr	r3, [pc, #804]	; (8003f58 <HAL_RCC_OscConfig+0x67c>)
 8003c32:	2101      	movs	r1, #1
 8003c34:	438a      	bics	r2, r1
 8003c36:	621a      	str	r2, [r3, #32]
 8003c38:	4bc7      	ldr	r3, [pc, #796]	; (8003f58 <HAL_RCC_OscConfig+0x67c>)
 8003c3a:	6a1a      	ldr	r2, [r3, #32]
 8003c3c:	4bc6      	ldr	r3, [pc, #792]	; (8003f58 <HAL_RCC_OscConfig+0x67c>)
 8003c3e:	2104      	movs	r1, #4
 8003c40:	438a      	bics	r2, r1
 8003c42:	621a      	str	r2, [r3, #32]
 8003c44:	e01c      	b.n	8003c80 <HAL_RCC_OscConfig+0x3a4>
 8003c46:	687b      	ldr	r3, [r7, #4]
 8003c48:	689b      	ldr	r3, [r3, #8]
 8003c4a:	2b05      	cmp	r3, #5
 8003c4c:	d10c      	bne.n	8003c68 <HAL_RCC_OscConfig+0x38c>
 8003c4e:	4bc2      	ldr	r3, [pc, #776]	; (8003f58 <HAL_RCC_OscConfig+0x67c>)
 8003c50:	6a1a      	ldr	r2, [r3, #32]
 8003c52:	4bc1      	ldr	r3, [pc, #772]	; (8003f58 <HAL_RCC_OscConfig+0x67c>)
 8003c54:	2104      	movs	r1, #4
 8003c56:	430a      	orrs	r2, r1
 8003c58:	621a      	str	r2, [r3, #32]
 8003c5a:	4bbf      	ldr	r3, [pc, #764]	; (8003f58 <HAL_RCC_OscConfig+0x67c>)
 8003c5c:	6a1a      	ldr	r2, [r3, #32]
 8003c5e:	4bbe      	ldr	r3, [pc, #760]	; (8003f58 <HAL_RCC_OscConfig+0x67c>)
 8003c60:	2101      	movs	r1, #1
 8003c62:	430a      	orrs	r2, r1
 8003c64:	621a      	str	r2, [r3, #32]
 8003c66:	e00b      	b.n	8003c80 <HAL_RCC_OscConfig+0x3a4>
 8003c68:	4bbb      	ldr	r3, [pc, #748]	; (8003f58 <HAL_RCC_OscConfig+0x67c>)
 8003c6a:	6a1a      	ldr	r2, [r3, #32]
 8003c6c:	4bba      	ldr	r3, [pc, #744]	; (8003f58 <HAL_RCC_OscConfig+0x67c>)
 8003c6e:	2101      	movs	r1, #1
 8003c70:	438a      	bics	r2, r1
 8003c72:	621a      	str	r2, [r3, #32]
 8003c74:	4bb8      	ldr	r3, [pc, #736]	; (8003f58 <HAL_RCC_OscConfig+0x67c>)
 8003c76:	6a1a      	ldr	r2, [r3, #32]
 8003c78:	4bb7      	ldr	r3, [pc, #732]	; (8003f58 <HAL_RCC_OscConfig+0x67c>)
 8003c7a:	2104      	movs	r1, #4
 8003c7c:	438a      	bics	r2, r1
 8003c7e:	621a      	str	r2, [r3, #32]
    /* Check the LSE State */
    if(RCC_OscInitStruct->LSEState != RCC_LSE_OFF)
 8003c80:	687b      	ldr	r3, [r7, #4]
 8003c82:	689b      	ldr	r3, [r3, #8]
 8003c84:	2b00      	cmp	r3, #0
 8003c86:	d014      	beq.n	8003cb2 <HAL_RCC_OscConfig+0x3d6>
    {
      /* Get Start Tick */
      tickstart = HAL_GetTick();
 8003c88:	f7fe fed0 	bl	8002a2c <HAL_GetTick>
 8003c8c:	0003      	movs	r3, r0
 8003c8e:	61bb      	str	r3, [r7, #24]
      
      /* Wait till LSE is ready */  
      while(__HAL_RCC_GET_FLAG(RCC_FLAG_LSERDY) == RESET)
 8003c90:	e009      	b.n	8003ca6 <HAL_RCC_OscConfig+0x3ca>
      {
        if((HAL_GetTick() - tickstart ) > RCC_LSE_TIMEOUT_VALUE)
 8003c92:	f7fe fecb 	bl	8002a2c <HAL_GetTick>
 8003c96:	0002      	movs	r2, r0
 8003c98:	69bb      	ldr	r3, [r7, #24]
 8003c9a:	1ad3      	subs	r3, r2, r3
 8003c9c:	4aaf      	ldr	r2, [pc, #700]	; (8003f5c <HAL_RCC_OscConfig+0x680>)
 8003c9e:	4293      	cmp	r3, r2
 8003ca0:	d901      	bls.n	8003ca6 <HAL_RCC_OscConfig+0x3ca>
        {
          return HAL_TIMEOUT;
 8003ca2:	2303      	movs	r3, #3
 8003ca4:	e19a      	b.n	8003fdc <HAL_RCC_OscConfig+0x700>
      while(__HAL_RCC_GET_FLAG(RCC_FLAG_LSERDY) == RESET)
 8003ca6:	4bac      	ldr	r3, [pc, #688]	; (8003f58 <HAL_RCC_OscConfig+0x67c>)
 8003ca8:	6a1b      	ldr	r3, [r3, #32]
 8003caa:	2202      	movs	r2, #2
 8003cac:	4013      	ands	r3, r2
 8003cae:	d0f0      	beq.n	8003c92 <HAL_RCC_OscConfig+0x3b6>
 8003cb0:	e013      	b.n	8003cda <HAL_RCC_OscConfig+0x3fe>
      }
    }
    else
    {
      /* Get Start Tick */
      tickstart = HAL_GetTick();
 8003cb2:	f7fe febb 	bl	8002a2c <HAL_GetTick>
 8003cb6:	0003      	movs	r3, r0
 8003cb8:	61bb      	str	r3, [r7, #24]
      
      /* Wait till LSE is disabled */  
      while(__HAL_RCC_GET_FLAG(RCC_FLAG_LSERDY) != RESET)
 8003cba:	e009      	b.n	8003cd0 <HAL_RCC_OscConfig+0x3f4>
      {
        if((HAL_GetTick() - tickstart ) > RCC_LSE_TIMEOUT_VALUE)
 8003cbc:	f7fe feb6 	bl	8002a2c <HAL_GetTick>
 8003cc0:	0002      	movs	r2, r0
 8003cc2:	69bb      	ldr	r3, [r7, #24]
 8003cc4:	1ad3      	subs	r3, r2, r3
 8003cc6:	4aa5      	ldr	r2, [pc, #660]	; (8003f5c <HAL_RCC_OscConfig+0x680>)
 8003cc8:	4293      	cmp	r3, r2
 8003cca:	d901      	bls.n	8003cd0 <HAL_RCC_OscConfig+0x3f4>
        {
          return HAL_TIMEOUT;
 8003ccc:	2303      	movs	r3, #3
 8003cce:	e185      	b.n	8003fdc <HAL_RCC_OscConfig+0x700>
      while(__HAL_RCC_GET_FLAG(RCC_FLAG_LSERDY) != RESET)
 8003cd0:	4ba1      	ldr	r3, [pc, #644]	; (8003f58 <HAL_RCC_OscConfig+0x67c>)
 8003cd2:	6a1b      	ldr	r3, [r3, #32]
 8003cd4:	2202      	movs	r2, #2
 8003cd6:	4013      	ands	r3, r2
 8003cd8:	d1f0      	bne.n	8003cbc <HAL_RCC_OscConfig+0x3e0>
        }
      }
    }

    /* Require to disable power clock if necessary */
    if(pwrclkchanged == SET)
 8003cda:	231f      	movs	r3, #31
 8003cdc:	18fb      	adds	r3, r7, r3
 8003cde:	781b      	ldrb	r3, [r3, #0]
 8003ce0:	2b01      	cmp	r3, #1
 8003ce2:	d105      	bne.n	8003cf0 <HAL_RCC_OscConfig+0x414>
    {
      __HAL_RCC_PWR_CLK_DISABLE();
 8003ce4:	4b9c      	ldr	r3, [pc, #624]	; (8003f58 <HAL_RCC_OscConfig+0x67c>)
 8003ce6:	69da      	ldr	r2, [r3, #28]
 8003ce8:	4b9b      	ldr	r3, [pc, #620]	; (8003f58 <HAL_RCC_OscConfig+0x67c>)
 8003cea:	499d      	ldr	r1, [pc, #628]	; (8003f60 <HAL_RCC_OscConfig+0x684>)
 8003cec:	400a      	ands	r2, r1
 8003cee:	61da      	str	r2, [r3, #28]
    }
  }

  /*----------------------------- HSI14 Configuration --------------------------*/
  if(((RCC_OscInitStruct->OscillatorType) & RCC_OSCILLATORTYPE_HSI14) == RCC_OSCILLATORTYPE_HSI14)
 8003cf0:	687b      	ldr	r3, [r7, #4]
 8003cf2:	681b      	ldr	r3, [r3, #0]
 8003cf4:	2210      	movs	r2, #16
 8003cf6:	4013      	ands	r3, r2
 8003cf8:	d063      	beq.n	8003dc2 <HAL_RCC_OscConfig+0x4e6>
    /* Check the parameters */
    assert_param(IS_RCC_HSI14(RCC_OscInitStruct->HSI14State));
    assert_param(IS_RCC_CALIBRATION_VALUE(RCC_OscInitStruct->HSI14CalibrationValue));

    /* Check the HSI14 State */
    if(RCC_OscInitStruct->HSI14State == RCC_HSI14_ON)
 8003cfa:	687b      	ldr	r3, [r7, #4]
 8003cfc:	695b      	ldr	r3, [r3, #20]
 8003cfe:	2b01      	cmp	r3, #1
 8003d00:	d12a      	bne.n	8003d58 <HAL_RCC_OscConfig+0x47c>
    {
      /* Disable ADC control of the Internal High Speed oscillator HSI14 */
      __HAL_RCC_HSI14ADC_DISABLE();
 8003d02:	4b95      	ldr	r3, [pc, #596]	; (8003f58 <HAL_RCC_OscConfig+0x67c>)
 8003d04:	6b5a      	ldr	r2, [r3, #52]	; 0x34
 8003d06:	4b94      	ldr	r3, [pc, #592]	; (8003f58 <HAL_RCC_OscConfig+0x67c>)
 8003d08:	2104      	movs	r1, #4
 8003d0a:	430a      	orrs	r2, r1
 8003d0c:	635a      	str	r2, [r3, #52]	; 0x34

      /* Enable the Internal High Speed oscillator (HSI). */
      __HAL_RCC_HSI14_ENABLE();
 8003d0e:	4b92      	ldr	r3, [pc, #584]	; (8003f58 <HAL_RCC_OscConfig+0x67c>)
 8003d10:	6b5a      	ldr	r2, [r3, #52]	; 0x34
 8003d12:	4b91      	ldr	r3, [pc, #580]	; (8003f58 <HAL_RCC_OscConfig+0x67c>)
 8003d14:	2101      	movs	r1, #1
 8003d16:	430a      	orrs	r2, r1
 8003d18:	635a      	str	r2, [r3, #52]	; 0x34

      /* Get Start Tick */
      tickstart = HAL_GetTick();
 8003d1a:	f7fe fe87 	bl	8002a2c <HAL_GetTick>
 8003d1e:	0003      	movs	r3, r0
 8003d20:	61bb      	str	r3, [r7, #24]
      
      /* Wait till HSI is ready */  
      while(__HAL_RCC_GET_FLAG(RCC_FLAG_HSI14RDY) == RESET)
 8003d22:	e008      	b.n	8003d36 <HAL_RCC_OscConfig+0x45a>
      {
        if((HAL_GetTick() - tickstart) > HSI14_TIMEOUT_VALUE)
 8003d24:	f7fe fe82 	bl	8002a2c <HAL_GetTick>
 8003d28:	0002      	movs	r2, r0
 8003d2a:	69bb      	ldr	r3, [r7, #24]
 8003d2c:	1ad3      	subs	r3, r2, r3
 8003d2e:	2b02      	cmp	r3, #2
 8003d30:	d901      	bls.n	8003d36 <HAL_RCC_OscConfig+0x45a>
        {
          return HAL_TIMEOUT;
 8003d32:	2303      	movs	r3, #3
 8003d34:	e152      	b.n	8003fdc <HAL_RCC_OscConfig+0x700>
      while(__HAL_RCC_GET_FLAG(RCC_FLAG_HSI14RDY) == RESET)
 8003d36:	4b88      	ldr	r3, [pc, #544]	; (8003f58 <HAL_RCC_OscConfig+0x67c>)
 8003d38:	6b5b      	ldr	r3, [r3, #52]	; 0x34
 8003d3a:	2202      	movs	r2, #2
 8003d3c:	4013      	ands	r3, r2
 8003d3e:	d0f1      	beq.n	8003d24 <HAL_RCC_OscConfig+0x448>
        }      
      } 

      /* Adjusts the Internal High Speed oscillator 14Mhz (HSI14) calibration value. */
      __HAL_RCC_HSI14_CALIBRATIONVALUE_ADJUST(RCC_OscInitStruct->HSI14CalibrationValue);
 8003d40:	4b85      	ldr	r3, [pc, #532]	; (8003f58 <HAL_RCC_OscConfig+0x67c>)
 8003d42:	6b5b      	ldr	r3, [r3, #52]	; 0x34
 8003d44:	22f8      	movs	r2, #248	; 0xf8
 8003d46:	4393      	bics	r3, r2
 8003d48:	0019      	movs	r1, r3
 8003d4a:	687b      	ldr	r3, [r7, #4]
 8003d4c:	699b      	ldr	r3, [r3, #24]
 8003d4e:	00da      	lsls	r2, r3, #3
 8003d50:	4b81      	ldr	r3, [pc, #516]	; (8003f58 <HAL_RCC_OscConfig+0x67c>)
 8003d52:	430a      	orrs	r2, r1
 8003d54:	635a      	str	r2, [r3, #52]	; 0x34
 8003d56:	e034      	b.n	8003dc2 <HAL_RCC_OscConfig+0x4e6>
    }
    else if(RCC_OscInitStruct->HSI14State == RCC_HSI14_ADC_CONTROL)
 8003d58:	687b      	ldr	r3, [r7, #4]
 8003d5a:	695b      	ldr	r3, [r3, #20]
 8003d5c:	3305      	adds	r3, #5
 8003d5e:	d111      	bne.n	8003d84 <HAL_RCC_OscConfig+0x4a8>
    {
      /* Enable ADC control of the Internal High Speed oscillator HSI14 */
      __HAL_RCC_HSI14ADC_ENABLE();
 8003d60:	4b7d      	ldr	r3, [pc, #500]	; (8003f58 <HAL_RCC_OscConfig+0x67c>)
 8003d62:	6b5a      	ldr	r2, [r3, #52]	; 0x34
 8003d64:	4b7c      	ldr	r3, [pc, #496]	; (8003f58 <HAL_RCC_OscConfig+0x67c>)
 8003d66:	2104      	movs	r1, #4
 8003d68:	438a      	bics	r2, r1
 8003d6a:	635a      	str	r2, [r3, #52]	; 0x34

      /* Adjusts the Internal High Speed oscillator 14Mhz (HSI14) calibration value. */
      __HAL_RCC_HSI14_CALIBRATIONVALUE_ADJUST(RCC_OscInitStruct->HSI14CalibrationValue);
 8003d6c:	4b7a      	ldr	r3, [pc, #488]	; (8003f58 <HAL_RCC_OscConfig+0x67c>)
 8003d6e:	6b5b      	ldr	r3, [r3, #52]	; 0x34
 8003d70:	22f8      	movs	r2, #248	; 0xf8
 8003d72:	4393      	bics	r3, r2
 8003d74:	0019      	movs	r1, r3
 8003d76:	687b      	ldr	r3, [r7, #4]
 8003d78:	699b      	ldr	r3, [r3, #24]
 8003d7a:	00da      	lsls	r2, r3, #3
 8003d7c:	4b76      	ldr	r3, [pc, #472]	; (8003f58 <HAL_RCC_OscConfig+0x67c>)
 8003d7e:	430a      	orrs	r2, r1
 8003d80:	635a      	str	r2, [r3, #52]	; 0x34
 8003d82:	e01e      	b.n	8003dc2 <HAL_RCC_OscConfig+0x4e6>
    }
    else
    {
      /* Disable ADC control of the Internal High Speed oscillator HSI14 */
      __HAL_RCC_HSI14ADC_DISABLE();
 8003d84:	4b74      	ldr	r3, [pc, #464]	; (8003f58 <HAL_RCC_OscConfig+0x67c>)
 8003d86:	6b5a      	ldr	r2, [r3, #52]	; 0x34
 8003d88:	4b73      	ldr	r3, [pc, #460]	; (8003f58 <HAL_RCC_OscConfig+0x67c>)
 8003d8a:	2104      	movs	r1, #4
 8003d8c:	430a      	orrs	r2, r1
 8003d8e:	635a      	str	r2, [r3, #52]	; 0x34

      /* Disable the Internal High Speed oscillator (HSI). */
      __HAL_RCC_HSI14_DISABLE();
 8003d90:	4b71      	ldr	r3, [pc, #452]	; (8003f58 <HAL_RCC_OscConfig+0x67c>)
 8003d92:	6b5a      	ldr	r2, [r3, #52]	; 0x34
 8003d94:	4b70      	ldr	r3, [pc, #448]	; (8003f58 <HAL_RCC_OscConfig+0x67c>)
 8003d96:	2101      	movs	r1, #1
 8003d98:	438a      	bics	r2, r1
 8003d9a:	635a      	str	r2, [r3, #52]	; 0x34

      /* Get Start Tick */
      tickstart = HAL_GetTick();
 8003d9c:	f7fe fe46 	bl	8002a2c <HAL_GetTick>
 8003da0:	0003      	movs	r3, r0
 8003da2:	61bb      	str	r3, [r7, #24]
      
      /* Wait till HSI is ready */  
      while(__HAL_RCC_GET_FLAG(RCC_FLAG_HSI14RDY) != RESET)
 8003da4:	e008      	b.n	8003db8 <HAL_RCC_OscConfig+0x4dc>
      {
        if((HAL_GetTick() - tickstart) > HSI14_TIMEOUT_VALUE)
 8003da6:	f7fe fe41 	bl	8002a2c <HAL_GetTick>
 8003daa:	0002      	movs	r2, r0
 8003dac:	69bb      	ldr	r3, [r7, #24]
 8003dae:	1ad3      	subs	r3, r2, r3
 8003db0:	2b02      	cmp	r3, #2
 8003db2:	d901      	bls.n	8003db8 <HAL_RCC_OscConfig+0x4dc>
        {
          return HAL_TIMEOUT;
 8003db4:	2303      	movs	r3, #3
 8003db6:	e111      	b.n	8003fdc <HAL_RCC_OscConfig+0x700>
      while(__HAL_RCC_GET_FLAG(RCC_FLAG_HSI14RDY) != RESET)
 8003db8:	4b67      	ldr	r3, [pc, #412]	; (8003f58 <HAL_RCC_OscConfig+0x67c>)
 8003dba:	6b5b      	ldr	r3, [r3, #52]	; 0x34
 8003dbc:	2202      	movs	r2, #2
 8003dbe:	4013      	ands	r3, r2
 8003dc0:	d1f1      	bne.n	8003da6 <HAL_RCC_OscConfig+0x4ca>
    }
  }

#if defined(RCC_HSI48_SUPPORT)
  /*----------------------------- HSI48 Configuration --------------------------*/
  if(((RCC_OscInitStruct->OscillatorType) & RCC_OSCILLATORTYPE_HSI48) == RCC_OSCILLATORTYPE_HSI48)
 8003dc2:	687b      	ldr	r3, [r7, #4]
 8003dc4:	681b      	ldr	r3, [r3, #0]
 8003dc6:	2220      	movs	r2, #32
 8003dc8:	4013      	ands	r3, r2
 8003dca:	d05c      	beq.n	8003e86 <HAL_RCC_OscConfig+0x5aa>
  {
    /* Check the parameters */
    assert_param(IS_RCC_HSI48(RCC_OscInitStruct->HSI48State));

    /* When the HSI48 is used as system clock it is not allowed to be disabled */
    if((__HAL_RCC_GET_SYSCLK_SOURCE() == RCC_SYSCLKSOURCE_STATUS_HSI48) ||
 8003dcc:	4b62      	ldr	r3, [pc, #392]	; (8003f58 <HAL_RCC_OscConfig+0x67c>)
 8003dce:	685b      	ldr	r3, [r3, #4]
 8003dd0:	220c      	movs	r2, #12
 8003dd2:	4013      	ands	r3, r2
 8003dd4:	2b0c      	cmp	r3, #12
 8003dd6:	d00e      	beq.n	8003df6 <HAL_RCC_OscConfig+0x51a>
       ((__HAL_RCC_GET_SYSCLK_SOURCE() == RCC_SYSCLKSOURCE_STATUS_PLLCLK) && (__HAL_RCC_GET_PLL_OSCSOURCE() == RCC_PLLSOURCE_HSI48)))
 8003dd8:	4b5f      	ldr	r3, [pc, #380]	; (8003f58 <HAL_RCC_OscConfig+0x67c>)
 8003dda:	685b      	ldr	r3, [r3, #4]
 8003ddc:	220c      	movs	r2, #12
 8003dde:	4013      	ands	r3, r2
    if((__HAL_RCC_GET_SYSCLK_SOURCE() == RCC_SYSCLKSOURCE_STATUS_HSI48) ||
 8003de0:	2b08      	cmp	r3, #8
 8003de2:	d114      	bne.n	8003e0e <HAL_RCC_OscConfig+0x532>
       ((__HAL_RCC_GET_SYSCLK_SOURCE() == RCC_SYSCLKSOURCE_STATUS_PLLCLK) && (__HAL_RCC_GET_PLL_OSCSOURCE() == RCC_PLLSOURCE_HSI48)))
 8003de4:	4b5c      	ldr	r3, [pc, #368]	; (8003f58 <HAL_RCC_OscConfig+0x67c>)
 8003de6:	685a      	ldr	r2, [r3, #4]
 8003de8:	23c0      	movs	r3, #192	; 0xc0
 8003dea:	025b      	lsls	r3, r3, #9
 8003dec:	401a      	ands	r2, r3
 8003dee:	23c0      	movs	r3, #192	; 0xc0
 8003df0:	025b      	lsls	r3, r3, #9
 8003df2:	429a      	cmp	r2, r3
 8003df4:	d10b      	bne.n	8003e0e <HAL_RCC_OscConfig+0x532>
    {
      if((__HAL_RCC_GET_FLAG(RCC_FLAG_HSI48RDY) != RESET) && (RCC_OscInitStruct->HSI48State != RCC_HSI48_ON))
 8003df6:	4b58      	ldr	r3, [pc, #352]	; (8003f58 <HAL_RCC_OscConfig+0x67c>)
 8003df8:	6b5a      	ldr	r2, [r3, #52]	; 0x34
 8003dfa:	2380      	movs	r3, #128	; 0x80
 8003dfc:	025b      	lsls	r3, r3, #9
 8003dfe:	4013      	ands	r3, r2
 8003e00:	d040      	beq.n	8003e84 <HAL_RCC_OscConfig+0x5a8>
 8003e02:	687b      	ldr	r3, [r7, #4]
 8003e04:	6a1b      	ldr	r3, [r3, #32]
 8003e06:	2b01      	cmp	r3, #1
 8003e08:	d03c      	beq.n	8003e84 <HAL_RCC_OscConfig+0x5a8>
      {
        return HAL_ERROR;
 8003e0a:	2301      	movs	r3, #1
 8003e0c:	e0e6      	b.n	8003fdc <HAL_RCC_OscConfig+0x700>
      }
    }
    else
    {
      /* Check the HSI48 State */
      if(RCC_OscInitStruct->HSI48State != RCC_HSI48_OFF)
 8003e0e:	687b      	ldr	r3, [r7, #4]
 8003e10:	6a1b      	ldr	r3, [r3, #32]
 8003e12:	2b00      	cmp	r3, #0
 8003e14:	d01b      	beq.n	8003e4e <HAL_RCC_OscConfig+0x572>
      {
        /* Enable the Internal High Speed oscillator (HSI48). */
        __HAL_RCC_HSI48_ENABLE();
 8003e16:	4b50      	ldr	r3, [pc, #320]	; (8003f58 <HAL_RCC_OscConfig+0x67c>)
 8003e18:	6b5a      	ldr	r2, [r3, #52]	; 0x34
 8003e1a:	4b4f      	ldr	r3, [pc, #316]	; (8003f58 <HAL_RCC_OscConfig+0x67c>)
 8003e1c:	2180      	movs	r1, #128	; 0x80
 8003e1e:	0249      	lsls	r1, r1, #9
 8003e20:	430a      	orrs	r2, r1
 8003e22:	635a      	str	r2, [r3, #52]	; 0x34

        /* Get Start Tick */
        tickstart = HAL_GetTick();
 8003e24:	f7fe fe02 	bl	8002a2c <HAL_GetTick>
 8003e28:	0003      	movs	r3, r0
 8003e2a:	61bb      	str	r3, [r7, #24]
      
        /* Wait till HSI48 is ready */  
        while(__HAL_RCC_GET_FLAG(RCC_FLAG_HSI48RDY) == RESET)
 8003e2c:	e008      	b.n	8003e40 <HAL_RCC_OscConfig+0x564>
        {
          if((HAL_GetTick() - tickstart) > HSI48_TIMEOUT_VALUE)
 8003e2e:	f7fe fdfd 	bl	8002a2c <HAL_GetTick>
 8003e32:	0002      	movs	r2, r0
 8003e34:	69bb      	ldr	r3, [r7, #24]
 8003e36:	1ad3      	subs	r3, r2, r3
 8003e38:	2b02      	cmp	r3, #2
 8003e3a:	d901      	bls.n	8003e40 <HAL_RCC_OscConfig+0x564>
          {
            return HAL_TIMEOUT;
 8003e3c:	2303      	movs	r3, #3
 8003e3e:	e0cd      	b.n	8003fdc <HAL_RCC_OscConfig+0x700>
        while(__HAL_RCC_GET_FLAG(RCC_FLAG_HSI48RDY) == RESET)
 8003e40:	4b45      	ldr	r3, [pc, #276]	; (8003f58 <HAL_RCC_OscConfig+0x67c>)
 8003e42:	6b5a      	ldr	r2, [r3, #52]	; 0x34
 8003e44:	2380      	movs	r3, #128	; 0x80
 8003e46:	025b      	lsls	r3, r3, #9
 8003e48:	4013      	ands	r3, r2
 8003e4a:	d0f0      	beq.n	8003e2e <HAL_RCC_OscConfig+0x552>
 8003e4c:	e01b      	b.n	8003e86 <HAL_RCC_OscConfig+0x5aa>
        } 
      }
      else
      {
        /* Disable the Internal High Speed oscillator (HSI48). */
        __HAL_RCC_HSI48_DISABLE();
 8003e4e:	4b42      	ldr	r3, [pc, #264]	; (8003f58 <HAL_RCC_OscConfig+0x67c>)
 8003e50:	6b5a      	ldr	r2, [r3, #52]	; 0x34
 8003e52:	4b41      	ldr	r3, [pc, #260]	; (8003f58 <HAL_RCC_OscConfig+0x67c>)
 8003e54:	4943      	ldr	r1, [pc, #268]	; (8003f64 <HAL_RCC_OscConfig+0x688>)
 8003e56:	400a      	ands	r2, r1
 8003e58:	635a      	str	r2, [r3, #52]	; 0x34

        /* Get Start Tick */
        tickstart = HAL_GetTick();
 8003e5a:	f7fe fde7 	bl	8002a2c <HAL_GetTick>
 8003e5e:	0003      	movs	r3, r0
 8003e60:	61bb      	str	r3, [r7, #24]
      
        /* Wait till HSI48 is ready */  
        while(__HAL_RCC_GET_FLAG(RCC_FLAG_HSI48RDY) != RESET)
 8003e62:	e008      	b.n	8003e76 <HAL_RCC_OscConfig+0x59a>
        {
          if((HAL_GetTick() - tickstart) > HSI48_TIMEOUT_VALUE)
 8003e64:	f7fe fde2 	bl	8002a2c <HAL_GetTick>
 8003e68:	0002      	movs	r2, r0
 8003e6a:	69bb      	ldr	r3, [r7, #24]
 8003e6c:	1ad3      	subs	r3, r2, r3
 8003e6e:	2b02      	cmp	r3, #2
 8003e70:	d901      	bls.n	8003e76 <HAL_RCC_OscConfig+0x59a>
          {
            return HAL_TIMEOUT;
 8003e72:	2303      	movs	r3, #3
 8003e74:	e0b2      	b.n	8003fdc <HAL_RCC_OscConfig+0x700>
        while(__HAL_RCC_GET_FLAG(RCC_FLAG_HSI48RDY) != RESET)
 8003e76:	4b38      	ldr	r3, [pc, #224]	; (8003f58 <HAL_RCC_OscConfig+0x67c>)
 8003e78:	6b5a      	ldr	r2, [r3, #52]	; 0x34
 8003e7a:	2380      	movs	r3, #128	; 0x80
 8003e7c:	025b      	lsls	r3, r3, #9
 8003e7e:	4013      	ands	r3, r2
 8003e80:	d1f0      	bne.n	8003e64 <HAL_RCC_OscConfig+0x588>
 8003e82:	e000      	b.n	8003e86 <HAL_RCC_OscConfig+0x5aa>
      if((__HAL_RCC_GET_FLAG(RCC_FLAG_HSI48RDY) != RESET) && (RCC_OscInitStruct->HSI48State != RCC_HSI48_ON))
 8003e84:	46c0      	nop			; (mov r8, r8)
#endif /* RCC_HSI48_SUPPORT */
       
  /*-------------------------------- PLL Configuration -----------------------*/
  /* Check the parameters */
  assert_param(IS_RCC_PLL(RCC_OscInitStruct->PLL.PLLState));
  if ((RCC_OscInitStruct->PLL.PLLState) != RCC_PLL_NONE)
 8003e86:	687b      	ldr	r3, [r7, #4]
 8003e88:	6a5b      	ldr	r3, [r3, #36]	; 0x24
 8003e8a:	2b00      	cmp	r3, #0
 8003e8c:	d100      	bne.n	8003e90 <HAL_RCC_OscConfig+0x5b4>
 8003e8e:	e0a4      	b.n	8003fda <HAL_RCC_OscConfig+0x6fe>
  {
    /* Check if the PLL is used as system clock or not */
    if(__HAL_RCC_GET_SYSCLK_SOURCE() != RCC_SYSCLKSOURCE_STATUS_PLLCLK)
 8003e90:	4b31      	ldr	r3, [pc, #196]	; (8003f58 <HAL_RCC_OscConfig+0x67c>)
 8003e92:	685b      	ldr	r3, [r3, #4]
 8003e94:	220c      	movs	r2, #12
 8003e96:	4013      	ands	r3, r2
 8003e98:	2b08      	cmp	r3, #8
 8003e9a:	d100      	bne.n	8003e9e <HAL_RCC_OscConfig+0x5c2>
 8003e9c:	e078      	b.n	8003f90 <HAL_RCC_OscConfig+0x6b4>
    { 
      if((RCC_OscInitStruct->PLL.PLLState) == RCC_PLL_ON)
 8003e9e:	687b      	ldr	r3, [r7, #4]
 8003ea0:	6a5b      	ldr	r3, [r3, #36]	; 0x24
 8003ea2:	2b02      	cmp	r3, #2
 8003ea4:	d14c      	bne.n	8003f40 <HAL_RCC_OscConfig+0x664>
        assert_param(IS_RCC_PLLSOURCE(RCC_OscInitStruct->PLL.PLLSource));
        assert_param(IS_RCC_PLL_MUL(RCC_OscInitStruct->PLL.PLLMUL));
        assert_param(IS_RCC_PREDIV(RCC_OscInitStruct->PLL.PREDIV));
  
        /* Disable the main PLL. */
        __HAL_RCC_PLL_DISABLE();
 8003ea6:	4b2c      	ldr	r3, [pc, #176]	; (8003f58 <HAL_RCC_OscConfig+0x67c>)
 8003ea8:	681a      	ldr	r2, [r3, #0]
 8003eaa:	4b2b      	ldr	r3, [pc, #172]	; (8003f58 <HAL_RCC_OscConfig+0x67c>)
 8003eac:	492e      	ldr	r1, [pc, #184]	; (8003f68 <HAL_RCC_OscConfig+0x68c>)
 8003eae:	400a      	ands	r2, r1
 8003eb0:	601a      	str	r2, [r3, #0]
        
        /* Get Start Tick */
        tickstart = HAL_GetTick();
 8003eb2:	f7fe fdbb 	bl	8002a2c <HAL_GetTick>
 8003eb6:	0003      	movs	r3, r0
 8003eb8:	61bb      	str	r3, [r7, #24]
        
        /* Wait till PLL is disabled */
        while(__HAL_RCC_GET_FLAG(RCC_FLAG_PLLRDY)  != RESET)
 8003eba:	e008      	b.n	8003ece <HAL_RCC_OscConfig+0x5f2>
        {
          if((HAL_GetTick() - tickstart ) > PLL_TIMEOUT_VALUE)
 8003ebc:	f7fe fdb6 	bl	8002a2c <HAL_GetTick>
 8003ec0:	0002      	movs	r2, r0
 8003ec2:	69bb      	ldr	r3, [r7, #24]
 8003ec4:	1ad3      	subs	r3, r2, r3
 8003ec6:	2b02      	cmp	r3, #2
 8003ec8:	d901      	bls.n	8003ece <HAL_RCC_OscConfig+0x5f2>
          {
            return HAL_TIMEOUT;
 8003eca:	2303      	movs	r3, #3
 8003ecc:	e086      	b.n	8003fdc <HAL_RCC_OscConfig+0x700>
        while(__HAL_RCC_GET_FLAG(RCC_FLAG_PLLRDY)  != RESET)
 8003ece:	4b22      	ldr	r3, [pc, #136]	; (8003f58 <HAL_RCC_OscConfig+0x67c>)
 8003ed0:	681a      	ldr	r2, [r3, #0]
 8003ed2:	2380      	movs	r3, #128	; 0x80
 8003ed4:	049b      	lsls	r3, r3, #18
 8003ed6:	4013      	ands	r3, r2
 8003ed8:	d1f0      	bne.n	8003ebc <HAL_RCC_OscConfig+0x5e0>
          }
        }

        /* Configure the main PLL clock source, predivider and multiplication factor. */
        __HAL_RCC_PLL_CONFIG(RCC_OscInitStruct->PLL.PLLSource,
 8003eda:	4b1f      	ldr	r3, [pc, #124]	; (8003f58 <HAL_RCC_OscConfig+0x67c>)
 8003edc:	6adb      	ldr	r3, [r3, #44]	; 0x2c
 8003ede:	220f      	movs	r2, #15
 8003ee0:	4393      	bics	r3, r2
 8003ee2:	0019      	movs	r1, r3
 8003ee4:	687b      	ldr	r3, [r7, #4]
 8003ee6:	6b1a      	ldr	r2, [r3, #48]	; 0x30
 8003ee8:	4b1b      	ldr	r3, [pc, #108]	; (8003f58 <HAL_RCC_OscConfig+0x67c>)
 8003eea:	430a      	orrs	r2, r1
 8003eec:	62da      	str	r2, [r3, #44]	; 0x2c
 8003eee:	4b1a      	ldr	r3, [pc, #104]	; (8003f58 <HAL_RCC_OscConfig+0x67c>)
 8003ef0:	685b      	ldr	r3, [r3, #4]
 8003ef2:	4a1e      	ldr	r2, [pc, #120]	; (8003f6c <HAL_RCC_OscConfig+0x690>)
 8003ef4:	4013      	ands	r3, r2
 8003ef6:	0019      	movs	r1, r3
 8003ef8:	687b      	ldr	r3, [r7, #4]
 8003efa:	6ada      	ldr	r2, [r3, #44]	; 0x2c
 8003efc:	687b      	ldr	r3, [r7, #4]
 8003efe:	6a9b      	ldr	r3, [r3, #40]	; 0x28
 8003f00:	431a      	orrs	r2, r3
 8003f02:	4b15      	ldr	r3, [pc, #84]	; (8003f58 <HAL_RCC_OscConfig+0x67c>)
 8003f04:	430a      	orrs	r2, r1
 8003f06:	605a      	str	r2, [r3, #4]
                             RCC_OscInitStruct->PLL.PREDIV,
                             RCC_OscInitStruct->PLL.PLLMUL);
        /* Enable the main PLL. */
        __HAL_RCC_PLL_ENABLE();
 8003f08:	4b13      	ldr	r3, [pc, #76]	; (8003f58 <HAL_RCC_OscConfig+0x67c>)
 8003f0a:	681a      	ldr	r2, [r3, #0]
 8003f0c:	4b12      	ldr	r3, [pc, #72]	; (8003f58 <HAL_RCC_OscConfig+0x67c>)
 8003f0e:	2180      	movs	r1, #128	; 0x80
 8003f10:	0449      	lsls	r1, r1, #17
 8003f12:	430a      	orrs	r2, r1
 8003f14:	601a      	str	r2, [r3, #0]
        
        /* Get Start Tick */
        tickstart = HAL_GetTick();
 8003f16:	f7fe fd89 	bl	8002a2c <HAL_GetTick>
 8003f1a:	0003      	movs	r3, r0
 8003f1c:	61bb      	str	r3, [r7, #24]
        
        /* Wait till PLL is ready */
        while(__HAL_RCC_GET_FLAG(RCC_FLAG_PLLRDY)  == RESET)
 8003f1e:	e008      	b.n	8003f32 <HAL_RCC_OscConfig+0x656>
        {
          if((HAL_GetTick() - tickstart ) > PLL_TIMEOUT_VALUE)
 8003f20:	f7fe fd84 	bl	8002a2c <HAL_GetTick>
 8003f24:	0002      	movs	r2, r0
 8003f26:	69bb      	ldr	r3, [r7, #24]
 8003f28:	1ad3      	subs	r3, r2, r3
 8003f2a:	2b02      	cmp	r3, #2
 8003f2c:	d901      	bls.n	8003f32 <HAL_RCC_OscConfig+0x656>
          {
            return HAL_TIMEOUT;
 8003f2e:	2303      	movs	r3, #3
 8003f30:	e054      	b.n	8003fdc <HAL_RCC_OscConfig+0x700>
        while(__HAL_RCC_GET_FLAG(RCC_FLAG_PLLRDY)  == RESET)
 8003f32:	4b09      	ldr	r3, [pc, #36]	; (8003f58 <HAL_RCC_OscConfig+0x67c>)
 8003f34:	681a      	ldr	r2, [r3, #0]
 8003f36:	2380      	movs	r3, #128	; 0x80
 8003f38:	049b      	lsls	r3, r3, #18
 8003f3a:	4013      	ands	r3, r2
 8003f3c:	d0f0      	beq.n	8003f20 <HAL_RCC_OscConfig+0x644>
 8003f3e:	e04c      	b.n	8003fda <HAL_RCC_OscConfig+0x6fe>
        }
      }
      else
      {
        /* Disable the main PLL. */
        __HAL_RCC_PLL_DISABLE();
 8003f40:	4b05      	ldr	r3, [pc, #20]	; (8003f58 <HAL_RCC_OscConfig+0x67c>)
 8003f42:	681a      	ldr	r2, [r3, #0]
 8003f44:	4b04      	ldr	r3, [pc, #16]	; (8003f58 <HAL_RCC_OscConfig+0x67c>)
 8003f46:	4908      	ldr	r1, [pc, #32]	; (8003f68 <HAL_RCC_OscConfig+0x68c>)
 8003f48:	400a      	ands	r2, r1
 8003f4a:	601a      	str	r2, [r3, #0]
 
        /* Get Start Tick */
        tickstart = HAL_GetTick();
 8003f4c:	f7fe fd6e 	bl	8002a2c <HAL_GetTick>
 8003f50:	0003      	movs	r3, r0
 8003f52:	61bb      	str	r3, [r7, #24]
        
        /* Wait till PLL is disabled */  
        while(__HAL_RCC_GET_FLAG(RCC_FLAG_PLLRDY)  != RESET)
 8003f54:	e015      	b.n	8003f82 <HAL_RCC_OscConfig+0x6a6>
 8003f56:	46c0      	nop			; (mov r8, r8)
 8003f58:	40021000 	.word	0x40021000
 8003f5c:	00001388 	.word	0x00001388
 8003f60:	efffffff 	.word	0xefffffff
 8003f64:	fffeffff 	.word	0xfffeffff
 8003f68:	feffffff 	.word	0xfeffffff
 8003f6c:	ffc27fff 	.word	0xffc27fff
        {
          if((HAL_GetTick() - tickstart ) > PLL_TIMEOUT_VALUE)
 8003f70:	f7fe fd5c 	bl	8002a2c <HAL_GetTick>
 8003f74:	0002      	movs	r2, r0
 8003f76:	69bb      	ldr	r3, [r7, #24]
 8003f78:	1ad3      	subs	r3, r2, r3
 8003f7a:	2b02      	cmp	r3, #2
 8003f7c:	d901      	bls.n	8003f82 <HAL_RCC_OscConfig+0x6a6>
          {
            return HAL_TIMEOUT;
 8003f7e:	2303      	movs	r3, #3
 8003f80:	e02c      	b.n	8003fdc <HAL_RCC_OscConfig+0x700>
        while(__HAL_RCC_GET_FLAG(RCC_FLAG_PLLRDY)  != RESET)
 8003f82:	4b18      	ldr	r3, [pc, #96]	; (8003fe4 <HAL_RCC_OscConfig+0x708>)
 8003f84:	681a      	ldr	r2, [r3, #0]
 8003f86:	2380      	movs	r3, #128	; 0x80
 8003f88:	049b      	lsls	r3, r3, #18
 8003f8a:	4013      	ands	r3, r2
 8003f8c:	d1f0      	bne.n	8003f70 <HAL_RCC_OscConfig+0x694>
 8003f8e:	e024      	b.n	8003fda <HAL_RCC_OscConfig+0x6fe>
      }
    }
    else
    {
      /* Check if there is a request to disable the PLL used as System clock source */
      if((RCC_OscInitStruct->PLL.PLLState) == RCC_PLL_OFF)
 8003f90:	687b      	ldr	r3, [r7, #4]
 8003f92:	6a5b      	ldr	r3, [r3, #36]	; 0x24
 8003f94:	2b01      	cmp	r3, #1
 8003f96:	d101      	bne.n	8003f9c <HAL_RCC_OscConfig+0x6c0>
      {
        return HAL_ERROR;
 8003f98:	2301      	movs	r3, #1
 8003f9a:	e01f      	b.n	8003fdc <HAL_RCC_OscConfig+0x700>
      }
      else
      {
        /* Do not return HAL_ERROR if request repeats the current configuration */
        pll_config  = RCC->CFGR;
 8003f9c:	4b11      	ldr	r3, [pc, #68]	; (8003fe4 <HAL_RCC_OscConfig+0x708>)
 8003f9e:	685b      	ldr	r3, [r3, #4]
 8003fa0:	617b      	str	r3, [r7, #20]
        pll_config2 = RCC->CFGR2;
 8003fa2:	4b10      	ldr	r3, [pc, #64]	; (8003fe4 <HAL_RCC_OscConfig+0x708>)
 8003fa4:	6adb      	ldr	r3, [r3, #44]	; 0x2c
 8003fa6:	613b      	str	r3, [r7, #16]
        if((READ_BIT(pll_config,  RCC_CFGR_PLLSRC)  != RCC_OscInitStruct->PLL.PLLSource) ||
 8003fa8:	697a      	ldr	r2, [r7, #20]
 8003faa:	23c0      	movs	r3, #192	; 0xc0
 8003fac:	025b      	lsls	r3, r3, #9
 8003fae:	401a      	ands	r2, r3
 8003fb0:	687b      	ldr	r3, [r7, #4]
 8003fb2:	6a9b      	ldr	r3, [r3, #40]	; 0x28
 8003fb4:	429a      	cmp	r2, r3
 8003fb6:	d10e      	bne.n	8003fd6 <HAL_RCC_OscConfig+0x6fa>
           (READ_BIT(pll_config2, RCC_CFGR2_PREDIV) != RCC_OscInitStruct->PLL.PREDIV)    ||
 8003fb8:	693b      	ldr	r3, [r7, #16]
 8003fba:	220f      	movs	r2, #15
 8003fbc:	401a      	ands	r2, r3
 8003fbe:	687b      	ldr	r3, [r7, #4]
 8003fc0:	6b1b      	ldr	r3, [r3, #48]	; 0x30
        if((READ_BIT(pll_config,  RCC_CFGR_PLLSRC)  != RCC_OscInitStruct->PLL.PLLSource) ||
 8003fc2:	429a      	cmp	r2, r3
 8003fc4:	d107      	bne.n	8003fd6 <HAL_RCC_OscConfig+0x6fa>
           (READ_BIT(pll_config,  RCC_CFGR_PLLMUL)  != RCC_OscInitStruct->PLL.PLLMUL))
 8003fc6:	697a      	ldr	r2, [r7, #20]
 8003fc8:	23f0      	movs	r3, #240	; 0xf0
 8003fca:	039b      	lsls	r3, r3, #14
 8003fcc:	401a      	ands	r2, r3
 8003fce:	687b      	ldr	r3, [r7, #4]
 8003fd0:	6adb      	ldr	r3, [r3, #44]	; 0x2c
           (READ_BIT(pll_config2, RCC_CFGR2_PREDIV) != RCC_OscInitStruct->PLL.PREDIV)    ||
 8003fd2:	429a      	cmp	r2, r3
 8003fd4:	d001      	beq.n	8003fda <HAL_RCC_OscConfig+0x6fe>
        {
          return HAL_ERROR;
 8003fd6:	2301      	movs	r3, #1
 8003fd8:	e000      	b.n	8003fdc <HAL_RCC_OscConfig+0x700>
        }
      }
    }
  }

  return HAL_OK;
 8003fda:	2300      	movs	r3, #0
}
 8003fdc:	0018      	movs	r0, r3
 8003fde:	46bd      	mov	sp, r7
 8003fe0:	b008      	add	sp, #32
 8003fe2:	bd80      	pop	{r7, pc}
 8003fe4:	40021000 	.word	0x40021000

08003fe8 <HAL_RCC_ClockConfig>:
  *         You can use @ref HAL_RCC_GetClockConfig() function to know which clock is
  *         currently used as system clock source.
  * @retval HAL status
  */
HAL_StatusTypeDef HAL_RCC_ClockConfig(RCC_ClkInitTypeDef  *RCC_ClkInitStruct, uint32_t FLatency)
{
 8003fe8:	b580      	push	{r7, lr}
 8003fea:	b084      	sub	sp, #16
 8003fec:	af00      	add	r7, sp, #0
 8003fee:	6078      	str	r0, [r7, #4]
 8003ff0:	6039      	str	r1, [r7, #0]
  uint32_t tickstart;

  /* Check Null pointer */
  if(RCC_ClkInitStruct == NULL)
 8003ff2:	687b      	ldr	r3, [r7, #4]
 8003ff4:	2b00      	cmp	r3, #0
 8003ff6:	d101      	bne.n	8003ffc <HAL_RCC_ClockConfig+0x14>
  {
    return HAL_ERROR;
 8003ff8:	2301      	movs	r3, #1
 8003ffa:	e0bf      	b.n	800417c <HAL_RCC_ClockConfig+0x194>
  /* To correctly read data from FLASH memory, the number of wait states (LATENCY) 
  must be correctly programmed according to the frequency of the CPU clock 
    (HCLK) of the device. */

  /* Increasing the number of wait states because of higher CPU frequency */
  if(FLatency > __HAL_FLASH_GET_LATENCY())
 8003ffc:	4b61      	ldr	r3, [pc, #388]	; (8004184 <HAL_RCC_ClockConfig+0x19c>)
 8003ffe:	681b      	ldr	r3, [r3, #0]
 8004000:	2201      	movs	r2, #1
 8004002:	4013      	ands	r3, r2
 8004004:	683a      	ldr	r2, [r7, #0]
 8004006:	429a      	cmp	r2, r3
 8004008:	d911      	bls.n	800402e <HAL_RCC_ClockConfig+0x46>
  {    
    /* Program the new number of wait states to the LATENCY bits in the FLASH_ACR register */
    __HAL_FLASH_SET_LATENCY(FLatency);
 800400a:	4b5e      	ldr	r3, [pc, #376]	; (8004184 <HAL_RCC_ClockConfig+0x19c>)
 800400c:	681b      	ldr	r3, [r3, #0]
 800400e:	2201      	movs	r2, #1
 8004010:	4393      	bics	r3, r2
 8004012:	0019      	movs	r1, r3
 8004014:	4b5b      	ldr	r3, [pc, #364]	; (8004184 <HAL_RCC_ClockConfig+0x19c>)
 8004016:	683a      	ldr	r2, [r7, #0]
 8004018:	430a      	orrs	r2, r1
 800401a:	601a      	str	r2, [r3, #0]
    
    /* Check that the new number of wait states is taken into account to access the Flash
    memory by reading the FLASH_ACR register */
    if(__HAL_FLASH_GET_LATENCY() != FLatency)
 800401c:	4b59      	ldr	r3, [pc, #356]	; (8004184 <HAL_RCC_ClockConfig+0x19c>)
 800401e:	681b      	ldr	r3, [r3, #0]
 8004020:	2201      	movs	r2, #1
 8004022:	4013      	ands	r3, r2
 8004024:	683a      	ldr	r2, [r7, #0]
 8004026:	429a      	cmp	r2, r3
 8004028:	d001      	beq.n	800402e <HAL_RCC_ClockConfig+0x46>
    {
      return HAL_ERROR;
 800402a:	2301      	movs	r3, #1
 800402c:	e0a6      	b.n	800417c <HAL_RCC_ClockConfig+0x194>
    }
  }

  /*-------------------------- HCLK Configuration --------------------------*/
  if(((RCC_ClkInitStruct->ClockType) & RCC_CLOCKTYPE_HCLK) == RCC_CLOCKTYPE_HCLK)
 800402e:	687b      	ldr	r3, [r7, #4]
 8004030:	681b      	ldr	r3, [r3, #0]
 8004032:	2202      	movs	r2, #2
 8004034:	4013      	ands	r3, r2
 8004036:	d015      	beq.n	8004064 <HAL_RCC_ClockConfig+0x7c>
  {
    /* Set the highest APB divider in order to ensure that we do not go through
       a non-spec phase whatever we decrease or increase HCLK. */
    if(((RCC_ClkInitStruct->ClockType) & RCC_CLOCKTYPE_PCLK1) == RCC_CLOCKTYPE_PCLK1)
 8004038:	687b      	ldr	r3, [r7, #4]
 800403a:	681b      	ldr	r3, [r3, #0]
 800403c:	2204      	movs	r2, #4
 800403e:	4013      	ands	r3, r2
 8004040:	d006      	beq.n	8004050 <HAL_RCC_ClockConfig+0x68>
    {
      MODIFY_REG(RCC->CFGR, RCC_CFGR_PPRE, RCC_HCLK_DIV16);
 8004042:	4b51      	ldr	r3, [pc, #324]	; (8004188 <HAL_RCC_ClockConfig+0x1a0>)
 8004044:	685a      	ldr	r2, [r3, #4]
 8004046:	4b50      	ldr	r3, [pc, #320]	; (8004188 <HAL_RCC_ClockConfig+0x1a0>)
 8004048:	21e0      	movs	r1, #224	; 0xe0
 800404a:	00c9      	lsls	r1, r1, #3
 800404c:	430a      	orrs	r2, r1
 800404e:	605a      	str	r2, [r3, #4]
    }

    /* Set the new HCLK clock divider */
    assert_param(IS_RCC_HCLK(RCC_ClkInitStruct->AHBCLKDivider));
    MODIFY_REG(RCC->CFGR, RCC_CFGR_HPRE, RCC_ClkInitStruct->AHBCLKDivider);
 8004050:	4b4d      	ldr	r3, [pc, #308]	; (8004188 <HAL_RCC_ClockConfig+0x1a0>)
 8004052:	685b      	ldr	r3, [r3, #4]
 8004054:	22f0      	movs	r2, #240	; 0xf0
 8004056:	4393      	bics	r3, r2
 8004058:	0019      	movs	r1, r3
 800405a:	687b      	ldr	r3, [r7, #4]
 800405c:	689a      	ldr	r2, [r3, #8]
 800405e:	4b4a      	ldr	r3, [pc, #296]	; (8004188 <HAL_RCC_ClockConfig+0x1a0>)
 8004060:	430a      	orrs	r2, r1
 8004062:	605a      	str	r2, [r3, #4]
  }

  /*------------------------- SYSCLK Configuration ---------------------------*/ 
  if(((RCC_ClkInitStruct->ClockType) & RCC_CLOCKTYPE_SYSCLK) == RCC_CLOCKTYPE_SYSCLK)
 8004064:	687b      	ldr	r3, [r7, #4]
 8004066:	681b      	ldr	r3, [r3, #0]
 8004068:	2201      	movs	r2, #1
 800406a:	4013      	ands	r3, r2
 800406c:	d04c      	beq.n	8004108 <HAL_RCC_ClockConfig+0x120>
  {
    assert_param(IS_RCC_SYSCLKSOURCE(RCC_ClkInitStruct->SYSCLKSource));
    
    /* HSE is selected as System Clock Source */
    if(RCC_ClkInitStruct->SYSCLKSource == RCC_SYSCLKSOURCE_HSE)
 800406e:	687b      	ldr	r3, [r7, #4]
 8004070:	685b      	ldr	r3, [r3, #4]
 8004072:	2b01      	cmp	r3, #1
 8004074:	d107      	bne.n	8004086 <HAL_RCC_ClockConfig+0x9e>
    {
      /* Check the HSE ready flag */  
      if(__HAL_RCC_GET_FLAG(RCC_FLAG_HSERDY) == RESET)
 8004076:	4b44      	ldr	r3, [pc, #272]	; (8004188 <HAL_RCC_ClockConfig+0x1a0>)
 8004078:	681a      	ldr	r2, [r3, #0]
 800407a:	2380      	movs	r3, #128	; 0x80
 800407c:	029b      	lsls	r3, r3, #10
 800407e:	4013      	ands	r3, r2
 8004080:	d120      	bne.n	80040c4 <HAL_RCC_ClockConfig+0xdc>
      {
        return HAL_ERROR;
 8004082:	2301      	movs	r3, #1
 8004084:	e07a      	b.n	800417c <HAL_RCC_ClockConfig+0x194>
      }
    }
    /* PLL is selected as System Clock Source */
    else if(RCC_ClkInitStruct->SYSCLKSource == RCC_SYSCLKSOURCE_PLLCLK)
 8004086:	687b      	ldr	r3, [r7, #4]
 8004088:	685b      	ldr	r3, [r3, #4]
 800408a:	2b02      	cmp	r3, #2
 800408c:	d107      	bne.n	800409e <HAL_RCC_ClockConfig+0xb6>
    {
      /* Check the PLL ready flag */  
      if(__HAL_RCC_GET_FLAG(RCC_FLAG_PLLRDY) == RESET)
 800408e:	4b3e      	ldr	r3, [pc, #248]	; (8004188 <HAL_RCC_ClockConfig+0x1a0>)
 8004090:	681a      	ldr	r2, [r3, #0]
 8004092:	2380      	movs	r3, #128	; 0x80
 8004094:	049b      	lsls	r3, r3, #18
 8004096:	4013      	ands	r3, r2
 8004098:	d114      	bne.n	80040c4 <HAL_RCC_ClockConfig+0xdc>
      {
        return HAL_ERROR;
 800409a:	2301      	movs	r3, #1
 800409c:	e06e      	b.n	800417c <HAL_RCC_ClockConfig+0x194>
      }
    }
#if defined(RCC_CFGR_SWS_HSI48)
    /* HSI48 is selected as System Clock Source */
    else if(RCC_ClkInitStruct->SYSCLKSource == RCC_SYSCLKSOURCE_HSI48)
 800409e:	687b      	ldr	r3, [r7, #4]
 80040a0:	685b      	ldr	r3, [r3, #4]
 80040a2:	2b03      	cmp	r3, #3
 80040a4:	d107      	bne.n	80040b6 <HAL_RCC_ClockConfig+0xce>
    {
      /* Check the HSI48 ready flag */
      if(__HAL_RCC_GET_FLAG(RCC_FLAG_HSI48RDY) == RESET)
 80040a6:	4b38      	ldr	r3, [pc, #224]	; (8004188 <HAL_RCC_ClockConfig+0x1a0>)
 80040a8:	6b5a      	ldr	r2, [r3, #52]	; 0x34
 80040aa:	2380      	movs	r3, #128	; 0x80
 80040ac:	025b      	lsls	r3, r3, #9
 80040ae:	4013      	ands	r3, r2
 80040b0:	d108      	bne.n	80040c4 <HAL_RCC_ClockConfig+0xdc>
      {
        return HAL_ERROR;
 80040b2:	2301      	movs	r3, #1
 80040b4:	e062      	b.n	800417c <HAL_RCC_ClockConfig+0x194>
#endif /* RCC_CFGR_SWS_HSI48 */
    /* HSI is selected as System Clock Source */
    else
    {
      /* Check the HSI ready flag */  
      if(__HAL_RCC_GET_FLAG(RCC_FLAG_HSIRDY) == RESET)
 80040b6:	4b34      	ldr	r3, [pc, #208]	; (8004188 <HAL_RCC_ClockConfig+0x1a0>)
 80040b8:	681b      	ldr	r3, [r3, #0]
 80040ba:	2202      	movs	r2, #2
 80040bc:	4013      	ands	r3, r2
 80040be:	d101      	bne.n	80040c4 <HAL_RCC_ClockConfig+0xdc>
      {
        return HAL_ERROR;
 80040c0:	2301      	movs	r3, #1
 80040c2:	e05b      	b.n	800417c <HAL_RCC_ClockConfig+0x194>
      }
    }
    __HAL_RCC_SYSCLK_CONFIG(RCC_ClkInitStruct->SYSCLKSource);
 80040c4:	4b30      	ldr	r3, [pc, #192]	; (8004188 <HAL_RCC_ClockConfig+0x1a0>)
 80040c6:	685b      	ldr	r3, [r3, #4]
 80040c8:	2203      	movs	r2, #3
 80040ca:	4393      	bics	r3, r2
 80040cc:	0019      	movs	r1, r3
 80040ce:	687b      	ldr	r3, [r7, #4]
 80040d0:	685a      	ldr	r2, [r3, #4]
 80040d2:	4b2d      	ldr	r3, [pc, #180]	; (8004188 <HAL_RCC_ClockConfig+0x1a0>)
 80040d4:	430a      	orrs	r2, r1
 80040d6:	605a      	str	r2, [r3, #4]

    /* Get Start Tick */
    tickstart = HAL_GetTick();
 80040d8:	f7fe fca8 	bl	8002a2c <HAL_GetTick>
 80040dc:	0003      	movs	r3, r0
 80040de:	60fb      	str	r3, [r7, #12]
    
    while (__HAL_RCC_GET_SYSCLK_SOURCE() != (RCC_ClkInitStruct->SYSCLKSource << RCC_CFGR_SWS_Pos))
 80040e0:	e009      	b.n	80040f6 <HAL_RCC_ClockConfig+0x10e>
    {
      if((HAL_GetTick() - tickstart ) > CLOCKSWITCH_TIMEOUT_VALUE)
 80040e2:	f7fe fca3 	bl	8002a2c <HAL_GetTick>
 80040e6:	0002      	movs	r2, r0
 80040e8:	68fb      	ldr	r3, [r7, #12]
 80040ea:	1ad3      	subs	r3, r2, r3
 80040ec:	4a27      	ldr	r2, [pc, #156]	; (800418c <HAL_RCC_ClockConfig+0x1a4>)
 80040ee:	4293      	cmp	r3, r2
 80040f0:	d901      	bls.n	80040f6 <HAL_RCC_ClockConfig+0x10e>
      {
        return HAL_TIMEOUT;
 80040f2:	2303      	movs	r3, #3
 80040f4:	e042      	b.n	800417c <HAL_RCC_ClockConfig+0x194>
    while (__HAL_RCC_GET_SYSCLK_SOURCE() != (RCC_ClkInitStruct->SYSCLKSource << RCC_CFGR_SWS_Pos))
 80040f6:	4b24      	ldr	r3, [pc, #144]	; (8004188 <HAL_RCC_ClockConfig+0x1a0>)
 80040f8:	685b      	ldr	r3, [r3, #4]
 80040fa:	220c      	movs	r2, #12
 80040fc:	401a      	ands	r2, r3
 80040fe:	687b      	ldr	r3, [r7, #4]
 8004100:	685b      	ldr	r3, [r3, #4]
 8004102:	009b      	lsls	r3, r3, #2
 8004104:	429a      	cmp	r2, r3
 8004106:	d1ec      	bne.n	80040e2 <HAL_RCC_ClockConfig+0xfa>
      }
    }
  }

  /* Decreasing the number of wait states because of lower CPU frequency */
  if(FLatency < __HAL_FLASH_GET_LATENCY())
 8004108:	4b1e      	ldr	r3, [pc, #120]	; (8004184 <HAL_RCC_ClockConfig+0x19c>)
 800410a:	681b      	ldr	r3, [r3, #0]
 800410c:	2201      	movs	r2, #1
 800410e:	4013      	ands	r3, r2
 8004110:	683a      	ldr	r2, [r7, #0]
 8004112:	429a      	cmp	r2, r3
 8004114:	d211      	bcs.n	800413a <HAL_RCC_ClockConfig+0x152>
  {    
    /* Program the new number of wait states to the LATENCY bits in the FLASH_ACR register */
    __HAL_FLASH_SET_LATENCY(FLatency);
 8004116:	4b1b      	ldr	r3, [pc, #108]	; (8004184 <HAL_RCC_ClockConfig+0x19c>)
 8004118:	681b      	ldr	r3, [r3, #0]
 800411a:	2201      	movs	r2, #1
 800411c:	4393      	bics	r3, r2
 800411e:	0019      	movs	r1, r3
 8004120:	4b18      	ldr	r3, [pc, #96]	; (8004184 <HAL_RCC_ClockConfig+0x19c>)
 8004122:	683a      	ldr	r2, [r7, #0]
 8004124:	430a      	orrs	r2, r1
 8004126:	601a      	str	r2, [r3, #0]
    
    /* Check that the new number of wait states is taken into account to access the Flash
    memory by reading the FLASH_ACR register */
    if(__HAL_FLASH_GET_LATENCY() != FLatency)
 8004128:	4b16      	ldr	r3, [pc, #88]	; (8004184 <HAL_RCC_ClockConfig+0x19c>)
 800412a:	681b      	ldr	r3, [r3, #0]
 800412c:	2201      	movs	r2, #1
 800412e:	4013      	ands	r3, r2
 8004130:	683a      	ldr	r2, [r7, #0]
 8004132:	429a      	cmp	r2, r3
 8004134:	d001      	beq.n	800413a <HAL_RCC_ClockConfig+0x152>
    {
      return HAL_ERROR;
 8004136:	2301      	movs	r3, #1
 8004138:	e020      	b.n	800417c <HAL_RCC_ClockConfig+0x194>
    }
  }    

  /*-------------------------- PCLK1 Configuration ---------------------------*/ 
  if(((RCC_ClkInitStruct->ClockType) & RCC_CLOCKTYPE_PCLK1) == RCC_CLOCKTYPE_PCLK1)
 800413a:	687b      	ldr	r3, [r7, #4]
 800413c:	681b      	ldr	r3, [r3, #0]
 800413e:	2204      	movs	r2, #4
 8004140:	4013      	ands	r3, r2
 8004142:	d009      	beq.n	8004158 <HAL_RCC_ClockConfig+0x170>
  {
    assert_param(IS_RCC_PCLK(RCC_ClkInitStruct->APB1CLKDivider));
    MODIFY_REG(RCC->CFGR, RCC_CFGR_PPRE, RCC_ClkInitStruct->APB1CLKDivider);
 8004144:	4b10      	ldr	r3, [pc, #64]	; (8004188 <HAL_RCC_ClockConfig+0x1a0>)
 8004146:	685b      	ldr	r3, [r3, #4]
 8004148:	4a11      	ldr	r2, [pc, #68]	; (8004190 <HAL_RCC_ClockConfig+0x1a8>)
 800414a:	4013      	ands	r3, r2
 800414c:	0019      	movs	r1, r3
 800414e:	687b      	ldr	r3, [r7, #4]
 8004150:	68da      	ldr	r2, [r3, #12]
 8004152:	4b0d      	ldr	r3, [pc, #52]	; (8004188 <HAL_RCC_ClockConfig+0x1a0>)
 8004154:	430a      	orrs	r2, r1
 8004156:	605a      	str	r2, [r3, #4]
  }
  
  /* Update the SystemCoreClock global variable */
  SystemCoreClock = HAL_RCC_GetSysClockFreq() >> AHBPrescTable[(RCC->CFGR & RCC_CFGR_HPRE)>> RCC_CFGR_HPRE_BITNUMBER];
 8004158:	f000 f820 	bl	800419c <HAL_RCC_GetSysClockFreq>
 800415c:	0001      	movs	r1, r0
 800415e:	4b0a      	ldr	r3, [pc, #40]	; (8004188 <HAL_RCC_ClockConfig+0x1a0>)
 8004160:	685b      	ldr	r3, [r3, #4]
 8004162:	091b      	lsrs	r3, r3, #4
 8004164:	220f      	movs	r2, #15
 8004166:	4013      	ands	r3, r2
 8004168:	4a0a      	ldr	r2, [pc, #40]	; (8004194 <HAL_RCC_ClockConfig+0x1ac>)
 800416a:	5cd3      	ldrb	r3, [r2, r3]
 800416c:	000a      	movs	r2, r1
 800416e:	40da      	lsrs	r2, r3
 8004170:	4b09      	ldr	r3, [pc, #36]	; (8004198 <HAL_RCC_ClockConfig+0x1b0>)
 8004172:	601a      	str	r2, [r3, #0]

  /* Configure the source of time base considering new system clocks settings*/
  HAL_InitTick (TICK_INT_PRIORITY);
 8004174:	2000      	movs	r0, #0
 8004176:	f7fe fc13 	bl	80029a0 <HAL_InitTick>
  
  return HAL_OK;
 800417a:	2300      	movs	r3, #0
}
 800417c:	0018      	movs	r0, r3
 800417e:	46bd      	mov	sp, r7
 8004180:	b004      	add	sp, #16
 8004182:	bd80      	pop	{r7, pc}
 8004184:	40022000 	.word	0x40022000
 8004188:	40021000 	.word	0x40021000
 800418c:	00001388 	.word	0x00001388
 8004190:	fffff8ff 	.word	0xfffff8ff
 8004194:	080081bc 	.word	0x080081bc
 8004198:	20000000 	.word	0x20000000

0800419c <HAL_RCC_GetSysClockFreq>:
  *         right SYSCLK value. Otherwise, any configuration based on this function will be incorrect.
  *         
  * @retval SYSCLK frequency
  */
uint32_t HAL_RCC_GetSysClockFreq(void)
{
 800419c:	b590      	push	{r4, r7, lr}
 800419e:	b08f      	sub	sp, #60	; 0x3c
 80041a0:	af00      	add	r7, sp, #0
  const uint8_t aPLLMULFactorTable[16] = { 2U,  3U,  4U,  5U,  6U,  7U,  8U,  9U,
 80041a2:	2314      	movs	r3, #20
 80041a4:	18fb      	adds	r3, r7, r3
 80041a6:	4a37      	ldr	r2, [pc, #220]	; (8004284 <HAL_RCC_GetSysClockFreq+0xe8>)
 80041a8:	ca13      	ldmia	r2!, {r0, r1, r4}
 80041aa:	c313      	stmia	r3!, {r0, r1, r4}
 80041ac:	6812      	ldr	r2, [r2, #0]
 80041ae:	601a      	str	r2, [r3, #0]
                                         10U, 11U, 12U, 13U, 14U, 15U, 16U, 16U};
  const uint8_t aPredivFactorTable[16] = { 1U, 2U,  3U,  4U,  5U,  6U,  7U,  8U,
 80041b0:	1d3b      	adds	r3, r7, #4
 80041b2:	4a35      	ldr	r2, [pc, #212]	; (8004288 <HAL_RCC_GetSysClockFreq+0xec>)
 80041b4:	ca13      	ldmia	r2!, {r0, r1, r4}
 80041b6:	c313      	stmia	r3!, {r0, r1, r4}
 80041b8:	6812      	ldr	r2, [r2, #0]
 80041ba:	601a      	str	r2, [r3, #0]
                                           9U,10U, 11U, 12U, 13U, 14U, 15U, 16U};

  uint32_t tmpreg = 0U, prediv = 0U, pllclk = 0U, pllmul = 0U;
 80041bc:	2300      	movs	r3, #0
 80041be:	62fb      	str	r3, [r7, #44]	; 0x2c
 80041c0:	2300      	movs	r3, #0
 80041c2:	62bb      	str	r3, [r7, #40]	; 0x28
 80041c4:	2300      	movs	r3, #0
 80041c6:	637b      	str	r3, [r7, #52]	; 0x34
 80041c8:	2300      	movs	r3, #0
 80041ca:	627b      	str	r3, [r7, #36]	; 0x24
  uint32_t sysclockfreq = 0U;
 80041cc:	2300      	movs	r3, #0
 80041ce:	633b      	str	r3, [r7, #48]	; 0x30
  
  tmpreg = RCC->CFGR;
 80041d0:	4b2e      	ldr	r3, [pc, #184]	; (800428c <HAL_RCC_GetSysClockFreq+0xf0>)
 80041d2:	685b      	ldr	r3, [r3, #4]
 80041d4:	62fb      	str	r3, [r7, #44]	; 0x2c
  
  /* Get SYSCLK source -------------------------------------------------------*/
  switch (tmpreg & RCC_CFGR_SWS)
 80041d6:	6afb      	ldr	r3, [r7, #44]	; 0x2c
 80041d8:	220c      	movs	r2, #12
 80041da:	4013      	ands	r3, r2
 80041dc:	2b08      	cmp	r3, #8
 80041de:	d006      	beq.n	80041ee <HAL_RCC_GetSysClockFreq+0x52>
 80041e0:	2b0c      	cmp	r3, #12
 80041e2:	d043      	beq.n	800426c <HAL_RCC_GetSysClockFreq+0xd0>
 80041e4:	2b04      	cmp	r3, #4
 80041e6:	d144      	bne.n	8004272 <HAL_RCC_GetSysClockFreq+0xd6>
  {
    case RCC_SYSCLKSOURCE_STATUS_HSE:  /* HSE used as system clock */
    {
      sysclockfreq = HSE_VALUE;
 80041e8:	4b29      	ldr	r3, [pc, #164]	; (8004290 <HAL_RCC_GetSysClockFreq+0xf4>)
 80041ea:	633b      	str	r3, [r7, #48]	; 0x30
      break;
 80041ec:	e044      	b.n	8004278 <HAL_RCC_GetSysClockFreq+0xdc>
    }
    case RCC_SYSCLKSOURCE_STATUS_PLLCLK:  /* PLL used as system clock */
    {
      pllmul = aPLLMULFactorTable[(uint32_t)(tmpreg & RCC_CFGR_PLLMUL) >> RCC_CFGR_PLLMUL_BITNUMBER];
 80041ee:	6afb      	ldr	r3, [r7, #44]	; 0x2c
 80041f0:	0c9b      	lsrs	r3, r3, #18
 80041f2:	220f      	movs	r2, #15
 80041f4:	4013      	ands	r3, r2
 80041f6:	2214      	movs	r2, #20
 80041f8:	18ba      	adds	r2, r7, r2
 80041fa:	5cd3      	ldrb	r3, [r2, r3]
 80041fc:	627b      	str	r3, [r7, #36]	; 0x24
      prediv = aPredivFactorTable[(uint32_t)(RCC->CFGR2 & RCC_CFGR2_PREDIV) >> RCC_CFGR2_PREDIV_BITNUMBER];
 80041fe:	4b23      	ldr	r3, [pc, #140]	; (800428c <HAL_RCC_GetSysClockFreq+0xf0>)
 8004200:	6adb      	ldr	r3, [r3, #44]	; 0x2c
 8004202:	220f      	movs	r2, #15
 8004204:	4013      	ands	r3, r2
 8004206:	1d3a      	adds	r2, r7, #4
 8004208:	5cd3      	ldrb	r3, [r2, r3]
 800420a:	62bb      	str	r3, [r7, #40]	; 0x28
      if ((tmpreg & RCC_CFGR_PLLSRC) == RCC_PLLSOURCE_HSE)
 800420c:	6afa      	ldr	r2, [r7, #44]	; 0x2c
 800420e:	23c0      	movs	r3, #192	; 0xc0
 8004210:	025b      	lsls	r3, r3, #9
 8004212:	401a      	ands	r2, r3
 8004214:	2380      	movs	r3, #128	; 0x80
 8004216:	025b      	lsls	r3, r3, #9
 8004218:	429a      	cmp	r2, r3
 800421a:	d109      	bne.n	8004230 <HAL_RCC_GetSysClockFreq+0x94>
      {
        /* HSE used as PLL clock source : PLLCLK = HSE/PREDIV * PLLMUL */
        pllclk = (uint32_t)((uint64_t) HSE_VALUE / (uint64_t) (prediv)) * ((uint64_t) pllmul);
 800421c:	6ab9      	ldr	r1, [r7, #40]	; 0x28
 800421e:	481c      	ldr	r0, [pc, #112]	; (8004290 <HAL_RCC_GetSysClockFreq+0xf4>)
 8004220:	f7fb ff84 	bl	800012c <__udivsi3>
 8004224:	0003      	movs	r3, r0
 8004226:	001a      	movs	r2, r3
 8004228:	6a7b      	ldr	r3, [r7, #36]	; 0x24
 800422a:	4353      	muls	r3, r2
 800422c:	637b      	str	r3, [r7, #52]	; 0x34
 800422e:	e01a      	b.n	8004266 <HAL_RCC_GetSysClockFreq+0xca>
      }
#if defined(RCC_CFGR_PLLSRC_HSI48_PREDIV)
      else if ((tmpreg & RCC_CFGR_PLLSRC) == RCC_PLLSOURCE_HSI48)
 8004230:	6afa      	ldr	r2, [r7, #44]	; 0x2c
 8004232:	23c0      	movs	r3, #192	; 0xc0
 8004234:	025b      	lsls	r3, r3, #9
 8004236:	401a      	ands	r2, r3
 8004238:	23c0      	movs	r3, #192	; 0xc0
 800423a:	025b      	lsls	r3, r3, #9
 800423c:	429a      	cmp	r2, r3
 800423e:	d109      	bne.n	8004254 <HAL_RCC_GetSysClockFreq+0xb8>
      {
        /* HSI48 used as PLL clock source : PLLCLK = HSI48/PREDIV * PLLMUL */
        pllclk = (uint32_t)((uint64_t) HSI48_VALUE / (uint64_t) (prediv)) * ((uint64_t) pllmul);
 8004240:	6ab9      	ldr	r1, [r7, #40]	; 0x28
 8004242:	4814      	ldr	r0, [pc, #80]	; (8004294 <HAL_RCC_GetSysClockFreq+0xf8>)
 8004244:	f7fb ff72 	bl	800012c <__udivsi3>
 8004248:	0003      	movs	r3, r0
 800424a:	001a      	movs	r2, r3
 800424c:	6a7b      	ldr	r3, [r7, #36]	; 0x24
 800424e:	4353      	muls	r3, r2
 8004250:	637b      	str	r3, [r7, #52]	; 0x34
 8004252:	e008      	b.n	8004266 <HAL_RCC_GetSysClockFreq+0xca>
#endif /* RCC_CFGR_PLLSRC_HSI48_PREDIV */
      else
      {
#if  (defined(STM32F042x6) || defined(STM32F048xx) || defined(STM32F070x6) || defined(STM32F071xB) || defined(STM32F072xB) || defined(STM32F078xx) || defined(STM32F070xB) || defined(STM32F091xC) || defined(STM32F098xx) || defined(STM32F030xC))
        /* HSI used as PLL clock source : PLLCLK = HSI/PREDIV * PLLMUL */
        pllclk = (uint32_t)((uint64_t) HSI_VALUE / (uint64_t) (prediv)) * ((uint64_t) pllmul);
 8004254:	6ab9      	ldr	r1, [r7, #40]	; 0x28
 8004256:	480e      	ldr	r0, [pc, #56]	; (8004290 <HAL_RCC_GetSysClockFreq+0xf4>)
 8004258:	f7fb ff68 	bl	800012c <__udivsi3>
 800425c:	0003      	movs	r3, r0
 800425e:	001a      	movs	r2, r3
 8004260:	6a7b      	ldr	r3, [r7, #36]	; 0x24
 8004262:	4353      	muls	r3, r2
 8004264:	637b      	str	r3, [r7, #52]	; 0x34
#else
        /* HSI used as PLL clock source : PLLCLK = HSI/2 * PLLMUL */
        pllclk = (uint32_t)((uint64_t) (HSI_VALUE >> 1U) * ((uint64_t) pllmul));
#endif
      }
      sysclockfreq = pllclk;
 8004266:	6b7b      	ldr	r3, [r7, #52]	; 0x34
 8004268:	633b      	str	r3, [r7, #48]	; 0x30
      break;
 800426a:	e005      	b.n	8004278 <HAL_RCC_GetSysClockFreq+0xdc>
    }
#if defined(RCC_CFGR_SWS_HSI48)
    case RCC_SYSCLKSOURCE_STATUS_HSI48:    /* HSI48 used as system clock source */
    {
      sysclockfreq = HSI48_VALUE;
 800426c:	4b09      	ldr	r3, [pc, #36]	; (8004294 <HAL_RCC_GetSysClockFreq+0xf8>)
 800426e:	633b      	str	r3, [r7, #48]	; 0x30
      break;
 8004270:	e002      	b.n	8004278 <HAL_RCC_GetSysClockFreq+0xdc>
    }
#endif /* RCC_CFGR_SWS_HSI48 */
    case RCC_SYSCLKSOURCE_STATUS_HSI:  /* HSI used as system clock source */
    default: /* HSI used as system clock */
    {
      sysclockfreq = HSI_VALUE;
 8004272:	4b07      	ldr	r3, [pc, #28]	; (8004290 <HAL_RCC_GetSysClockFreq+0xf4>)
 8004274:	633b      	str	r3, [r7, #48]	; 0x30
      break;
 8004276:	46c0      	nop			; (mov r8, r8)
    }
  }
  return sysclockfreq;
 8004278:	6b3b      	ldr	r3, [r7, #48]	; 0x30
}
 800427a:	0018      	movs	r0, r3
 800427c:	46bd      	mov	sp, r7
 800427e:	b00f      	add	sp, #60	; 0x3c
 8004280:	bd90      	pop	{r4, r7, pc}
 8004282:	46c0      	nop			; (mov r8, r8)
 8004284:	080080e0 	.word	0x080080e0
 8004288:	080080f0 	.word	0x080080f0
 800428c:	40021000 	.word	0x40021000
 8004290:	007a1200 	.word	0x007a1200
 8004294:	02dc6c00 	.word	0x02dc6c00

08004298 <HAL_SPI_Init>:
  * @param  hspi pointer to a SPI_HandleTypeDef structure that contains
  *               the configuration information for SPI module.
  * @retval HAL status
  */
HAL_StatusTypeDef HAL_SPI_Init(SPI_HandleTypeDef *hspi)
{
 8004298:	b580      	push	{r7, lr}
 800429a:	b084      	sub	sp, #16
 800429c:	af00      	add	r7, sp, #0
 800429e:	6078      	str	r0, [r7, #4]
  uint32_t frxth;

  /* Check the SPI handle allocation */
  if (hspi == NULL)
 80042a0:	687b      	ldr	r3, [r7, #4]
 80042a2:	2b00      	cmp	r3, #0
 80042a4:	d101      	bne.n	80042aa <HAL_SPI_Init+0x12>
  {
    return HAL_ERROR;
 80042a6:	2301      	movs	r3, #1
 80042a8:	e08a      	b.n	80043c0 <HAL_SPI_Init+0x128>
  {
    assert_param(IS_SPI_CRC_POLYNOMIAL(hspi->Init.CRCPolynomial));
    assert_param(IS_SPI_CRC_LENGTH(hspi->Init.CRCLength));
  }
#else
  hspi->Init.CRCCalculation = SPI_CRCCALCULATION_DISABLE;
 80042aa:	687b      	ldr	r3, [r7, #4]
 80042ac:	2200      	movs	r2, #0
 80042ae:	629a      	str	r2, [r3, #40]	; 0x28
#endif /* USE_SPI_CRC */

  if (hspi->State == HAL_SPI_STATE_RESET)
 80042b0:	687b      	ldr	r3, [r7, #4]
 80042b2:	225d      	movs	r2, #93	; 0x5d
 80042b4:	5c9b      	ldrb	r3, [r3, r2]
 80042b6:	b2db      	uxtb	r3, r3
 80042b8:	2b00      	cmp	r3, #0
 80042ba:	d107      	bne.n	80042cc <HAL_SPI_Init+0x34>
  {
    /* Allocate lock resource and initialize it */
    hspi->Lock = HAL_UNLOCKED;
 80042bc:	687b      	ldr	r3, [r7, #4]
 80042be:	225c      	movs	r2, #92	; 0x5c
 80042c0:	2100      	movs	r1, #0
 80042c2:	5499      	strb	r1, [r3, r2]

    /* Init the low level hardware : GPIO, CLOCK, NVIC... */
    hspi->MspInitCallback(hspi);
#else
    /* Init the low level hardware : GPIO, CLOCK, NVIC... */
    HAL_SPI_MspInit(hspi);
 80042c4:	687b      	ldr	r3, [r7, #4]
 80042c6:	0018      	movs	r0, r3
 80042c8:	f7fe f9f6 	bl	80026b8 <HAL_SPI_MspInit>
#endif /* USE_HAL_SPI_REGISTER_CALLBACKS */
  }

  hspi->State = HAL_SPI_STATE_BUSY;
 80042cc:	687b      	ldr	r3, [r7, #4]
 80042ce:	225d      	movs	r2, #93	; 0x5d
 80042d0:	2102      	movs	r1, #2
 80042d2:	5499      	strb	r1, [r3, r2]

  /* Disable the selected SPI peripheral */
  __HAL_SPI_DISABLE(hspi);
 80042d4:	687b      	ldr	r3, [r7, #4]
 80042d6:	681b      	ldr	r3, [r3, #0]
 80042d8:	681a      	ldr	r2, [r3, #0]
 80042da:	687b      	ldr	r3, [r7, #4]
 80042dc:	681b      	ldr	r3, [r3, #0]
 80042de:	2140      	movs	r1, #64	; 0x40
 80042e0:	438a      	bics	r2, r1
 80042e2:	601a      	str	r2, [r3, #0]

  /* Align by default the rs fifo threshold on the data size */
  if (hspi->Init.DataSize > SPI_DATASIZE_8BIT)
 80042e4:	687b      	ldr	r3, [r7, #4]
 80042e6:	68da      	ldr	r2, [r3, #12]
 80042e8:	23e0      	movs	r3, #224	; 0xe0
 80042ea:	00db      	lsls	r3, r3, #3
 80042ec:	429a      	cmp	r2, r3
 80042ee:	d902      	bls.n	80042f6 <HAL_SPI_Init+0x5e>
  {
    frxth = SPI_RXFIFO_THRESHOLD_HF;
 80042f0:	2300      	movs	r3, #0
 80042f2:	60fb      	str	r3, [r7, #12]
 80042f4:	e002      	b.n	80042fc <HAL_SPI_Init+0x64>
  }
  else
  {
    frxth = SPI_RXFIFO_THRESHOLD_QF;
 80042f6:	2380      	movs	r3, #128	; 0x80
 80042f8:	015b      	lsls	r3, r3, #5
 80042fa:	60fb      	str	r3, [r7, #12]
  }

  /* CRC calculation is valid only for 16Bit and 8 Bit */
  if ((hspi->Init.DataSize != SPI_DATASIZE_16BIT) && (hspi->Init.DataSize != SPI_DATASIZE_8BIT))
 80042fc:	687b      	ldr	r3, [r7, #4]
 80042fe:	68da      	ldr	r2, [r3, #12]
 8004300:	23f0      	movs	r3, #240	; 0xf0
 8004302:	011b      	lsls	r3, r3, #4
 8004304:	429a      	cmp	r2, r3
 8004306:	d008      	beq.n	800431a <HAL_SPI_Init+0x82>
 8004308:	687b      	ldr	r3, [r7, #4]
 800430a:	68da      	ldr	r2, [r3, #12]
 800430c:	23e0      	movs	r3, #224	; 0xe0
 800430e:	00db      	lsls	r3, r3, #3
 8004310:	429a      	cmp	r2, r3
 8004312:	d002      	beq.n	800431a <HAL_SPI_Init+0x82>
  {
    /* CRC must be disabled */
    hspi->Init.CRCCalculation = SPI_CRCCALCULATION_DISABLE;
 8004314:	687b      	ldr	r3, [r7, #4]
 8004316:	2200      	movs	r2, #0
 8004318:	629a      	str	r2, [r3, #40]	; 0x28
  }

  /* Align the CRC Length on the data size */
  if (hspi->Init.CRCLength == SPI_CRC_LENGTH_DATASIZE)
 800431a:	687b      	ldr	r3, [r7, #4]
 800431c:	6b1b      	ldr	r3, [r3, #48]	; 0x30
 800431e:	2b00      	cmp	r3, #0
 8004320:	d10c      	bne.n	800433c <HAL_SPI_Init+0xa4>
  {
    /* CRC Length aligned on the data size : value set by default */
    if (hspi->Init.DataSize > SPI_DATASIZE_8BIT)
 8004322:	687b      	ldr	r3, [r7, #4]
 8004324:	68da      	ldr	r2, [r3, #12]
 8004326:	23e0      	movs	r3, #224	; 0xe0
 8004328:	00db      	lsls	r3, r3, #3
 800432a:	429a      	cmp	r2, r3
 800432c:	d903      	bls.n	8004336 <HAL_SPI_Init+0x9e>
    {
      hspi->Init.CRCLength = SPI_CRC_LENGTH_16BIT;
 800432e:	687b      	ldr	r3, [r7, #4]
 8004330:	2202      	movs	r2, #2
 8004332:	631a      	str	r2, [r3, #48]	; 0x30
 8004334:	e002      	b.n	800433c <HAL_SPI_Init+0xa4>
    }
    else
    {
      hspi->Init.CRCLength = SPI_CRC_LENGTH_8BIT;
 8004336:	687b      	ldr	r3, [r7, #4]
 8004338:	2201      	movs	r2, #1
 800433a:	631a      	str	r2, [r3, #48]	; 0x30
  }

  /*----------------------- SPIx CR1 & CR2 Configuration ---------------------*/
  /* Configure : SPI Mode, Communication Mode, Clock polarity and phase, NSS management,
  Communication speed, First bit and CRC calculation state */
  WRITE_REG(hspi->Instance->CR1, (hspi->Init.Mode | hspi->Init.Direction |
 800433c:	687b      	ldr	r3, [r7, #4]
 800433e:	685a      	ldr	r2, [r3, #4]
 8004340:	687b      	ldr	r3, [r7, #4]
 8004342:	689b      	ldr	r3, [r3, #8]
 8004344:	431a      	orrs	r2, r3
 8004346:	687b      	ldr	r3, [r7, #4]
 8004348:	691b      	ldr	r3, [r3, #16]
 800434a:	431a      	orrs	r2, r3
 800434c:	687b      	ldr	r3, [r7, #4]
 800434e:	695b      	ldr	r3, [r3, #20]
 8004350:	431a      	orrs	r2, r3
 8004352:	687b      	ldr	r3, [r7, #4]
 8004354:	6999      	ldr	r1, [r3, #24]
 8004356:	2380      	movs	r3, #128	; 0x80
 8004358:	009b      	lsls	r3, r3, #2
 800435a:	400b      	ands	r3, r1
 800435c:	431a      	orrs	r2, r3
 800435e:	687b      	ldr	r3, [r7, #4]
 8004360:	69db      	ldr	r3, [r3, #28]
 8004362:	431a      	orrs	r2, r3
 8004364:	687b      	ldr	r3, [r7, #4]
 8004366:	6a1b      	ldr	r3, [r3, #32]
 8004368:	431a      	orrs	r2, r3
 800436a:	0011      	movs	r1, r2
 800436c:	687b      	ldr	r3, [r7, #4]
 800436e:	6a9a      	ldr	r2, [r3, #40]	; 0x28
 8004370:	687b      	ldr	r3, [r7, #4]
 8004372:	681b      	ldr	r3, [r3, #0]
 8004374:	430a      	orrs	r2, r1
 8004376:	601a      	str	r2, [r3, #0]
    hspi->Instance->CR1 |= SPI_CR1_CRCL;
  }
#endif /* USE_SPI_CRC */

  /* Configure : NSS management, TI Mode, NSS Pulse, Data size and Rx Fifo threshold */
  WRITE_REG(hspi->Instance->CR2, (((hspi->Init.NSS >> 16U) & SPI_CR2_SSOE) | hspi->Init.TIMode |
 8004378:	687b      	ldr	r3, [r7, #4]
 800437a:	699b      	ldr	r3, [r3, #24]
 800437c:	0c1b      	lsrs	r3, r3, #16
 800437e:	2204      	movs	r2, #4
 8004380:	401a      	ands	r2, r3
 8004382:	687b      	ldr	r3, [r7, #4]
 8004384:	6a5b      	ldr	r3, [r3, #36]	; 0x24
 8004386:	431a      	orrs	r2, r3
 8004388:	687b      	ldr	r3, [r7, #4]
 800438a:	6b5b      	ldr	r3, [r3, #52]	; 0x34
 800438c:	431a      	orrs	r2, r3
 800438e:	687b      	ldr	r3, [r7, #4]
 8004390:	68db      	ldr	r3, [r3, #12]
 8004392:	431a      	orrs	r2, r3
 8004394:	0011      	movs	r1, r2
 8004396:	687b      	ldr	r3, [r7, #4]
 8004398:	681b      	ldr	r3, [r3, #0]
 800439a:	68fa      	ldr	r2, [r7, #12]
 800439c:	430a      	orrs	r2, r1
 800439e:	605a      	str	r2, [r3, #4]
  }
#endif /* USE_SPI_CRC */

#if defined(SPI_I2SCFGR_I2SMOD)
  /* Activate the SPI mode (Make sure that I2SMOD bit in I2SCFGR register is reset) */
  CLEAR_BIT(hspi->Instance->I2SCFGR, SPI_I2SCFGR_I2SMOD);
 80043a0:	687b      	ldr	r3, [r7, #4]
 80043a2:	681b      	ldr	r3, [r3, #0]
 80043a4:	69da      	ldr	r2, [r3, #28]
 80043a6:	687b      	ldr	r3, [r7, #4]
 80043a8:	681b      	ldr	r3, [r3, #0]
 80043aa:	4907      	ldr	r1, [pc, #28]	; (80043c8 <HAL_SPI_Init+0x130>)
 80043ac:	400a      	ands	r2, r1
 80043ae:	61da      	str	r2, [r3, #28]
#endif /* SPI_I2SCFGR_I2SMOD */

  hspi->ErrorCode = HAL_SPI_ERROR_NONE;
 80043b0:	687b      	ldr	r3, [r7, #4]
 80043b2:	2200      	movs	r2, #0
 80043b4:	661a      	str	r2, [r3, #96]	; 0x60
  hspi->State     = HAL_SPI_STATE_READY;
 80043b6:	687b      	ldr	r3, [r7, #4]
 80043b8:	225d      	movs	r2, #93	; 0x5d
 80043ba:	2101      	movs	r1, #1
 80043bc:	5499      	strb	r1, [r3, r2]

  return HAL_OK;
 80043be:	2300      	movs	r3, #0
}
 80043c0:	0018      	movs	r0, r3
 80043c2:	46bd      	mov	sp, r7
 80043c4:	b004      	add	sp, #16
 80043c6:	bd80      	pop	{r7, pc}
 80043c8:	fffff7ff 	.word	0xfffff7ff

080043cc <HAL_TIM_Base_Init>:
  *         Ex: call @ref HAL_TIM_Base_DeInit() before HAL_TIM_Base_Init()
  * @param  htim TIM Base handle
  * @retval HAL status
  */
HAL_StatusTypeDef HAL_TIM_Base_Init(TIM_HandleTypeDef *htim)
{
 80043cc:	b580      	push	{r7, lr}
 80043ce:	b082      	sub	sp, #8
 80043d0:	af00      	add	r7, sp, #0
 80043d2:	6078      	str	r0, [r7, #4]
  /* Check the TIM handle allocation */
  if (htim == NULL)
 80043d4:	687b      	ldr	r3, [r7, #4]
 80043d6:	2b00      	cmp	r3, #0
 80043d8:	d101      	bne.n	80043de <HAL_TIM_Base_Init+0x12>
  {
    return HAL_ERROR;
 80043da:	2301      	movs	r3, #1
 80043dc:	e01e      	b.n	800441c <HAL_TIM_Base_Init+0x50>
  assert_param(IS_TIM_INSTANCE(htim->Instance));
  assert_param(IS_TIM_COUNTER_MODE(htim->Init.CounterMode));
  assert_param(IS_TIM_CLOCKDIVISION_DIV(htim->Init.ClockDivision));
  assert_param(IS_TIM_AUTORELOAD_PRELOAD(htim->Init.AutoReloadPreload));

  if (htim->State == HAL_TIM_STATE_RESET)
 80043de:	687b      	ldr	r3, [r7, #4]
 80043e0:	223d      	movs	r2, #61	; 0x3d
 80043e2:	5c9b      	ldrb	r3, [r3, r2]
 80043e4:	b2db      	uxtb	r3, r3
 80043e6:	2b00      	cmp	r3, #0
 80043e8:	d107      	bne.n	80043fa <HAL_TIM_Base_Init+0x2e>
  {
    /* Allocate lock resource and initialize it */
    htim->Lock = HAL_UNLOCKED;
 80043ea:	687b      	ldr	r3, [r7, #4]
 80043ec:	223c      	movs	r2, #60	; 0x3c
 80043ee:	2100      	movs	r1, #0
 80043f0:	5499      	strb	r1, [r3, r2]
    }
    /* Init the low level hardware : GPIO, CLOCK, NVIC */
    htim->Base_MspInitCallback(htim);
#else
    /* Init the low level hardware : GPIO, CLOCK, NVIC */
    HAL_TIM_Base_MspInit(htim);
 80043f2:	687b      	ldr	r3, [r7, #4]
 80043f4:	0018      	movs	r0, r3
 80043f6:	f7fe fa6d 	bl	80028d4 <HAL_TIM_Base_MspInit>
#endif /* USE_HAL_TIM_REGISTER_CALLBACKS */
  }

  /* Set the TIM state */
  htim->State = HAL_TIM_STATE_BUSY;
 80043fa:	687b      	ldr	r3, [r7, #4]
 80043fc:	223d      	movs	r2, #61	; 0x3d
 80043fe:	2102      	movs	r1, #2
 8004400:	5499      	strb	r1, [r3, r2]

  /* Set the Time Base configuration */
  TIM_Base_SetConfig(htim->Instance, &htim->Init);
 8004402:	687b      	ldr	r3, [r7, #4]
 8004404:	681a      	ldr	r2, [r3, #0]
 8004406:	687b      	ldr	r3, [r7, #4]
 8004408:	3304      	adds	r3, #4
 800440a:	0019      	movs	r1, r3
 800440c:	0010      	movs	r0, r2
 800440e:	f000 f947 	bl	80046a0 <TIM_Base_SetConfig>

  /* Initialize the TIM state*/
  htim->State = HAL_TIM_STATE_READY;
 8004412:	687b      	ldr	r3, [r7, #4]
 8004414:	223d      	movs	r2, #61	; 0x3d
 8004416:	2101      	movs	r1, #1
 8004418:	5499      	strb	r1, [r3, r2]

  return HAL_OK;
 800441a:	2300      	movs	r3, #0
}
 800441c:	0018      	movs	r0, r3
 800441e:	46bd      	mov	sp, r7
 8004420:	b002      	add	sp, #8
 8004422:	bd80      	pop	{r7, pc}

08004424 <HAL_TIM_IRQHandler>:
  * @brief  This function handles TIM interrupts requests.
  * @param  htim TIM  handle
  * @retval None
  */
void HAL_TIM_IRQHandler(TIM_HandleTypeDef *htim)
{
 8004424:	b580      	push	{r7, lr}
 8004426:	b082      	sub	sp, #8
 8004428:	af00      	add	r7, sp, #0
 800442a:	6078      	str	r0, [r7, #4]
  /* Capture compare 1 event */
  if (__HAL_TIM_GET_FLAG(htim, TIM_FLAG_CC1) != RESET)
 800442c:	687b      	ldr	r3, [r7, #4]
 800442e:	681b      	ldr	r3, [r3, #0]
 8004430:	691b      	ldr	r3, [r3, #16]
 8004432:	2202      	movs	r2, #2
 8004434:	4013      	ands	r3, r2
 8004436:	2b02      	cmp	r3, #2
 8004438:	d124      	bne.n	8004484 <HAL_TIM_IRQHandler+0x60>
  {
    if (__HAL_TIM_GET_IT_SOURCE(htim, TIM_IT_CC1) != RESET)
 800443a:	687b      	ldr	r3, [r7, #4]
 800443c:	681b      	ldr	r3, [r3, #0]
 800443e:	68db      	ldr	r3, [r3, #12]
 8004440:	2202      	movs	r2, #2
 8004442:	4013      	ands	r3, r2
 8004444:	2b02      	cmp	r3, #2
 8004446:	d11d      	bne.n	8004484 <HAL_TIM_IRQHandler+0x60>
    {
      {
        __HAL_TIM_CLEAR_IT(htim, TIM_IT_CC1);
 8004448:	687b      	ldr	r3, [r7, #4]
 800444a:	681b      	ldr	r3, [r3, #0]
 800444c:	2203      	movs	r2, #3
 800444e:	4252      	negs	r2, r2
 8004450:	611a      	str	r2, [r3, #16]
        htim->Channel = HAL_TIM_ACTIVE_CHANNEL_1;
 8004452:	687b      	ldr	r3, [r7, #4]
 8004454:	2201      	movs	r2, #1
 8004456:	771a      	strb	r2, [r3, #28]

        /* Input capture event */
        if ((htim->Instance->CCMR1 & TIM_CCMR1_CC1S) != 0x00U)
 8004458:	687b      	ldr	r3, [r7, #4]
 800445a:	681b      	ldr	r3, [r3, #0]
 800445c:	699b      	ldr	r3, [r3, #24]
 800445e:	2203      	movs	r2, #3
 8004460:	4013      	ands	r3, r2
 8004462:	d004      	beq.n	800446e <HAL_TIM_IRQHandler+0x4a>
        {
#if (USE_HAL_TIM_REGISTER_CALLBACKS == 1)
          htim->IC_CaptureCallback(htim);
#else
          HAL_TIM_IC_CaptureCallback(htim);
 8004464:	687b      	ldr	r3, [r7, #4]
 8004466:	0018      	movs	r0, r3
 8004468:	f000 f902 	bl	8004670 <HAL_TIM_IC_CaptureCallback>
 800446c:	e007      	b.n	800447e <HAL_TIM_IRQHandler+0x5a>
        {
#if (USE_HAL_TIM_REGISTER_CALLBACKS == 1)
          htim->OC_DelayElapsedCallback(htim);
          htim->PWM_PulseFinishedCallback(htim);
#else
          HAL_TIM_OC_DelayElapsedCallback(htim);
 800446e:	687b      	ldr	r3, [r7, #4]
 8004470:	0018      	movs	r0, r3
 8004472:	f000 f8f5 	bl	8004660 <HAL_TIM_OC_DelayElapsedCallback>
          HAL_TIM_PWM_PulseFinishedCallback(htim);
 8004476:	687b      	ldr	r3, [r7, #4]
 8004478:	0018      	movs	r0, r3
 800447a:	f000 f901 	bl	8004680 <HAL_TIM_PWM_PulseFinishedCallback>
#endif /* USE_HAL_TIM_REGISTER_CALLBACKS */
        }
        htim->Channel = HAL_TIM_ACTIVE_CHANNEL_CLEARED;
 800447e:	687b      	ldr	r3, [r7, #4]
 8004480:	2200      	movs	r2, #0
 8004482:	771a      	strb	r2, [r3, #28]
      }
    }
  }
  /* Capture compare 2 event */
  if (__HAL_TIM_GET_FLAG(htim, TIM_FLAG_CC2) != RESET)
 8004484:	687b      	ldr	r3, [r7, #4]
 8004486:	681b      	ldr	r3, [r3, #0]
 8004488:	691b      	ldr	r3, [r3, #16]
 800448a:	2204      	movs	r2, #4
 800448c:	4013      	ands	r3, r2
 800448e:	2b04      	cmp	r3, #4
 8004490:	d125      	bne.n	80044de <HAL_TIM_IRQHandler+0xba>
  {
    if (__HAL_TIM_GET_IT_SOURCE(htim, TIM_IT_CC2) != RESET)
 8004492:	687b      	ldr	r3, [r7, #4]
 8004494:	681b      	ldr	r3, [r3, #0]
 8004496:	68db      	ldr	r3, [r3, #12]
 8004498:	2204      	movs	r2, #4
 800449a:	4013      	ands	r3, r2
 800449c:	2b04      	cmp	r3, #4
 800449e:	d11e      	bne.n	80044de <HAL_TIM_IRQHandler+0xba>
    {
      __HAL_TIM_CLEAR_IT(htim, TIM_IT_CC2);
 80044a0:	687b      	ldr	r3, [r7, #4]
 80044a2:	681b      	ldr	r3, [r3, #0]
 80044a4:	2205      	movs	r2, #5
 80044a6:	4252      	negs	r2, r2
 80044a8:	611a      	str	r2, [r3, #16]
      htim->Channel = HAL_TIM_ACTIVE_CHANNEL_2;
 80044aa:	687b      	ldr	r3, [r7, #4]
 80044ac:	2202      	movs	r2, #2
 80044ae:	771a      	strb	r2, [r3, #28]
      /* Input capture event */
      if ((htim->Instance->CCMR1 & TIM_CCMR1_CC2S) != 0x00U)
 80044b0:	687b      	ldr	r3, [r7, #4]
 80044b2:	681b      	ldr	r3, [r3, #0]
 80044b4:	699a      	ldr	r2, [r3, #24]
 80044b6:	23c0      	movs	r3, #192	; 0xc0
 80044b8:	009b      	lsls	r3, r3, #2
 80044ba:	4013      	ands	r3, r2
 80044bc:	d004      	beq.n	80044c8 <HAL_TIM_IRQHandler+0xa4>
      {
#if (USE_HAL_TIM_REGISTER_CALLBACKS == 1)
        htim->IC_CaptureCallback(htim);
#else
        HAL_TIM_IC_CaptureCallback(htim);
 80044be:	687b      	ldr	r3, [r7, #4]
 80044c0:	0018      	movs	r0, r3
 80044c2:	f000 f8d5 	bl	8004670 <HAL_TIM_IC_CaptureCallback>
 80044c6:	e007      	b.n	80044d8 <HAL_TIM_IRQHandler+0xb4>
      {
#if (USE_HAL_TIM_REGISTER_CALLBACKS == 1)
        htim->OC_DelayElapsedCallback(htim);
        htim->PWM_PulseFinishedCallback(htim);
#else
        HAL_TIM_OC_DelayElapsedCallback(htim);
 80044c8:	687b      	ldr	r3, [r7, #4]
 80044ca:	0018      	movs	r0, r3
 80044cc:	f000 f8c8 	bl	8004660 <HAL_TIM_OC_DelayElapsedCallback>
        HAL_TIM_PWM_PulseFinishedCallback(htim);
 80044d0:	687b      	ldr	r3, [r7, #4]
 80044d2:	0018      	movs	r0, r3
 80044d4:	f000 f8d4 	bl	8004680 <HAL_TIM_PWM_PulseFinishedCallback>
#endif /* USE_HAL_TIM_REGISTER_CALLBACKS */
      }
      htim->Channel = HAL_TIM_ACTIVE_CHANNEL_CLEARED;
 80044d8:	687b      	ldr	r3, [r7, #4]
 80044da:	2200      	movs	r2, #0
 80044dc:	771a      	strb	r2, [r3, #28]
    }
  }
  /* Capture compare 3 event */
  if (__HAL_TIM_GET_FLAG(htim, TIM_FLAG_CC3) != RESET)
 80044de:	687b      	ldr	r3, [r7, #4]
 80044e0:	681b      	ldr	r3, [r3, #0]
 80044e2:	691b      	ldr	r3, [r3, #16]
 80044e4:	2208      	movs	r2, #8
 80044e6:	4013      	ands	r3, r2
 80044e8:	2b08      	cmp	r3, #8
 80044ea:	d124      	bne.n	8004536 <HAL_TIM_IRQHandler+0x112>
  {
    if (__HAL_TIM_GET_IT_SOURCE(htim, TIM_IT_CC3) != RESET)
 80044ec:	687b      	ldr	r3, [r7, #4]
 80044ee:	681b      	ldr	r3, [r3, #0]
 80044f0:	68db      	ldr	r3, [r3, #12]
 80044f2:	2208      	movs	r2, #8
 80044f4:	4013      	ands	r3, r2
 80044f6:	2b08      	cmp	r3, #8
 80044f8:	d11d      	bne.n	8004536 <HAL_TIM_IRQHandler+0x112>
    {
      __HAL_TIM_CLEAR_IT(htim, TIM_IT_CC3);
 80044fa:	687b      	ldr	r3, [r7, #4]
 80044fc:	681b      	ldr	r3, [r3, #0]
 80044fe:	2209      	movs	r2, #9
 8004500:	4252      	negs	r2, r2
 8004502:	611a      	str	r2, [r3, #16]
      htim->Channel = HAL_TIM_ACTIVE_CHANNEL_3;
 8004504:	687b      	ldr	r3, [r7, #4]
 8004506:	2204      	movs	r2, #4
 8004508:	771a      	strb	r2, [r3, #28]
      /* Input capture event */
      if ((htim->Instance->CCMR2 & TIM_CCMR2_CC3S) != 0x00U)
 800450a:	687b      	ldr	r3, [r7, #4]
 800450c:	681b      	ldr	r3, [r3, #0]
 800450e:	69db      	ldr	r3, [r3, #28]
 8004510:	2203      	movs	r2, #3
 8004512:	4013      	ands	r3, r2
 8004514:	d004      	beq.n	8004520 <HAL_TIM_IRQHandler+0xfc>
      {
#if (USE_HAL_TIM_REGISTER_CALLBACKS == 1)
        htim->IC_CaptureCallback(htim);
#else
        HAL_TIM_IC_CaptureCallback(htim);
 8004516:	687b      	ldr	r3, [r7, #4]
 8004518:	0018      	movs	r0, r3
 800451a:	f000 f8a9 	bl	8004670 <HAL_TIM_IC_CaptureCallback>
 800451e:	e007      	b.n	8004530 <HAL_TIM_IRQHandler+0x10c>
      {
#if (USE_HAL_TIM_REGISTER_CALLBACKS == 1)
        htim->OC_DelayElapsedCallback(htim);
        htim->PWM_PulseFinishedCallback(htim);
#else
        HAL_TIM_OC_DelayElapsedCallback(htim);
 8004520:	687b      	ldr	r3, [r7, #4]
 8004522:	0018      	movs	r0, r3
 8004524:	f000 f89c 	bl	8004660 <HAL_TIM_OC_DelayElapsedCallback>
        HAL_TIM_PWM_PulseFinishedCallback(htim);
 8004528:	687b      	ldr	r3, [r7, #4]
 800452a:	0018      	movs	r0, r3
 800452c:	f000 f8a8 	bl	8004680 <HAL_TIM_PWM_PulseFinishedCallback>
#endif /* USE_HAL_TIM_REGISTER_CALLBACKS */
      }
      htim->Channel = HAL_TIM_ACTIVE_CHANNEL_CLEARED;
 8004530:	687b      	ldr	r3, [r7, #4]
 8004532:	2200      	movs	r2, #0
 8004534:	771a      	strb	r2, [r3, #28]
    }
  }
  /* Capture compare 4 event */
  if (__HAL_TIM_GET_FLAG(htim, TIM_FLAG_CC4) != RESET)
 8004536:	687b      	ldr	r3, [r7, #4]
 8004538:	681b      	ldr	r3, [r3, #0]
 800453a:	691b      	ldr	r3, [r3, #16]
 800453c:	2210      	movs	r2, #16
 800453e:	4013      	ands	r3, r2
 8004540:	2b10      	cmp	r3, #16
 8004542:	d125      	bne.n	8004590 <HAL_TIM_IRQHandler+0x16c>
  {
    if (__HAL_TIM_GET_IT_SOURCE(htim, TIM_IT_CC4) != RESET)
 8004544:	687b      	ldr	r3, [r7, #4]
 8004546:	681b      	ldr	r3, [r3, #0]
 8004548:	68db      	ldr	r3, [r3, #12]
 800454a:	2210      	movs	r2, #16
 800454c:	4013      	ands	r3, r2
 800454e:	2b10      	cmp	r3, #16
 8004550:	d11e      	bne.n	8004590 <HAL_TIM_IRQHandler+0x16c>
    {
      __HAL_TIM_CLEAR_IT(htim, TIM_IT_CC4);
 8004552:	687b      	ldr	r3, [r7, #4]
 8004554:	681b      	ldr	r3, [r3, #0]
 8004556:	2211      	movs	r2, #17
 8004558:	4252      	negs	r2, r2
 800455a:	611a      	str	r2, [r3, #16]
      htim->Channel = HAL_TIM_ACTIVE_CHANNEL_4;
 800455c:	687b      	ldr	r3, [r7, #4]
 800455e:	2208      	movs	r2, #8
 8004560:	771a      	strb	r2, [r3, #28]
      /* Input capture event */
      if ((htim->Instance->CCMR2 & TIM_CCMR2_CC4S) != 0x00U)
 8004562:	687b      	ldr	r3, [r7, #4]
 8004564:	681b      	ldr	r3, [r3, #0]
 8004566:	69da      	ldr	r2, [r3, #28]
 8004568:	23c0      	movs	r3, #192	; 0xc0
 800456a:	009b      	lsls	r3, r3, #2
 800456c:	4013      	ands	r3, r2
 800456e:	d004      	beq.n	800457a <HAL_TIM_IRQHandler+0x156>
      {
#if (USE_HAL_TIM_REGISTER_CALLBACKS == 1)
        htim->IC_CaptureCallback(htim);
#else
        HAL_TIM_IC_CaptureCallback(htim);
 8004570:	687b      	ldr	r3, [r7, #4]
 8004572:	0018      	movs	r0, r3
 8004574:	f000 f87c 	bl	8004670 <HAL_TIM_IC_CaptureCallback>
 8004578:	e007      	b.n	800458a <HAL_TIM_IRQHandler+0x166>
      {
#if (USE_HAL_TIM_REGISTER_CALLBACKS == 1)
        htim->OC_DelayElapsedCallback(htim);
        htim->PWM_PulseFinishedCallback(htim);
#else
        HAL_TIM_OC_DelayElapsedCallback(htim);
 800457a:	687b      	ldr	r3, [r7, #4]
 800457c:	0018      	movs	r0, r3
 800457e:	f000 f86f 	bl	8004660 <HAL_TIM_OC_DelayElapsedCallback>
        HAL_TIM_PWM_PulseFinishedCallback(htim);
 8004582:	687b      	ldr	r3, [r7, #4]
 8004584:	0018      	movs	r0, r3
 8004586:	f000 f87b 	bl	8004680 <HAL_TIM_PWM_PulseFinishedCallback>
#endif /* USE_HAL_TIM_REGISTER_CALLBACKS */
      }
      htim->Channel = HAL_TIM_ACTIVE_CHANNEL_CLEARED;
 800458a:	687b      	ldr	r3, [r7, #4]
 800458c:	2200      	movs	r2, #0
 800458e:	771a      	strb	r2, [r3, #28]
    }
  }
  /* TIM Update event */
  if (__HAL_TIM_GET_FLAG(htim, TIM_FLAG_UPDATE) != RESET)
 8004590:	687b      	ldr	r3, [r7, #4]
 8004592:	681b      	ldr	r3, [r3, #0]
 8004594:	691b      	ldr	r3, [r3, #16]
 8004596:	2201      	movs	r2, #1
 8004598:	4013      	ands	r3, r2
 800459a:	2b01      	cmp	r3, #1
 800459c:	d10f      	bne.n	80045be <HAL_TIM_IRQHandler+0x19a>
  {
    if (__HAL_TIM_GET_IT_SOURCE(htim, TIM_IT_UPDATE) != RESET)
 800459e:	687b      	ldr	r3, [r7, #4]
 80045a0:	681b      	ldr	r3, [r3, #0]
 80045a2:	68db      	ldr	r3, [r3, #12]
 80045a4:	2201      	movs	r2, #1
 80045a6:	4013      	ands	r3, r2
 80045a8:	2b01      	cmp	r3, #1
 80045aa:	d108      	bne.n	80045be <HAL_TIM_IRQHandler+0x19a>
    {
      __HAL_TIM_CLEAR_IT(htim, TIM_IT_UPDATE);
 80045ac:	687b      	ldr	r3, [r7, #4]
 80045ae:	681b      	ldr	r3, [r3, #0]
 80045b0:	2202      	movs	r2, #2
 80045b2:	4252      	negs	r2, r2
 80045b4:	611a      	str	r2, [r3, #16]
#if (USE_HAL_TIM_REGISTER_CALLBACKS == 1)
      htim->PeriodElapsedCallback(htim);
#else
      HAL_TIM_PeriodElapsedCallback(htim);
 80045b6:	687b      	ldr	r3, [r7, #4]
 80045b8:	0018      	movs	r0, r3
 80045ba:	f000 f849 	bl	8004650 <HAL_TIM_PeriodElapsedCallback>
#endif /* USE_HAL_TIM_REGISTER_CALLBACKS */
    }
  }
  /* TIM Break input event */
  if (__HAL_TIM_GET_FLAG(htim, TIM_FLAG_BREAK) != RESET)
 80045be:	687b      	ldr	r3, [r7, #4]
 80045c0:	681b      	ldr	r3, [r3, #0]
 80045c2:	691b      	ldr	r3, [r3, #16]
 80045c4:	2280      	movs	r2, #128	; 0x80
 80045c6:	4013      	ands	r3, r2
 80045c8:	2b80      	cmp	r3, #128	; 0x80
 80045ca:	d10f      	bne.n	80045ec <HAL_TIM_IRQHandler+0x1c8>
  {
    if (__HAL_TIM_GET_IT_SOURCE(htim, TIM_IT_BREAK) != RESET)
 80045cc:	687b      	ldr	r3, [r7, #4]
 80045ce:	681b      	ldr	r3, [r3, #0]
 80045d0:	68db      	ldr	r3, [r3, #12]
 80045d2:	2280      	movs	r2, #128	; 0x80
 80045d4:	4013      	ands	r3, r2
 80045d6:	2b80      	cmp	r3, #128	; 0x80
 80045d8:	d108      	bne.n	80045ec <HAL_TIM_IRQHandler+0x1c8>
    {
      __HAL_TIM_CLEAR_IT(htim, TIM_IT_BREAK);
 80045da:	687b      	ldr	r3, [r7, #4]
 80045dc:	681b      	ldr	r3, [r3, #0]
 80045de:	2281      	movs	r2, #129	; 0x81
 80045e0:	4252      	negs	r2, r2
 80045e2:	611a      	str	r2, [r3, #16]
#if (USE_HAL_TIM_REGISTER_CALLBACKS == 1)
      htim->BreakCallback(htim);
#else
      HAL_TIMEx_BreakCallback(htim);
 80045e4:	687b      	ldr	r3, [r7, #4]
 80045e6:	0018      	movs	r0, r3
 80045e8:	f000 f8e2 	bl	80047b0 <HAL_TIMEx_BreakCallback>
#endif /* USE_HAL_TIM_REGISTER_CALLBACKS */
    }
  }
  /* TIM Trigger detection event */
  if (__HAL_TIM_GET_FLAG(htim, TIM_FLAG_TRIGGER) != RESET)
 80045ec:	687b      	ldr	r3, [r7, #4]
 80045ee:	681b      	ldr	r3, [r3, #0]
 80045f0:	691b      	ldr	r3, [r3, #16]
 80045f2:	2240      	movs	r2, #64	; 0x40
 80045f4:	4013      	ands	r3, r2
 80045f6:	2b40      	cmp	r3, #64	; 0x40
 80045f8:	d10f      	bne.n	800461a <HAL_TIM_IRQHandler+0x1f6>
  {
    if (__HAL_TIM_GET_IT_SOURCE(htim, TIM_IT_TRIGGER) != RESET)
 80045fa:	687b      	ldr	r3, [r7, #4]
 80045fc:	681b      	ldr	r3, [r3, #0]
 80045fe:	68db      	ldr	r3, [r3, #12]
 8004600:	2240      	movs	r2, #64	; 0x40
 8004602:	4013      	ands	r3, r2
 8004604:	2b40      	cmp	r3, #64	; 0x40
 8004606:	d108      	bne.n	800461a <HAL_TIM_IRQHandler+0x1f6>
    {
      __HAL_TIM_CLEAR_IT(htim, TIM_IT_TRIGGER);
 8004608:	687b      	ldr	r3, [r7, #4]
 800460a:	681b      	ldr	r3, [r3, #0]
 800460c:	2241      	movs	r2, #65	; 0x41
 800460e:	4252      	negs	r2, r2
 8004610:	611a      	str	r2, [r3, #16]
#if (USE_HAL_TIM_REGISTER_CALLBACKS == 1)
      htim->TriggerCallback(htim);
#else
      HAL_TIM_TriggerCallback(htim);
 8004612:	687b      	ldr	r3, [r7, #4]
 8004614:	0018      	movs	r0, r3
 8004616:	f000 f83b 	bl	8004690 <HAL_TIM_TriggerCallback>
#endif /* USE_HAL_TIM_REGISTER_CALLBACKS */
    }
  }
  /* TIM commutation event */
  if (__HAL_TIM_GET_FLAG(htim, TIM_FLAG_COM) != RESET)
 800461a:	687b      	ldr	r3, [r7, #4]
 800461c:	681b      	ldr	r3, [r3, #0]
 800461e:	691b      	ldr	r3, [r3, #16]
 8004620:	2220      	movs	r2, #32
 8004622:	4013      	ands	r3, r2
 8004624:	2b20      	cmp	r3, #32
 8004626:	d10f      	bne.n	8004648 <HAL_TIM_IRQHandler+0x224>
  {
    if (__HAL_TIM_GET_IT_SOURCE(htim, TIM_IT_COM) != RESET)
 8004628:	687b      	ldr	r3, [r7, #4]
 800462a:	681b      	ldr	r3, [r3, #0]
 800462c:	68db      	ldr	r3, [r3, #12]
 800462e:	2220      	movs	r2, #32
 8004630:	4013      	ands	r3, r2
 8004632:	2b20      	cmp	r3, #32
 8004634:	d108      	bne.n	8004648 <HAL_TIM_IRQHandler+0x224>
    {
      __HAL_TIM_CLEAR_IT(htim, TIM_FLAG_COM);
 8004636:	687b      	ldr	r3, [r7, #4]
 8004638:	681b      	ldr	r3, [r3, #0]
 800463a:	2221      	movs	r2, #33	; 0x21
 800463c:	4252      	negs	r2, r2
 800463e:	611a      	str	r2, [r3, #16]
#if (USE_HAL_TIM_REGISTER_CALLBACKS == 1)
      htim->CommutationCallback(htim);
#else
      HAL_TIMEx_CommutCallback(htim);
 8004640:	687b      	ldr	r3, [r7, #4]
 8004642:	0018      	movs	r0, r3
 8004644:	f000 f8ac 	bl	80047a0 <HAL_TIMEx_CommutCallback>
#endif /* USE_HAL_TIM_REGISTER_CALLBACKS */
    }
  }
}
 8004648:	46c0      	nop			; (mov r8, r8)
 800464a:	46bd      	mov	sp, r7
 800464c:	b002      	add	sp, #8
 800464e:	bd80      	pop	{r7, pc}

08004650 <HAL_TIM_PeriodElapsedCallback>:
  * @brief  Period elapsed callback in non-blocking mode
  * @param  htim TIM handle
  * @retval None
  */
__weak void HAL_TIM_PeriodElapsedCallback(TIM_HandleTypeDef *htim)
{
 8004650:	b580      	push	{r7, lr}
 8004652:	b082      	sub	sp, #8
 8004654:	af00      	add	r7, sp, #0
 8004656:	6078      	str	r0, [r7, #4]
  UNUSED(htim);

  /* NOTE : This function should not be modified, when the callback is needed,
            the HAL_TIM_PeriodElapsedCallback could be implemented in the user file
   */
}
 8004658:	46c0      	nop			; (mov r8, r8)
 800465a:	46bd      	mov	sp, r7
 800465c:	b002      	add	sp, #8
 800465e:	bd80      	pop	{r7, pc}

08004660 <HAL_TIM_OC_DelayElapsedCallback>:
  * @brief  Output Compare callback in non-blocking mode
  * @param  htim TIM OC handle
  * @retval None
  */
__weak void HAL_TIM_OC_DelayElapsedCallback(TIM_HandleTypeDef *htim)
{
 8004660:	b580      	push	{r7, lr}
 8004662:	b082      	sub	sp, #8
 8004664:	af00      	add	r7, sp, #0
 8004666:	6078      	str	r0, [r7, #4]
  UNUSED(htim);

  /* NOTE : This function should not be modified, when the callback is needed,
            the HAL_TIM_OC_DelayElapsedCallback could be implemented in the user file
   */
}
 8004668:	46c0      	nop			; (mov r8, r8)
 800466a:	46bd      	mov	sp, r7
 800466c:	b002      	add	sp, #8
 800466e:	bd80      	pop	{r7, pc}

08004670 <HAL_TIM_IC_CaptureCallback>:
  * @brief  Input Capture callback in non-blocking mode
  * @param  htim TIM IC handle
  * @retval None
  */
__weak void HAL_TIM_IC_CaptureCallback(TIM_HandleTypeDef *htim)
{
 8004670:	b580      	push	{r7, lr}
 8004672:	b082      	sub	sp, #8
 8004674:	af00      	add	r7, sp, #0
 8004676:	6078      	str	r0, [r7, #4]
  UNUSED(htim);

  /* NOTE : This function should not be modified, when the callback is needed,
            the HAL_TIM_IC_CaptureCallback could be implemented in the user file
   */
}
 8004678:	46c0      	nop			; (mov r8, r8)
 800467a:	46bd      	mov	sp, r7
 800467c:	b002      	add	sp, #8
 800467e:	bd80      	pop	{r7, pc}

08004680 <HAL_TIM_PWM_PulseFinishedCallback>:
  * @brief  PWM Pulse finished callback in non-blocking mode
  * @param  htim TIM handle
  * @retval None
  */
__weak void HAL_TIM_PWM_PulseFinishedCallback(TIM_HandleTypeDef *htim)
{
 8004680:	b580      	push	{r7, lr}
 8004682:	b082      	sub	sp, #8
 8004684:	af00      	add	r7, sp, #0
 8004686:	6078      	str	r0, [r7, #4]
  UNUSED(htim);

  /* NOTE : This function should not be modified, when the callback is needed,
            the HAL_TIM_PWM_PulseFinishedCallback could be implemented in the user file
   */
}
 8004688:	46c0      	nop			; (mov r8, r8)
 800468a:	46bd      	mov	sp, r7
 800468c:	b002      	add	sp, #8
 800468e:	bd80      	pop	{r7, pc}

08004690 <HAL_TIM_TriggerCallback>:
  * @brief  Hall Trigger detection callback in non-blocking mode
  * @param  htim TIM handle
  * @retval None
  */
__weak void HAL_TIM_TriggerCallback(TIM_HandleTypeDef *htim)
{
 8004690:	b580      	push	{r7, lr}
 8004692:	b082      	sub	sp, #8
 8004694:	af00      	add	r7, sp, #0
 8004696:	6078      	str	r0, [r7, #4]
  UNUSED(htim);

  /* NOTE : This function should not be modified, when the callback is needed,
            the HAL_TIM_TriggerCallback could be implemented in the user file
   */
}
 8004698:	46c0      	nop			; (mov r8, r8)
 800469a:	46bd      	mov	sp, r7
 800469c:	b002      	add	sp, #8
 800469e:	bd80      	pop	{r7, pc}

080046a0 <TIM_Base_SetConfig>:
  * @param  TIMx TIM peripheral
  * @param  Structure TIM Base configuration structure
  * @retval None
  */
void TIM_Base_SetConfig(TIM_TypeDef *TIMx, TIM_Base_InitTypeDef *Structure)
{
 80046a0:	b580      	push	{r7, lr}
 80046a2:	b084      	sub	sp, #16
 80046a4:	af00      	add	r7, sp, #0
 80046a6:	6078      	str	r0, [r7, #4]
 80046a8:	6039      	str	r1, [r7, #0]
  uint32_t tmpcr1;
  tmpcr1 = TIMx->CR1;
 80046aa:	687b      	ldr	r3, [r7, #4]
 80046ac:	681b      	ldr	r3, [r3, #0]
 80046ae:	60fb      	str	r3, [r7, #12]

  /* Set TIM Time Base Unit parameters ---------------------------------------*/
  if (IS_TIM_COUNTER_MODE_SELECT_INSTANCE(TIMx))
 80046b0:	687b      	ldr	r3, [r7, #4]
 80046b2:	4a34      	ldr	r2, [pc, #208]	; (8004784 <TIM_Base_SetConfig+0xe4>)
 80046b4:	4293      	cmp	r3, r2
 80046b6:	d008      	beq.n	80046ca <TIM_Base_SetConfig+0x2a>
 80046b8:	687a      	ldr	r2, [r7, #4]
 80046ba:	2380      	movs	r3, #128	; 0x80
 80046bc:	05db      	lsls	r3, r3, #23
 80046be:	429a      	cmp	r2, r3
 80046c0:	d003      	beq.n	80046ca <TIM_Base_SetConfig+0x2a>
 80046c2:	687b      	ldr	r3, [r7, #4]
 80046c4:	4a30      	ldr	r2, [pc, #192]	; (8004788 <TIM_Base_SetConfig+0xe8>)
 80046c6:	4293      	cmp	r3, r2
 80046c8:	d108      	bne.n	80046dc <TIM_Base_SetConfig+0x3c>
  {
    /* Select the Counter Mode */
    tmpcr1 &= ~(TIM_CR1_DIR | TIM_CR1_CMS);
 80046ca:	68fb      	ldr	r3, [r7, #12]
 80046cc:	2270      	movs	r2, #112	; 0x70
 80046ce:	4393      	bics	r3, r2
 80046d0:	60fb      	str	r3, [r7, #12]
    tmpcr1 |= Structure->CounterMode;
 80046d2:	683b      	ldr	r3, [r7, #0]
 80046d4:	685b      	ldr	r3, [r3, #4]
 80046d6:	68fa      	ldr	r2, [r7, #12]
 80046d8:	4313      	orrs	r3, r2
 80046da:	60fb      	str	r3, [r7, #12]
  }

  if (IS_TIM_CLOCK_DIVISION_INSTANCE(TIMx))
 80046dc:	687b      	ldr	r3, [r7, #4]
 80046de:	4a29      	ldr	r2, [pc, #164]	; (8004784 <TIM_Base_SetConfig+0xe4>)
 80046e0:	4293      	cmp	r3, r2
 80046e2:	d018      	beq.n	8004716 <TIM_Base_SetConfig+0x76>
 80046e4:	687a      	ldr	r2, [r7, #4]
 80046e6:	2380      	movs	r3, #128	; 0x80
 80046e8:	05db      	lsls	r3, r3, #23
 80046ea:	429a      	cmp	r2, r3
 80046ec:	d013      	beq.n	8004716 <TIM_Base_SetConfig+0x76>
 80046ee:	687b      	ldr	r3, [r7, #4]
 80046f0:	4a25      	ldr	r2, [pc, #148]	; (8004788 <TIM_Base_SetConfig+0xe8>)
 80046f2:	4293      	cmp	r3, r2
 80046f4:	d00f      	beq.n	8004716 <TIM_Base_SetConfig+0x76>
 80046f6:	687b      	ldr	r3, [r7, #4]
 80046f8:	4a24      	ldr	r2, [pc, #144]	; (800478c <TIM_Base_SetConfig+0xec>)
 80046fa:	4293      	cmp	r3, r2
 80046fc:	d00b      	beq.n	8004716 <TIM_Base_SetConfig+0x76>
 80046fe:	687b      	ldr	r3, [r7, #4]
 8004700:	4a23      	ldr	r2, [pc, #140]	; (8004790 <TIM_Base_SetConfig+0xf0>)
 8004702:	4293      	cmp	r3, r2
 8004704:	d007      	beq.n	8004716 <TIM_Base_SetConfig+0x76>
 8004706:	687b      	ldr	r3, [r7, #4]
 8004708:	4a22      	ldr	r2, [pc, #136]	; (8004794 <TIM_Base_SetConfig+0xf4>)
 800470a:	4293      	cmp	r3, r2
 800470c:	d003      	beq.n	8004716 <TIM_Base_SetConfig+0x76>
 800470e:	687b      	ldr	r3, [r7, #4]
 8004710:	4a21      	ldr	r2, [pc, #132]	; (8004798 <TIM_Base_SetConfig+0xf8>)
 8004712:	4293      	cmp	r3, r2
 8004714:	d108      	bne.n	8004728 <TIM_Base_SetConfig+0x88>
  {
    /* Set the clock division */
    tmpcr1 &= ~TIM_CR1_CKD;
 8004716:	68fb      	ldr	r3, [r7, #12]
 8004718:	4a20      	ldr	r2, [pc, #128]	; (800479c <TIM_Base_SetConfig+0xfc>)
 800471a:	4013      	ands	r3, r2
 800471c:	60fb      	str	r3, [r7, #12]
    tmpcr1 |= (uint32_t)Structure->ClockDivision;
 800471e:	683b      	ldr	r3, [r7, #0]
 8004720:	68db      	ldr	r3, [r3, #12]
 8004722:	68fa      	ldr	r2, [r7, #12]
 8004724:	4313      	orrs	r3, r2
 8004726:	60fb      	str	r3, [r7, #12]
  }

  /* Set the auto-reload preload */
  MODIFY_REG(tmpcr1, TIM_CR1_ARPE, Structure->AutoReloadPreload);
 8004728:	68fb      	ldr	r3, [r7, #12]
 800472a:	2280      	movs	r2, #128	; 0x80
 800472c:	4393      	bics	r3, r2
 800472e:	001a      	movs	r2, r3
 8004730:	683b      	ldr	r3, [r7, #0]
 8004732:	695b      	ldr	r3, [r3, #20]
 8004734:	4313      	orrs	r3, r2
 8004736:	60fb      	str	r3, [r7, #12]

  TIMx->CR1 = tmpcr1;
 8004738:	687b      	ldr	r3, [r7, #4]
 800473a:	68fa      	ldr	r2, [r7, #12]
 800473c:	601a      	str	r2, [r3, #0]

  /* Set the Autoreload value */
  TIMx->ARR = (uint32_t)Structure->Period ;
 800473e:	683b      	ldr	r3, [r7, #0]
 8004740:	689a      	ldr	r2, [r3, #8]
 8004742:	687b      	ldr	r3, [r7, #4]
 8004744:	62da      	str	r2, [r3, #44]	; 0x2c

  /* Set the Prescaler value */
  TIMx->PSC = Structure->Prescaler;
 8004746:	683b      	ldr	r3, [r7, #0]
 8004748:	681a      	ldr	r2, [r3, #0]
 800474a:	687b      	ldr	r3, [r7, #4]
 800474c:	629a      	str	r2, [r3, #40]	; 0x28

  if (IS_TIM_REPETITION_COUNTER_INSTANCE(TIMx))
 800474e:	687b      	ldr	r3, [r7, #4]
 8004750:	4a0c      	ldr	r2, [pc, #48]	; (8004784 <TIM_Base_SetConfig+0xe4>)
 8004752:	4293      	cmp	r3, r2
 8004754:	d00b      	beq.n	800476e <TIM_Base_SetConfig+0xce>
 8004756:	687b      	ldr	r3, [r7, #4]
 8004758:	4a0d      	ldr	r2, [pc, #52]	; (8004790 <TIM_Base_SetConfig+0xf0>)
 800475a:	4293      	cmp	r3, r2
 800475c:	d007      	beq.n	800476e <TIM_Base_SetConfig+0xce>
 800475e:	687b      	ldr	r3, [r7, #4]
 8004760:	4a0c      	ldr	r2, [pc, #48]	; (8004794 <TIM_Base_SetConfig+0xf4>)
 8004762:	4293      	cmp	r3, r2
 8004764:	d003      	beq.n	800476e <TIM_Base_SetConfig+0xce>
 8004766:	687b      	ldr	r3, [r7, #4]
 8004768:	4a0b      	ldr	r2, [pc, #44]	; (8004798 <TIM_Base_SetConfig+0xf8>)
 800476a:	4293      	cmp	r3, r2
 800476c:	d103      	bne.n	8004776 <TIM_Base_SetConfig+0xd6>
  {
    /* Set the Repetition Counter value */
    TIMx->RCR = Structure->RepetitionCounter;
 800476e:	683b      	ldr	r3, [r7, #0]
 8004770:	691a      	ldr	r2, [r3, #16]
 8004772:	687b      	ldr	r3, [r7, #4]
 8004774:	631a      	str	r2, [r3, #48]	; 0x30
  }

  /* Generate an update event to reload the Prescaler
     and the repetition counter (only for advanced timer) value immediately */
  TIMx->EGR = TIM_EGR_UG;
 8004776:	687b      	ldr	r3, [r7, #4]
 8004778:	2201      	movs	r2, #1
 800477a:	615a      	str	r2, [r3, #20]
}
 800477c:	46c0      	nop			; (mov r8, r8)
 800477e:	46bd      	mov	sp, r7
 8004780:	b004      	add	sp, #16
 8004782:	bd80      	pop	{r7, pc}
 8004784:	40012c00 	.word	0x40012c00
 8004788:	40000400 	.word	0x40000400
 800478c:	40002000 	.word	0x40002000
 8004790:	40014000 	.word	0x40014000
 8004794:	40014400 	.word	0x40014400
 8004798:	40014800 	.word	0x40014800
 800479c:	fffffcff 	.word	0xfffffcff

080047a0 <HAL_TIMEx_CommutCallback>:
  * @brief  Hall commutation changed callback in non-blocking mode
  * @param  htim TIM handle
  * @retval None
  */
__weak void HAL_TIMEx_CommutCallback(TIM_HandleTypeDef *htim)
{
 80047a0:	b580      	push	{r7, lr}
 80047a2:	b082      	sub	sp, #8
 80047a4:	af00      	add	r7, sp, #0
 80047a6:	6078      	str	r0, [r7, #4]
  UNUSED(htim);

  /* NOTE : This function should not be modified, when the callback is needed,
            the HAL_TIMEx_CommutCallback could be implemented in the user file
   */
}
 80047a8:	46c0      	nop			; (mov r8, r8)
 80047aa:	46bd      	mov	sp, r7
 80047ac:	b002      	add	sp, #8
 80047ae:	bd80      	pop	{r7, pc}

080047b0 <HAL_TIMEx_BreakCallback>:
  * @brief  Hall Break detection callback in non-blocking mode
  * @param  htim TIM handle
  * @retval None
  */
__weak void HAL_TIMEx_BreakCallback(TIM_HandleTypeDef *htim)
{
 80047b0:	b580      	push	{r7, lr}
 80047b2:	b082      	sub	sp, #8
 80047b4:	af00      	add	r7, sp, #0
 80047b6:	6078      	str	r0, [r7, #4]
  UNUSED(htim);

  /* NOTE : This function should not be modified, when the callback is needed,
            the HAL_TIMEx_BreakCallback could be implemented in the user file
   */
}
 80047b8:	46c0      	nop			; (mov r8, r8)
 80047ba:	46bd      	mov	sp, r7
 80047bc:	b002      	add	sp, #8
 80047be:	bd80      	pop	{r7, pc}

080047c0 <ILI9341_Draw_Filled_Circle>:
 *	@param None
 *	@retval None
 *
 */
void ILI9341_Draw_Filled_Circle(uint16_t x, uint16_t y, uint16_t r, uint16_t Colour)
{
 80047c0:	b5b0      	push	{r4, r5, r7, lr}
 80047c2:	b08a      	sub	sp, #40	; 0x28
 80047c4:	af00      	add	r7, sp, #0
 80047c6:	0005      	movs	r5, r0
 80047c8:	000c      	movs	r4, r1
 80047ca:	0010      	movs	r0, r2
 80047cc:	0019      	movs	r1, r3
 80047ce:	1dbb      	adds	r3, r7, #6
 80047d0:	1c2a      	adds	r2, r5, #0
 80047d2:	801a      	strh	r2, [r3, #0]
 80047d4:	1d3b      	adds	r3, r7, #4
 80047d6:	1c22      	adds	r2, r4, #0
 80047d8:	801a      	strh	r2, [r3, #0]
 80047da:	1cbb      	adds	r3, r7, #2
 80047dc:	1c02      	adds	r2, r0, #0
 80047de:	801a      	strh	r2, [r3, #0]
 80047e0:	003b      	movs	r3, r7
 80047e2:	1c0a      	adds	r2, r1, #0
 80047e4:	801a      	strh	r2, [r3, #0]
	
	int tx = r;
 80047e6:	1cbb      	adds	r3, r7, #2
 80047e8:	881b      	ldrh	r3, [r3, #0]
 80047ea:	627b      	str	r3, [r7, #36]	; 0x24
    int ty = 0;
 80047ec:	2300      	movs	r3, #0
 80047ee:	623b      	str	r3, [r7, #32]
    int xChange = 1 - (r << 1);
 80047f0:	1cbb      	adds	r3, r7, #2
 80047f2:	881b      	ldrh	r3, [r3, #0]
 80047f4:	005b      	lsls	r3, r3, #1
 80047f6:	2201      	movs	r2, #1
 80047f8:	1ad3      	subs	r3, r2, r3
 80047fa:	61fb      	str	r3, [r7, #28]
    int yChange = 0;
 80047fc:	2300      	movs	r3, #0
 80047fe:	61bb      	str	r3, [r7, #24]
    int radiusError = 0;
 8004800:	2300      	movs	r3, #0
 8004802:	617b      	str	r3, [r7, #20]

    while (tx >= ty)
 8004804:	e06d      	b.n	80048e2 <ILI9341_Draw_Filled_Circle+0x122>
    {
        for (int i = x - tx; i <= x + tx; i++)
 8004806:	1dbb      	adds	r3, r7, #6
 8004808:	881a      	ldrh	r2, [r3, #0]
 800480a:	6a7b      	ldr	r3, [r7, #36]	; 0x24
 800480c:	1ad3      	subs	r3, r2, r3
 800480e:	613b      	str	r3, [r7, #16]
 8004810:	e01c      	b.n	800484c <ILI9341_Draw_Filled_Circle+0x8c>
        {
            ILI9341_Draw_Pixel(i, y + ty,Colour);
 8004812:	693b      	ldr	r3, [r7, #16]
 8004814:	b298      	uxth	r0, r3
 8004816:	6a3b      	ldr	r3, [r7, #32]
 8004818:	b29a      	uxth	r2, r3
 800481a:	1d3b      	adds	r3, r7, #4
 800481c:	881b      	ldrh	r3, [r3, #0]
 800481e:	18d3      	adds	r3, r2, r3
 8004820:	b299      	uxth	r1, r3
 8004822:	003b      	movs	r3, r7
 8004824:	881b      	ldrh	r3, [r3, #0]
 8004826:	001a      	movs	r2, r3
 8004828:	f000 fc10 	bl	800504c <ILI9341_Draw_Pixel>
            ILI9341_Draw_Pixel(i, y - ty,Colour);
 800482c:	693b      	ldr	r3, [r7, #16]
 800482e:	b298      	uxth	r0, r3
 8004830:	6a3b      	ldr	r3, [r7, #32]
 8004832:	b29b      	uxth	r3, r3
 8004834:	1d3a      	adds	r2, r7, #4
 8004836:	8812      	ldrh	r2, [r2, #0]
 8004838:	1ad3      	subs	r3, r2, r3
 800483a:	b299      	uxth	r1, r3
 800483c:	003b      	movs	r3, r7
 800483e:	881b      	ldrh	r3, [r3, #0]
 8004840:	001a      	movs	r2, r3
 8004842:	f000 fc03 	bl	800504c <ILI9341_Draw_Pixel>
        for (int i = x - tx; i <= x + tx; i++)
 8004846:	693b      	ldr	r3, [r7, #16]
 8004848:	3301      	adds	r3, #1
 800484a:	613b      	str	r3, [r7, #16]
 800484c:	1dbb      	adds	r3, r7, #6
 800484e:	881a      	ldrh	r2, [r3, #0]
 8004850:	6a7b      	ldr	r3, [r7, #36]	; 0x24
 8004852:	18d3      	adds	r3, r2, r3
 8004854:	693a      	ldr	r2, [r7, #16]
 8004856:	429a      	cmp	r2, r3
 8004858:	dddb      	ble.n	8004812 <ILI9341_Draw_Filled_Circle+0x52>
        }
        for (int i = x - ty; i <= x + ty; i++)
 800485a:	1dbb      	adds	r3, r7, #6
 800485c:	881a      	ldrh	r2, [r3, #0]
 800485e:	6a3b      	ldr	r3, [r7, #32]
 8004860:	1ad3      	subs	r3, r2, r3
 8004862:	60fb      	str	r3, [r7, #12]
 8004864:	e01c      	b.n	80048a0 <ILI9341_Draw_Filled_Circle+0xe0>
        {
            ILI9341_Draw_Pixel(i, y + tx,Colour);
 8004866:	68fb      	ldr	r3, [r7, #12]
 8004868:	b298      	uxth	r0, r3
 800486a:	6a7b      	ldr	r3, [r7, #36]	; 0x24
 800486c:	b29a      	uxth	r2, r3
 800486e:	1d3b      	adds	r3, r7, #4
 8004870:	881b      	ldrh	r3, [r3, #0]
 8004872:	18d3      	adds	r3, r2, r3
 8004874:	b299      	uxth	r1, r3
 8004876:	003b      	movs	r3, r7
 8004878:	881b      	ldrh	r3, [r3, #0]
 800487a:	001a      	movs	r2, r3
 800487c:	f000 fbe6 	bl	800504c <ILI9341_Draw_Pixel>
            ILI9341_Draw_Pixel(i, y - tx,Colour);
 8004880:	68fb      	ldr	r3, [r7, #12]
 8004882:	b298      	uxth	r0, r3
 8004884:	6a7b      	ldr	r3, [r7, #36]	; 0x24
 8004886:	b29b      	uxth	r3, r3
 8004888:	1d3a      	adds	r2, r7, #4
 800488a:	8812      	ldrh	r2, [r2, #0]
 800488c:	1ad3      	subs	r3, r2, r3
 800488e:	b299      	uxth	r1, r3
 8004890:	003b      	movs	r3, r7
 8004892:	881b      	ldrh	r3, [r3, #0]
 8004894:	001a      	movs	r2, r3
 8004896:	f000 fbd9 	bl	800504c <ILI9341_Draw_Pixel>
        for (int i = x - ty; i <= x + ty; i++)
 800489a:	68fb      	ldr	r3, [r7, #12]
 800489c:	3301      	adds	r3, #1
 800489e:	60fb      	str	r3, [r7, #12]
 80048a0:	1dbb      	adds	r3, r7, #6
 80048a2:	881a      	ldrh	r2, [r3, #0]
 80048a4:	6a3b      	ldr	r3, [r7, #32]
 80048a6:	18d3      	adds	r3, r2, r3
 80048a8:	68fa      	ldr	r2, [r7, #12]
 80048aa:	429a      	cmp	r2, r3
 80048ac:	dddb      	ble.n	8004866 <ILI9341_Draw_Filled_Circle+0xa6>
        }

        ty++;
 80048ae:	6a3b      	ldr	r3, [r7, #32]
 80048b0:	3301      	adds	r3, #1
 80048b2:	623b      	str	r3, [r7, #32]
        radiusError += yChange;
 80048b4:	697a      	ldr	r2, [r7, #20]
 80048b6:	69bb      	ldr	r3, [r7, #24]
 80048b8:	18d3      	adds	r3, r2, r3
 80048ba:	617b      	str	r3, [r7, #20]
        yChange += 2;
 80048bc:	69bb      	ldr	r3, [r7, #24]
 80048be:	3302      	adds	r3, #2
 80048c0:	61bb      	str	r3, [r7, #24]
        if (((radiusError << 1) + xChange) > 0)
 80048c2:	697b      	ldr	r3, [r7, #20]
 80048c4:	005a      	lsls	r2, r3, #1
 80048c6:	69fb      	ldr	r3, [r7, #28]
 80048c8:	18d3      	adds	r3, r2, r3
 80048ca:	2b00      	cmp	r3, #0
 80048cc:	dd09      	ble.n	80048e2 <ILI9341_Draw_Filled_Circle+0x122>
        {
        	tx--;
 80048ce:	6a7b      	ldr	r3, [r7, #36]	; 0x24
 80048d0:	3b01      	subs	r3, #1
 80048d2:	627b      	str	r3, [r7, #36]	; 0x24
            radiusError += xChange;
 80048d4:	697a      	ldr	r2, [r7, #20]
 80048d6:	69fb      	ldr	r3, [r7, #28]
 80048d8:	18d3      	adds	r3, r2, r3
 80048da:	617b      	str	r3, [r7, #20]
            xChange += 2;
 80048dc:	69fb      	ldr	r3, [r7, #28]
 80048de:	3302      	adds	r3, #2
 80048e0:	61fb      	str	r3, [r7, #28]
    while (tx >= ty)
 80048e2:	6a7a      	ldr	r2, [r7, #36]	; 0x24
 80048e4:	6a3b      	ldr	r3, [r7, #32]
 80048e6:	429a      	cmp	r2, r3
 80048e8:	da8d      	bge.n	8004806 <ILI9341_Draw_Filled_Circle+0x46>
        }
    }
		//Really slow implementation, will require future overhaul
		//TODO:	https://stackoverflow.com/questions/1201200/fast-algorithm-for-drawing-filled-circles	
}
 80048ea:	46c0      	nop			; (mov r8, r8)
 80048ec:	46bd      	mov	sp, r7
 80048ee:	b00a      	add	sp, #40	; 0x28
 80048f0:	bdb0      	pop	{r4, r5, r7, pc}
	...

080048f4 <ILI9341_Draw_Char>:
 *	@retval None
 *
 */

void ILI9341_Draw_Char(char character, uint16_t x, uint16_t y, uint16_t colour, uint16_t size, uint16_t bgcolour)
{
 80048f4:	b5b0      	push	{r4, r5, r7, lr}
 80048f6:	b088      	sub	sp, #32
 80048f8:	af02      	add	r7, sp, #8
 80048fa:	0005      	movs	r5, r0
 80048fc:	000c      	movs	r4, r1
 80048fe:	0010      	movs	r0, r2
 8004900:	0019      	movs	r1, r3
 8004902:	1dfb      	adds	r3, r7, #7
 8004904:	1c2a      	adds	r2, r5, #0
 8004906:	701a      	strb	r2, [r3, #0]
 8004908:	1d3b      	adds	r3, r7, #4
 800490a:	1c22      	adds	r2, r4, #0
 800490c:	801a      	strh	r2, [r3, #0]
 800490e:	1cbb      	adds	r3, r7, #2
 8004910:	1c02      	adds	r2, r0, #0
 8004912:	801a      	strh	r2, [r3, #0]
 8004914:	003b      	movs	r3, r7
 8004916:	1c0a      	adds	r2, r1, #0
 8004918:	801a      	strh	r2, [r3, #0]
    uint8_t 	i,j;
		



	function_char = character;
 800491a:	2117      	movs	r1, #23
 800491c:	187b      	adds	r3, r7, r1
 800491e:	1dfa      	adds	r2, r7, #7
 8004920:	7812      	ldrb	r2, [r2, #0]
 8004922:	701a      	strb	r2, [r3, #0]
		
    if (function_char < ' ')
 8004924:	187b      	adds	r3, r7, r1
 8004926:	781b      	ldrb	r3, [r3, #0]
 8004928:	2b1f      	cmp	r3, #31
 800492a:	d803      	bhi.n	8004934 <ILI9341_Draw_Char+0x40>
    {
        character = 0;
 800492c:	1dfb      	adds	r3, r7, #7
 800492e:	2200      	movs	r2, #0
 8004930:	701a      	strb	r2, [r3, #0]
 8004932:	e005      	b.n	8004940 <ILI9341_Draw_Char+0x4c>
    }
    else
    {
    	function_char -= 32;
 8004934:	2217      	movs	r2, #23
 8004936:	18bb      	adds	r3, r7, r2
 8004938:	18ba      	adds	r2, r7, r2
 800493a:	7812      	ldrb	r2, [r2, #0]
 800493c:	3a20      	subs	r2, #32
 800493e:	701a      	strb	r2, [r3, #0]
	}
   	
	char temp[CHAR_WIDTH];

	for(uint8_t k = 0; k<CHAR_WIDTH; k++)
 8004940:	2314      	movs	r3, #20
 8004942:	18fb      	adds	r3, r7, r3
 8004944:	2200      	movs	r2, #0
 8004946:	701a      	strb	r2, [r3, #0]
 8004948:	e016      	b.n	8004978 <ILI9341_Draw_Char+0x84>
	{
		temp[k] = font[function_char][k];
 800494a:	2317      	movs	r3, #23
 800494c:	18fb      	adds	r3, r7, r3
 800494e:	781a      	ldrb	r2, [r3, #0]
 8004950:	2514      	movs	r5, #20
 8004952:	197b      	adds	r3, r7, r5
 8004954:	7818      	ldrb	r0, [r3, #0]
 8004956:	197b      	adds	r3, r7, r5
 8004958:	7819      	ldrb	r1, [r3, #0]
 800495a:	4c69      	ldr	r4, [pc, #420]	; (8004b00 <ILI9341_Draw_Char+0x20c>)
 800495c:	0013      	movs	r3, r2
 800495e:	005b      	lsls	r3, r3, #1
 8004960:	189b      	adds	r3, r3, r2
 8004962:	005b      	lsls	r3, r3, #1
 8004964:	18e3      	adds	r3, r4, r3
 8004966:	5c1a      	ldrb	r2, [r3, r0]
 8004968:	230c      	movs	r3, #12
 800496a:	18fb      	adds	r3, r7, r3
 800496c:	545a      	strb	r2, [r3, r1]
	for(uint8_t k = 0; k<CHAR_WIDTH; k++)
 800496e:	197b      	adds	r3, r7, r5
 8004970:	781a      	ldrb	r2, [r3, #0]
 8004972:	197b      	adds	r3, r7, r5
 8004974:	3201      	adds	r2, #1
 8004976:	701a      	strb	r2, [r3, #0]
 8004978:	2314      	movs	r3, #20
 800497a:	18fb      	adds	r3, r7, r3
 800497c:	781b      	ldrb	r3, [r3, #0]
 800497e:	2b05      	cmp	r3, #5
 8004980:	d9e3      	bls.n	800494a <ILI9341_Draw_Char+0x56>
	}
		
    // Draw pixels
	//ILI9341_Draw_Rectangle(x, Y, CHAR_WIDTH*size, CHAR_HEIGHT*size, bgcolour);
    for (j=0; j<CHAR_WIDTH; j++)
 8004982:	2315      	movs	r3, #21
 8004984:	18fb      	adds	r3, r7, r3
 8004986:	2200      	movs	r2, #0
 8004988:	701a      	strb	r2, [r3, #0]
 800498a:	e0ae      	b.n	8004aea <ILI9341_Draw_Char+0x1f6>
    {
        for (i=0; i<CHAR_HEIGHT; i++)
 800498c:	2316      	movs	r3, #22
 800498e:	18fb      	adds	r3, r7, r3
 8004990:	2200      	movs	r2, #0
 8004992:	701a      	strb	r2, [r3, #0]
 8004994:	e09d      	b.n	8004ad2 <ILI9341_Draw_Char+0x1de>
        {
            if (temp[j] & (1<<i))
 8004996:	2315      	movs	r3, #21
 8004998:	18fb      	adds	r3, r7, r3
 800499a:	781b      	ldrb	r3, [r3, #0]
 800499c:	220c      	movs	r2, #12
 800499e:	18ba      	adds	r2, r7, r2
 80049a0:	5cd3      	ldrb	r3, [r2, r3]
 80049a2:	001a      	movs	r2, r3
 80049a4:	2316      	movs	r3, #22
 80049a6:	18fb      	adds	r3, r7, r3
 80049a8:	781b      	ldrb	r3, [r3, #0]
 80049aa:	411a      	asrs	r2, r3
 80049ac:	0013      	movs	r3, r2
 80049ae:	2201      	movs	r2, #1
 80049b0:	4013      	ands	r3, r2
 80049b2:	d043      	beq.n	8004a3c <ILI9341_Draw_Char+0x148>
            {
            	if(size == 1)
 80049b4:	2328      	movs	r3, #40	; 0x28
 80049b6:	18fb      	adds	r3, r7, r3
 80049b8:	881b      	ldrh	r3, [r3, #0]
 80049ba:	2b01      	cmp	r3, #1
 80049bc:	d115      	bne.n	80049ea <ILI9341_Draw_Char+0xf6>
				{
            		ILI9341_Draw_Pixel(x+j, y+i, colour);
 80049be:	2315      	movs	r3, #21
 80049c0:	18fb      	adds	r3, r7, r3
 80049c2:	781b      	ldrb	r3, [r3, #0]
 80049c4:	b29a      	uxth	r2, r3
 80049c6:	1d3b      	adds	r3, r7, #4
 80049c8:	881b      	ldrh	r3, [r3, #0]
 80049ca:	18d3      	adds	r3, r2, r3
 80049cc:	b298      	uxth	r0, r3
 80049ce:	2316      	movs	r3, #22
 80049d0:	18fb      	adds	r3, r7, r3
 80049d2:	781b      	ldrb	r3, [r3, #0]
 80049d4:	b29a      	uxth	r2, r3
 80049d6:	1cbb      	adds	r3, r7, #2
 80049d8:	881b      	ldrh	r3, [r3, #0]
 80049da:	18d3      	adds	r3, r2, r3
 80049dc:	b299      	uxth	r1, r3
 80049de:	003b      	movs	r3, r7
 80049e0:	881b      	ldrh	r3, [r3, #0]
 80049e2:	001a      	movs	r2, r3
 80049e4:	f000 fb32 	bl	800504c <ILI9341_Draw_Pixel>
 80049e8:	e06d      	b.n	8004ac6 <ILI9341_Draw_Char+0x1d2>
				}
				else
				{
					ILI9341_Draw_Rectangle(x+(j*size), y+(i*size), size, size, colour, TEXT_CHUNK);
 80049ea:	2315      	movs	r3, #21
 80049ec:	18fb      	adds	r3, r7, r3
 80049ee:	781b      	ldrb	r3, [r3, #0]
 80049f0:	b29b      	uxth	r3, r3
 80049f2:	2128      	movs	r1, #40	; 0x28
 80049f4:	187a      	adds	r2, r7, r1
 80049f6:	8812      	ldrh	r2, [r2, #0]
 80049f8:	4353      	muls	r3, r2
 80049fa:	b29a      	uxth	r2, r3
 80049fc:	1d3b      	adds	r3, r7, #4
 80049fe:	881b      	ldrh	r3, [r3, #0]
 8004a00:	18d3      	adds	r3, r2, r3
 8004a02:	b298      	uxth	r0, r3
 8004a04:	2316      	movs	r3, #22
 8004a06:	18fb      	adds	r3, r7, r3
 8004a08:	781b      	ldrb	r3, [r3, #0]
 8004a0a:	b29b      	uxth	r3, r3
 8004a0c:	000c      	movs	r4, r1
 8004a0e:	187a      	adds	r2, r7, r1
 8004a10:	8812      	ldrh	r2, [r2, #0]
 8004a12:	4353      	muls	r3, r2
 8004a14:	b29a      	uxth	r2, r3
 8004a16:	1cbb      	adds	r3, r7, #2
 8004a18:	881b      	ldrh	r3, [r3, #0]
 8004a1a:	18d3      	adds	r3, r2, r3
 8004a1c:	b299      	uxth	r1, r3
 8004a1e:	0022      	movs	r2, r4
 8004a20:	193b      	adds	r3, r7, r4
 8004a22:	881c      	ldrh	r4, [r3, #0]
 8004a24:	0013      	movs	r3, r2
 8004a26:	18fb      	adds	r3, r7, r3
 8004a28:	881a      	ldrh	r2, [r3, #0]
 8004a2a:	2301      	movs	r3, #1
 8004a2c:	9301      	str	r3, [sp, #4]
 8004a2e:	003b      	movs	r3, r7
 8004a30:	881b      	ldrh	r3, [r3, #0]
 8004a32:	9300      	str	r3, [sp, #0]
 8004a34:	0023      	movs	r3, r4
 8004a36:	f000 fc7d 	bl	8005334 <ILI9341_Draw_Rectangle>
 8004a3a:	e044      	b.n	8004ac6 <ILI9341_Draw_Char+0x1d2>
				}
            }
            else
            {
               	if(size == 1)
 8004a3c:	2328      	movs	r3, #40	; 0x28
 8004a3e:	18fb      	adds	r3, r7, r3
 8004a40:	881b      	ldrh	r3, [r3, #0]
 8004a42:	2b01      	cmp	r3, #1
 8004a44:	d116      	bne.n	8004a74 <ILI9341_Draw_Char+0x180>
				{
					ILI9341_Draw_Pixel(x+j, y+i, bgcolour);
 8004a46:	2315      	movs	r3, #21
 8004a48:	18fb      	adds	r3, r7, r3
 8004a4a:	781b      	ldrb	r3, [r3, #0]
 8004a4c:	b29a      	uxth	r2, r3
 8004a4e:	1d3b      	adds	r3, r7, #4
 8004a50:	881b      	ldrh	r3, [r3, #0]
 8004a52:	18d3      	adds	r3, r2, r3
 8004a54:	b298      	uxth	r0, r3
 8004a56:	2316      	movs	r3, #22
 8004a58:	18fb      	adds	r3, r7, r3
 8004a5a:	781b      	ldrb	r3, [r3, #0]
 8004a5c:	b29a      	uxth	r2, r3
 8004a5e:	1cbb      	adds	r3, r7, #2
 8004a60:	881b      	ldrh	r3, [r3, #0]
 8004a62:	18d3      	adds	r3, r2, r3
 8004a64:	b299      	uxth	r1, r3
 8004a66:	232c      	movs	r3, #44	; 0x2c
 8004a68:	18fb      	adds	r3, r7, r3
 8004a6a:	881b      	ldrh	r3, [r3, #0]
 8004a6c:	001a      	movs	r2, r3
 8004a6e:	f000 faed 	bl	800504c <ILI9341_Draw_Pixel>
 8004a72:	e028      	b.n	8004ac6 <ILI9341_Draw_Char+0x1d2>
				}
				else
				{
					ILI9341_Draw_Rectangle(x+(j*size), y+(i*size), size, size, bgcolour, TEXT_CHUNK);
 8004a74:	2315      	movs	r3, #21
 8004a76:	18fb      	adds	r3, r7, r3
 8004a78:	781b      	ldrb	r3, [r3, #0]
 8004a7a:	b29b      	uxth	r3, r3
 8004a7c:	2128      	movs	r1, #40	; 0x28
 8004a7e:	187a      	adds	r2, r7, r1
 8004a80:	8812      	ldrh	r2, [r2, #0]
 8004a82:	4353      	muls	r3, r2
 8004a84:	b29a      	uxth	r2, r3
 8004a86:	1d3b      	adds	r3, r7, #4
 8004a88:	881b      	ldrh	r3, [r3, #0]
 8004a8a:	18d3      	adds	r3, r2, r3
 8004a8c:	b298      	uxth	r0, r3
 8004a8e:	2316      	movs	r3, #22
 8004a90:	18fb      	adds	r3, r7, r3
 8004a92:	781b      	ldrb	r3, [r3, #0]
 8004a94:	b29b      	uxth	r3, r3
 8004a96:	000c      	movs	r4, r1
 8004a98:	187a      	adds	r2, r7, r1
 8004a9a:	8812      	ldrh	r2, [r2, #0]
 8004a9c:	4353      	muls	r3, r2
 8004a9e:	b29a      	uxth	r2, r3
 8004aa0:	1cbb      	adds	r3, r7, #2
 8004aa2:	881b      	ldrh	r3, [r3, #0]
 8004aa4:	18d3      	adds	r3, r2, r3
 8004aa6:	b299      	uxth	r1, r3
 8004aa8:	0022      	movs	r2, r4
 8004aaa:	193b      	adds	r3, r7, r4
 8004aac:	881c      	ldrh	r4, [r3, #0]
 8004aae:	0013      	movs	r3, r2
 8004ab0:	18fb      	adds	r3, r7, r3
 8004ab2:	881a      	ldrh	r2, [r3, #0]
 8004ab4:	2301      	movs	r3, #1
 8004ab6:	9301      	str	r3, [sp, #4]
 8004ab8:	232c      	movs	r3, #44	; 0x2c
 8004aba:	18fb      	adds	r3, r7, r3
 8004abc:	881b      	ldrh	r3, [r3, #0]
 8004abe:	9300      	str	r3, [sp, #0]
 8004ac0:	0023      	movs	r3, r4
 8004ac2:	f000 fc37 	bl	8005334 <ILI9341_Draw_Rectangle>
        for (i=0; i<CHAR_HEIGHT; i++)
 8004ac6:	2116      	movs	r1, #22
 8004ac8:	187b      	adds	r3, r7, r1
 8004aca:	781a      	ldrb	r2, [r3, #0]
 8004acc:	187b      	adds	r3, r7, r1
 8004ace:	3201      	adds	r2, #1
 8004ad0:	701a      	strb	r2, [r3, #0]
 8004ad2:	2316      	movs	r3, #22
 8004ad4:	18fb      	adds	r3, r7, r3
 8004ad6:	781b      	ldrb	r3, [r3, #0]
 8004ad8:	2b07      	cmp	r3, #7
 8004ada:	d800      	bhi.n	8004ade <ILI9341_Draw_Char+0x1ea>
 8004adc:	e75b      	b.n	8004996 <ILI9341_Draw_Char+0xa2>
    for (j=0; j<CHAR_WIDTH; j++)
 8004ade:	2115      	movs	r1, #21
 8004ae0:	187b      	adds	r3, r7, r1
 8004ae2:	781a      	ldrb	r2, [r3, #0]
 8004ae4:	187b      	adds	r3, r7, r1
 8004ae6:	3201      	adds	r2, #1
 8004ae8:	701a      	strb	r2, [r3, #0]
 8004aea:	2315      	movs	r3, #21
 8004aec:	18fb      	adds	r3, r7, r3
 8004aee:	781b      	ldrb	r3, [r3, #0]
 8004af0:	2b05      	cmp	r3, #5
 8004af2:	d800      	bhi.n	8004af6 <ILI9341_Draw_Char+0x202>
 8004af4:	e74a      	b.n	800498c <ILI9341_Draw_Char+0x98>
				}
            }
        }
    }
}
 8004af6:	46c0      	nop			; (mov r8, r8)
 8004af8:	46bd      	mov	sp, r7
 8004afa:	b006      	add	sp, #24
 8004afc:	bdb0      	pop	{r4, r5, r7, pc}
 8004afe:	46c0      	nop			; (mov r8, r8)
 8004b00:	080081cc 	.word	0x080081cc

08004b04 <ILI9341_Draw_Text>:
 *	@param None
 *	@retval None
 *
 */
void ILI9341_Draw_Text(const char* Text, uint16_t x, uint16_t y, uint16_t colour, uint16_t size, uint16_t bgcolour)
{
 8004b04:	b5f0      	push	{r4, r5, r6, r7, lr}
 8004b06:	b087      	sub	sp, #28
 8004b08:	af02      	add	r7, sp, #8
 8004b0a:	60f8      	str	r0, [r7, #12]
 8004b0c:	000c      	movs	r4, r1
 8004b0e:	0010      	movs	r0, r2
 8004b10:	0019      	movs	r1, r3
 8004b12:	250a      	movs	r5, #10
 8004b14:	197b      	adds	r3, r7, r5
 8004b16:	1c22      	adds	r2, r4, #0
 8004b18:	801a      	strh	r2, [r3, #0]
 8004b1a:	2608      	movs	r6, #8
 8004b1c:	19bb      	adds	r3, r7, r6
 8004b1e:	1c02      	adds	r2, r0, #0
 8004b20:	801a      	strh	r2, [r3, #0]
 8004b22:	1dbb      	adds	r3, r7, #6
 8004b24:	1c0a      	adds	r2, r1, #0
 8004b26:	801a      	strh	r2, [r3, #0]
	ILI9341_Draw_Vertical_Line(x-1, y, CHAR_HEIGHT*size, bgcolour);
 8004b28:	197b      	adds	r3, r7, r5
 8004b2a:	881b      	ldrh	r3, [r3, #0]
 8004b2c:	3b01      	subs	r3, #1
 8004b2e:	b298      	uxth	r0, r3
 8004b30:	2320      	movs	r3, #32
 8004b32:	2208      	movs	r2, #8
 8004b34:	4694      	mov	ip, r2
 8004b36:	44bc      	add	ip, r7
 8004b38:	4463      	add	r3, ip
 8004b3a:	881b      	ldrh	r3, [r3, #0]
 8004b3c:	00db      	lsls	r3, r3, #3
 8004b3e:	b29a      	uxth	r2, r3
 8004b40:	2124      	movs	r1, #36	; 0x24
 8004b42:	2308      	movs	r3, #8
 8004b44:	18fc      	adds	r4, r7, r3
 8004b46:	1863      	adds	r3, r4, r1
 8004b48:	881c      	ldrh	r4, [r3, #0]
 8004b4a:	19bb      	adds	r3, r7, r6
 8004b4c:	8819      	ldrh	r1, [r3, #0]
 8004b4e:	0023      	movs	r3, r4
 8004b50:	f000 f974 	bl	8004e3c <ILI9341_Draw_Vertical_Line>
    ILI9341_Draw_Vertical_Line(x-2, y, CHAR_HEIGHT*size, bgcolour);
 8004b54:	197b      	adds	r3, r7, r5
 8004b56:	881b      	ldrh	r3, [r3, #0]
 8004b58:	3b02      	subs	r3, #2
 8004b5a:	b298      	uxth	r0, r3
 8004b5c:	2320      	movs	r3, #32
 8004b5e:	2208      	movs	r2, #8
 8004b60:	4694      	mov	ip, r2
 8004b62:	44bc      	add	ip, r7
 8004b64:	4463      	add	r3, ip
 8004b66:	881b      	ldrh	r3, [r3, #0]
 8004b68:	00db      	lsls	r3, r3, #3
 8004b6a:	b29a      	uxth	r2, r3
 8004b6c:	2124      	movs	r1, #36	; 0x24
 8004b6e:	2308      	movs	r3, #8
 8004b70:	18fb      	adds	r3, r7, r3
 8004b72:	185b      	adds	r3, r3, r1
 8004b74:	881c      	ldrh	r4, [r3, #0]
 8004b76:	19bb      	adds	r3, r7, r6
 8004b78:	8819      	ldrh	r1, [r3, #0]
 8004b7a:	0023      	movs	r3, r4
 8004b7c:	f000 f95e 	bl	8004e3c <ILI9341_Draw_Vertical_Line>

    while (*Text) {
 8004b80:	e029      	b.n	8004bd6 <ILI9341_Draw_Text+0xd2>
        ILI9341_Draw_Char(*Text++, x, y, colour, size, bgcolour);
 8004b82:	68fb      	ldr	r3, [r7, #12]
 8004b84:	1c5a      	adds	r2, r3, #1
 8004b86:	60fa      	str	r2, [r7, #12]
 8004b88:	7818      	ldrb	r0, [r3, #0]
 8004b8a:	1dbb      	adds	r3, r7, #6
 8004b8c:	881c      	ldrh	r4, [r3, #0]
 8004b8e:	2308      	movs	r3, #8
 8004b90:	18fb      	adds	r3, r7, r3
 8004b92:	881a      	ldrh	r2, [r3, #0]
 8004b94:	250a      	movs	r5, #10
 8004b96:	197b      	adds	r3, r7, r5
 8004b98:	8819      	ldrh	r1, [r3, #0]
 8004b9a:	2324      	movs	r3, #36	; 0x24
 8004b9c:	2608      	movs	r6, #8
 8004b9e:	46b4      	mov	ip, r6
 8004ba0:	44bc      	add	ip, r7
 8004ba2:	4463      	add	r3, ip
 8004ba4:	881b      	ldrh	r3, [r3, #0]
 8004ba6:	9301      	str	r3, [sp, #4]
 8004ba8:	2620      	movs	r6, #32
 8004baa:	2308      	movs	r3, #8
 8004bac:	18fb      	adds	r3, r7, r3
 8004bae:	199b      	adds	r3, r3, r6
 8004bb0:	881b      	ldrh	r3, [r3, #0]
 8004bb2:	9300      	str	r3, [sp, #0]
 8004bb4:	0023      	movs	r3, r4
 8004bb6:	f7ff fe9d 	bl	80048f4 <ILI9341_Draw_Char>
        x += CHAR_WIDTH*size;
 8004bba:	2308      	movs	r3, #8
 8004bbc:	18fb      	adds	r3, r7, r3
 8004bbe:	199b      	adds	r3, r3, r6
 8004bc0:	881b      	ldrh	r3, [r3, #0]
 8004bc2:	1c1a      	adds	r2, r3, #0
 8004bc4:	1892      	adds	r2, r2, r2
 8004bc6:	18d3      	adds	r3, r2, r3
 8004bc8:	18db      	adds	r3, r3, r3
 8004bca:	b299      	uxth	r1, r3
 8004bcc:	197b      	adds	r3, r7, r5
 8004bce:	197a      	adds	r2, r7, r5
 8004bd0:	8812      	ldrh	r2, [r2, #0]
 8004bd2:	188a      	adds	r2, r1, r2
 8004bd4:	801a      	strh	r2, [r3, #0]
    while (*Text) {
 8004bd6:	68fb      	ldr	r3, [r7, #12]
 8004bd8:	781b      	ldrb	r3, [r3, #0]
 8004bda:	2b00      	cmp	r3, #0
 8004bdc:	d1d1      	bne.n	8004b82 <ILI9341_Draw_Text+0x7e>
    }


}
 8004bde:	46c0      	nop			; (mov r8, r8)
 8004be0:	46bd      	mov	sp, r7
 8004be2:	b005      	add	sp, #20
 8004be4:	bdf0      	pop	{r4, r5, r6, r7, pc}

08004be6 <ILI9341_Init>:
 *
 * Initialize LCD display
 *
 */
void ILI9341_Init(void)
{
 8004be6:	b580      	push	{r7, lr}
 8004be8:	af00      	add	r7, sp, #0

	_LCD_Enable();
 8004bea:	f000 fcc1 	bl	8005570 <_LCD_Enable>
	ILI9341_SPI_Init();
 8004bee:	f000 f909 	bl	8004e04 <ILI9341_SPI_Init>
	_LCD_Reset();
 8004bf2:	f000 fccb 	bl	800558c <_LCD_Reset>

	//SOFTWARE RESET
	_LCD_SendCommand(0x01);
 8004bf6:	2001      	movs	r0, #1
 8004bf8:	f000 fdc8 	bl	800578c <_LCD_SendCommand>
	HAL_Delay(2000);
 8004bfc:	23fa      	movs	r3, #250	; 0xfa
 8004bfe:	00db      	lsls	r3, r3, #3
 8004c00:	0018      	movs	r0, r3
 8004c02:	f7fd ff1d 	bl	8002a40 <HAL_Delay>

	//POWER CONTROL A
	_LCD_SendCommand(0xCB);
 8004c06:	20cb      	movs	r0, #203	; 0xcb
 8004c08:	f000 fdc0 	bl	800578c <_LCD_SendCommand>
	_LCD_SendData(0x39);
 8004c0c:	2039      	movs	r0, #57	; 0x39
 8004c0e:	f000 fdf3 	bl	80057f8 <_LCD_SendData>
	_LCD_SendData(0x2C);
 8004c12:	202c      	movs	r0, #44	; 0x2c
 8004c14:	f000 fdf0 	bl	80057f8 <_LCD_SendData>
	_LCD_SendData(0x00);
 8004c18:	2000      	movs	r0, #0
 8004c1a:	f000 fded 	bl	80057f8 <_LCD_SendData>
	_LCD_SendData(0x34);
 8004c1e:	2034      	movs	r0, #52	; 0x34
 8004c20:	f000 fdea 	bl	80057f8 <_LCD_SendData>
	_LCD_SendData(0x02);
 8004c24:	2002      	movs	r0, #2
 8004c26:	f000 fde7 	bl	80057f8 <_LCD_SendData>

	//POWER CONTROL B
	_LCD_SendCommand(0xCF);
 8004c2a:	20cf      	movs	r0, #207	; 0xcf
 8004c2c:	f000 fdae 	bl	800578c <_LCD_SendCommand>
	_LCD_SendData(0x00);
 8004c30:	2000      	movs	r0, #0
 8004c32:	f000 fde1 	bl	80057f8 <_LCD_SendData>
	_LCD_SendData(0xC1);
 8004c36:	20c1      	movs	r0, #193	; 0xc1
 8004c38:	f000 fdde 	bl	80057f8 <_LCD_SendData>
	_LCD_SendData(0x30);
 8004c3c:	2030      	movs	r0, #48	; 0x30
 8004c3e:	f000 fddb 	bl	80057f8 <_LCD_SendData>

	//DRIVER TIMING CONTROL A
	_LCD_SendCommand(0xE8);
 8004c42:	20e8      	movs	r0, #232	; 0xe8
 8004c44:	f000 fda2 	bl	800578c <_LCD_SendCommand>
	_LCD_SendData(0x85);
 8004c48:	2085      	movs	r0, #133	; 0x85
 8004c4a:	f000 fdd5 	bl	80057f8 <_LCD_SendData>
	_LCD_SendData(0x00);
 8004c4e:	2000      	movs	r0, #0
 8004c50:	f000 fdd2 	bl	80057f8 <_LCD_SendData>
	_LCD_SendData(0x78);
 8004c54:	2078      	movs	r0, #120	; 0x78
 8004c56:	f000 fdcf 	bl	80057f8 <_LCD_SendData>

	//DRIVER TIMING CONTROL B
	_LCD_SendCommand(0xEA);
 8004c5a:	20ea      	movs	r0, #234	; 0xea
 8004c5c:	f000 fd96 	bl	800578c <_LCD_SendCommand>
	_LCD_SendData(0x00);
 8004c60:	2000      	movs	r0, #0
 8004c62:	f000 fdc9 	bl	80057f8 <_LCD_SendData>
	_LCD_SendData(0x00);
 8004c66:	2000      	movs	r0, #0
 8004c68:	f000 fdc6 	bl	80057f8 <_LCD_SendData>

	//POWER ON SEQUENCE CONTROL
	_LCD_SendCommand(0xED);
 8004c6c:	20ed      	movs	r0, #237	; 0xed
 8004c6e:	f000 fd8d 	bl	800578c <_LCD_SendCommand>
	_LCD_SendData(0x64);
 8004c72:	2064      	movs	r0, #100	; 0x64
 8004c74:	f000 fdc0 	bl	80057f8 <_LCD_SendData>
	_LCD_SendData(0x03);
 8004c78:	2003      	movs	r0, #3
 8004c7a:	f000 fdbd 	bl	80057f8 <_LCD_SendData>
	_LCD_SendData(0x12);
 8004c7e:	2012      	movs	r0, #18
 8004c80:	f000 fdba 	bl	80057f8 <_LCD_SendData>
	_LCD_SendData(0x81);
 8004c84:	2081      	movs	r0, #129	; 0x81
 8004c86:	f000 fdb7 	bl	80057f8 <_LCD_SendData>

	//PUMP RATIO CONTROL
	_LCD_SendCommand(0xF7);
 8004c8a:	20f7      	movs	r0, #247	; 0xf7
 8004c8c:	f000 fd7e 	bl	800578c <_LCD_SendCommand>
	_LCD_SendData(0x20);
 8004c90:	2020      	movs	r0, #32
 8004c92:	f000 fdb1 	bl	80057f8 <_LCD_SendData>

	//POWER CONTROL,VRH[5:0]
	_LCD_SendCommand(0xC0);
 8004c96:	20c0      	movs	r0, #192	; 0xc0
 8004c98:	f000 fd78 	bl	800578c <_LCD_SendCommand>
	_LCD_SendData(0x23);
 8004c9c:	2023      	movs	r0, #35	; 0x23
 8004c9e:	f000 fdab 	bl	80057f8 <_LCD_SendData>

	//POWER CONTROL,SAP[2:0];BT[3:0]
	_LCD_SendCommand(0xC1);
 8004ca2:	20c1      	movs	r0, #193	; 0xc1
 8004ca4:	f000 fd72 	bl	800578c <_LCD_SendCommand>
	_LCD_SendData(0x10);
 8004ca8:	2010      	movs	r0, #16
 8004caa:	f000 fda5 	bl	80057f8 <_LCD_SendData>

	//VCM CONTROL
	_LCD_SendCommand(0xC5);
 8004cae:	20c5      	movs	r0, #197	; 0xc5
 8004cb0:	f000 fd6c 	bl	800578c <_LCD_SendCommand>
	_LCD_SendData(0x3E);
 8004cb4:	203e      	movs	r0, #62	; 0x3e
 8004cb6:	f000 fd9f 	bl	80057f8 <_LCD_SendData>
	_LCD_SendData(0x28);
 8004cba:	2028      	movs	r0, #40	; 0x28
 8004cbc:	f000 fd9c 	bl	80057f8 <_LCD_SendData>

	//VCM CONTROL 2
	_LCD_SendCommand(0xC7);
 8004cc0:	20c7      	movs	r0, #199	; 0xc7
 8004cc2:	f000 fd63 	bl	800578c <_LCD_SendCommand>
	_LCD_SendData(0x86);
 8004cc6:	2086      	movs	r0, #134	; 0x86
 8004cc8:	f000 fd96 	bl	80057f8 <_LCD_SendData>

	//MEMORY ACCESS CONTROL
	_LCD_SendCommand(0x36);
 8004ccc:	2036      	movs	r0, #54	; 0x36
 8004cce:	f000 fd5d 	bl	800578c <_LCD_SendCommand>
	_LCD_SendData(0x48);
 8004cd2:	2048      	movs	r0, #72	; 0x48
 8004cd4:	f000 fd90 	bl	80057f8 <_LCD_SendData>


	//PIXEL FORMAT
	_LCD_SendCommand(0x3A);
 8004cd8:	203a      	movs	r0, #58	; 0x3a
 8004cda:	f000 fd57 	bl	800578c <_LCD_SendCommand>
	_LCD_SendData(0x55);
 8004cde:	2055      	movs	r0, #85	; 0x55
 8004ce0:	f000 fd8a 	bl	80057f8 <_LCD_SendData>

	//FRAME RATIO CONTROL, STANDARD RGB COLOR
	_LCD_SendCommand(0xB1);
 8004ce4:	20b1      	movs	r0, #177	; 0xb1
 8004ce6:	f000 fd51 	bl	800578c <_LCD_SendCommand>
	_LCD_SendData(0x00);
 8004cea:	2000      	movs	r0, #0
 8004cec:	f000 fd84 	bl	80057f8 <_LCD_SendData>
	_LCD_SendData(0x18);
 8004cf0:	2018      	movs	r0, #24
 8004cf2:	f000 fd81 	bl	80057f8 <_LCD_SendData>

	//DISPLAY FUNCTION CONTROL
	_LCD_SendCommand(0xB6);
 8004cf6:	20b6      	movs	r0, #182	; 0xb6
 8004cf8:	f000 fd48 	bl	800578c <_LCD_SendCommand>
	_LCD_SendData(0x08);
 8004cfc:	2008      	movs	r0, #8
 8004cfe:	f000 fd7b 	bl	80057f8 <_LCD_SendData>
	_LCD_SendData(0x82);
 8004d02:	2082      	movs	r0, #130	; 0x82
 8004d04:	f000 fd78 	bl	80057f8 <_LCD_SendData>
	_LCD_SendData(0x27);
 8004d08:	2027      	movs	r0, #39	; 0x27
 8004d0a:	f000 fd75 	bl	80057f8 <_LCD_SendData>


	//3GAMMA FUNCTION DISABLE
	_LCD_SendCommand(0xF2);
 8004d0e:	20f2      	movs	r0, #242	; 0xf2
 8004d10:	f000 fd3c 	bl	800578c <_LCD_SendCommand>
	_LCD_SendData(0x00);
 8004d14:	2000      	movs	r0, #0
 8004d16:	f000 fd6f 	bl	80057f8 <_LCD_SendData>

	//GAMMA CURVE SELECTED
	_LCD_SendCommand(0x26);
 8004d1a:	2026      	movs	r0, #38	; 0x26
 8004d1c:	f000 fd36 	bl	800578c <_LCD_SendCommand>
	_LCD_SendData(0x01);
 8004d20:	2001      	movs	r0, #1
 8004d22:	f000 fd69 	bl	80057f8 <_LCD_SendData>

	//POSITIVE GAMMA CORRECTION
	_LCD_SendCommand(0xE0);
 8004d26:	20e0      	movs	r0, #224	; 0xe0
 8004d28:	f000 fd30 	bl	800578c <_LCD_SendCommand>
	_LCD_SendData(0x0F);
 8004d2c:	200f      	movs	r0, #15
 8004d2e:	f000 fd63 	bl	80057f8 <_LCD_SendData>
	_LCD_SendData(0x31);
 8004d32:	2031      	movs	r0, #49	; 0x31
 8004d34:	f000 fd60 	bl	80057f8 <_LCD_SendData>
	_LCD_SendData(0x2B);
 8004d38:	202b      	movs	r0, #43	; 0x2b
 8004d3a:	f000 fd5d 	bl	80057f8 <_LCD_SendData>
	_LCD_SendData(0x0C);
 8004d3e:	200c      	movs	r0, #12
 8004d40:	f000 fd5a 	bl	80057f8 <_LCD_SendData>
	_LCD_SendData(0x0E);
 8004d44:	200e      	movs	r0, #14
 8004d46:	f000 fd57 	bl	80057f8 <_LCD_SendData>
	_LCD_SendData(0x08);
 8004d4a:	2008      	movs	r0, #8
 8004d4c:	f000 fd54 	bl	80057f8 <_LCD_SendData>
	_LCD_SendData(0x4E);
 8004d50:	204e      	movs	r0, #78	; 0x4e
 8004d52:	f000 fd51 	bl	80057f8 <_LCD_SendData>
	_LCD_SendData(0xF1);
 8004d56:	20f1      	movs	r0, #241	; 0xf1
 8004d58:	f000 fd4e 	bl	80057f8 <_LCD_SendData>
	_LCD_SendData(0x37);
 8004d5c:	2037      	movs	r0, #55	; 0x37
 8004d5e:	f000 fd4b 	bl	80057f8 <_LCD_SendData>
	_LCD_SendData(0x07);
 8004d62:	2007      	movs	r0, #7
 8004d64:	f000 fd48 	bl	80057f8 <_LCD_SendData>
	_LCD_SendData(0x10);
 8004d68:	2010      	movs	r0, #16
 8004d6a:	f000 fd45 	bl	80057f8 <_LCD_SendData>
	_LCD_SendData(0x03);
 8004d6e:	2003      	movs	r0, #3
 8004d70:	f000 fd42 	bl	80057f8 <_LCD_SendData>
	_LCD_SendData(0x0E);
 8004d74:	200e      	movs	r0, #14
 8004d76:	f000 fd3f 	bl	80057f8 <_LCD_SendData>
	_LCD_SendData(0x09);
 8004d7a:	2009      	movs	r0, #9
 8004d7c:	f000 fd3c 	bl	80057f8 <_LCD_SendData>
	_LCD_SendData(0x00);
 8004d80:	2000      	movs	r0, #0
 8004d82:	f000 fd39 	bl	80057f8 <_LCD_SendData>

	//NEGATIVE GAMMA CORRECTION
	_LCD_SendCommand(0xE1);
 8004d86:	20e1      	movs	r0, #225	; 0xe1
 8004d88:	f000 fd00 	bl	800578c <_LCD_SendCommand>
	_LCD_SendData(0x00);
 8004d8c:	2000      	movs	r0, #0
 8004d8e:	f000 fd33 	bl	80057f8 <_LCD_SendData>
	_LCD_SendData(0x0E);
 8004d92:	200e      	movs	r0, #14
 8004d94:	f000 fd30 	bl	80057f8 <_LCD_SendData>
	_LCD_SendData(0x14);
 8004d98:	2014      	movs	r0, #20
 8004d9a:	f000 fd2d 	bl	80057f8 <_LCD_SendData>
	_LCD_SendData(0x03);
 8004d9e:	2003      	movs	r0, #3
 8004da0:	f000 fd2a 	bl	80057f8 <_LCD_SendData>
	_LCD_SendData(0x11);
 8004da4:	2011      	movs	r0, #17
 8004da6:	f000 fd27 	bl	80057f8 <_LCD_SendData>
	_LCD_SendData(0x07);
 8004daa:	2007      	movs	r0, #7
 8004dac:	f000 fd24 	bl	80057f8 <_LCD_SendData>
	_LCD_SendData(0x31);
 8004db0:	2031      	movs	r0, #49	; 0x31
 8004db2:	f000 fd21 	bl	80057f8 <_LCD_SendData>
	_LCD_SendData(0xC1);
 8004db6:	20c1      	movs	r0, #193	; 0xc1
 8004db8:	f000 fd1e 	bl	80057f8 <_LCD_SendData>
	_LCD_SendData(0x48);
 8004dbc:	2048      	movs	r0, #72	; 0x48
 8004dbe:	f000 fd1b 	bl	80057f8 <_LCD_SendData>
	_LCD_SendData(0x08);
 8004dc2:	2008      	movs	r0, #8
 8004dc4:	f000 fd18 	bl	80057f8 <_LCD_SendData>
	_LCD_SendData(0x0F);
 8004dc8:	200f      	movs	r0, #15
 8004dca:	f000 fd15 	bl	80057f8 <_LCD_SendData>
	_LCD_SendData(0x0C);
 8004dce:	200c      	movs	r0, #12
 8004dd0:	f000 fd12 	bl	80057f8 <_LCD_SendData>
	_LCD_SendData(0x31);
 8004dd4:	2031      	movs	r0, #49	; 0x31
 8004dd6:	f000 fd0f 	bl	80057f8 <_LCD_SendData>
	_LCD_SendData(0x36);
 8004dda:	2036      	movs	r0, #54	; 0x36
 8004ddc:	f000 fd0c 	bl	80057f8 <_LCD_SendData>
	_LCD_SendData(0x0F);
 8004de0:	200f      	movs	r0, #15
 8004de2:	f000 fd09 	bl	80057f8 <_LCD_SendData>

	//EXIT SLEEP
	_LCD_SendCommand(0x11);
 8004de6:	2011      	movs	r0, #17
 8004de8:	f000 fcd0 	bl	800578c <_LCD_SendCommand>
	HAL_Delay(240);
 8004dec:	20f0      	movs	r0, #240	; 0xf0
 8004dee:	f7fd fe27 	bl	8002a40 <HAL_Delay>

	//TURN ON DISPLAY
	_LCD_SendCommand(0x29);
 8004df2:	2029      	movs	r0, #41	; 0x29
 8004df4:	f000 fcca 	bl	800578c <_LCD_SendCommand>

	//STARTING ROTATION
	ILI9341_Set_Rotation(SCREEN_VERTICAL_1);
 8004df8:	2000      	movs	r0, #0
 8004dfa:	f000 fb69 	bl	80054d0 <ILI9341_Set_Rotation>
}
 8004dfe:	46c0      	nop			; (mov r8, r8)
 8004e00:	46bd      	mov	sp, r7
 8004e02:	bd80      	pop	{r7, pc}

08004e04 <ILI9341_SPI_Init>:
 *
 * 	Initialise SPI peripheral
 *
 */
void ILI9341_SPI_Init(void)
{
 8004e04:	b580      	push	{r7, lr}
 8004e06:	af00      	add	r7, sp, #0

   	// check SPI enabled
	if ((SPI_PERIPH->CR1 & SPI_CR1_SPE) != SPI_CR1_SPE)
 8004e08:	4b0a      	ldr	r3, [pc, #40]	; (8004e34 <ILI9341_SPI_Init+0x30>)
 8004e0a:	681b      	ldr	r3, [r3, #0]
 8004e0c:	2240      	movs	r2, #64	; 0x40
 8004e0e:	4013      	ands	r3, r2
 8004e10:	2b40      	cmp	r3, #64	; 0x40
 8004e12:	d005      	beq.n	8004e20 <ILI9341_SPI_Init+0x1c>
	{
		SPI_PERIPH->CR1 |= SPI_CR1_SPE;
 8004e14:	4b07      	ldr	r3, [pc, #28]	; (8004e34 <ILI9341_SPI_Init+0x30>)
 8004e16:	681a      	ldr	r2, [r3, #0]
 8004e18:	4b06      	ldr	r3, [pc, #24]	; (8004e34 <ILI9341_SPI_Init+0x30>)
 8004e1a:	2140      	movs	r1, #64	; 0x40
 8004e1c:	430a      	orrs	r2, r1
 8004e1e:	601a      	str	r2, [r3, #0]
	}

	LCD_CS_PORT->ODR &= ~(LCD_CS_PIN);
 8004e20:	4b05      	ldr	r3, [pc, #20]	; (8004e38 <ILI9341_SPI_Init+0x34>)
 8004e22:	695a      	ldr	r2, [r3, #20]
 8004e24:	4b04      	ldr	r3, [pc, #16]	; (8004e38 <ILI9341_SPI_Init+0x34>)
 8004e26:	2110      	movs	r1, #16
 8004e28:	438a      	bics	r2, r1
 8004e2a:	615a      	str	r2, [r3, #20]
}
 8004e2c:	46c0      	nop			; (mov r8, r8)
 8004e2e:	46bd      	mov	sp, r7
 8004e30:	bd80      	pop	{r7, pc}
 8004e32:	46c0      	nop			; (mov r8, r8)
 8004e34:	40013000 	.word	0x40013000
 8004e38:	48000800 	.word	0x48000800

08004e3c <ILI9341_Draw_Vertical_Line>:
 *
 *  Draw vertical line
 *
 */
void ILI9341_Draw_Vertical_Line(uint16_t xpos, uint16_t ypos, uint16_t height, uint16_t colour)
{
 8004e3c:	b5b0      	push	{r4, r5, r7, lr}
 8004e3e:	b086      	sub	sp, #24
 8004e40:	af02      	add	r7, sp, #8
 8004e42:	0005      	movs	r5, r0
 8004e44:	000c      	movs	r4, r1
 8004e46:	0010      	movs	r0, r2
 8004e48:	0019      	movs	r1, r3
 8004e4a:	1dbb      	adds	r3, r7, #6
 8004e4c:	1c2a      	adds	r2, r5, #0
 8004e4e:	801a      	strh	r2, [r3, #0]
 8004e50:	1d3b      	adds	r3, r7, #4
 8004e52:	1c22      	adds	r2, r4, #0
 8004e54:	801a      	strh	r2, [r3, #0]
 8004e56:	1cbb      	adds	r3, r7, #2
 8004e58:	1c02      	adds	r2, r0, #0
 8004e5a:	801a      	strh	r2, [r3, #0]
 8004e5c:	003b      	movs	r3, r7
 8004e5e:	1c0a      	adds	r2, r1, #0
 8004e60:	801a      	strh	r2, [r3, #0]
	if((xpos >= LCD_WIDTH) || (ypos >= LCD_HEIGHT)) return;
 8004e62:	4b37      	ldr	r3, [pc, #220]	; (8004f40 <ILI9341_Draw_Vertical_Line+0x104>)
 8004e64:	881b      	ldrh	r3, [r3, #0]
 8004e66:	b29b      	uxth	r3, r3
 8004e68:	1dba      	adds	r2, r7, #6
 8004e6a:	8812      	ldrh	r2, [r2, #0]
 8004e6c:	429a      	cmp	r2, r3
 8004e6e:	d300      	bcc.n	8004e72 <ILI9341_Draw_Vertical_Line+0x36>
 8004e70:	e062      	b.n	8004f38 <ILI9341_Draw_Vertical_Line+0xfc>
 8004e72:	4b34      	ldr	r3, [pc, #208]	; (8004f44 <ILI9341_Draw_Vertical_Line+0x108>)
 8004e74:	881b      	ldrh	r3, [r3, #0]
 8004e76:	b29b      	uxth	r3, r3
 8004e78:	1d3a      	adds	r2, r7, #4
 8004e7a:	8812      	ldrh	r2, [r2, #0]
 8004e7c:	429a      	cmp	r2, r3
 8004e7e:	d25b      	bcs.n	8004f38 <ILI9341_Draw_Vertical_Line+0xfc>
	if(((ypos + height) - 1) >= LCD_HEIGHT)
 8004e80:	1d3b      	adds	r3, r7, #4
 8004e82:	881a      	ldrh	r2, [r3, #0]
 8004e84:	1cbb      	adds	r3, r7, #2
 8004e86:	881b      	ldrh	r3, [r3, #0]
 8004e88:	18d3      	adds	r3, r2, r3
 8004e8a:	3b01      	subs	r3, #1
 8004e8c:	4a2d      	ldr	r2, [pc, #180]	; (8004f44 <ILI9341_Draw_Vertical_Line+0x108>)
 8004e8e:	8812      	ldrh	r2, [r2, #0]
 8004e90:	b292      	uxth	r2, r2
 8004e92:	4293      	cmp	r3, r2
 8004e94:	db07      	blt.n	8004ea6 <ILI9341_Draw_Vertical_Line+0x6a>
	{
		height= LCD_HEIGHT - ypos;
 8004e96:	4b2b      	ldr	r3, [pc, #172]	; (8004f44 <ILI9341_Draw_Vertical_Line+0x108>)
 8004e98:	881b      	ldrh	r3, [r3, #0]
 8004e9a:	b299      	uxth	r1, r3
 8004e9c:	1cbb      	adds	r3, r7, #2
 8004e9e:	1d3a      	adds	r2, r7, #4
 8004ea0:	8812      	ldrh	r2, [r2, #0]
 8004ea2:	1a8a      	subs	r2, r1, r2
 8004ea4:	801a      	strh	r2, [r3, #0]
	}

	ILI9341_Set_Frame(xpos, ypos, xpos, (ypos + height) - 1);
 8004ea6:	1d3a      	adds	r2, r7, #4
 8004ea8:	1cbb      	adds	r3, r7, #2
 8004eaa:	8812      	ldrh	r2, [r2, #0]
 8004eac:	881b      	ldrh	r3, [r3, #0]
 8004eae:	18d3      	adds	r3, r2, r3
 8004eb0:	b29b      	uxth	r3, r3
 8004eb2:	3b01      	subs	r3, #1
 8004eb4:	b29c      	uxth	r4, r3
 8004eb6:	1dbb      	adds	r3, r7, #6
 8004eb8:	881a      	ldrh	r2, [r3, #0]
 8004eba:	1d3b      	adds	r3, r7, #4
 8004ebc:	8819      	ldrh	r1, [r3, #0]
 8004ebe:	1dbb      	adds	r3, r7, #6
 8004ec0:	8818      	ldrh	r0, [r3, #0]
 8004ec2:	0023      	movs	r3, r4
 8004ec4:	f000 f840 	bl	8004f48 <ILI9341_Set_Frame>

	uint8_t truncated = 0;
 8004ec8:	230f      	movs	r3, #15
 8004eca:	18fb      	adds	r3, r7, r3
 8004ecc:	2200      	movs	r2, #0
 8004ece:	701a      	strb	r2, [r3, #0]

	if((height & 1) && (height > 1))		// don't round down to zero!
 8004ed0:	1cbb      	adds	r3, r7, #2
 8004ed2:	881b      	ldrh	r3, [r3, #0]
 8004ed4:	2201      	movs	r2, #1
 8004ed6:	4013      	ands	r3, r2
 8004ed8:	d00e      	beq.n	8004ef8 <ILI9341_Draw_Vertical_Line+0xbc>
 8004eda:	1cbb      	adds	r3, r7, #2
 8004edc:	881b      	ldrh	r3, [r3, #0]
 8004ede:	2b01      	cmp	r3, #1
 8004ee0:	d90a      	bls.n	8004ef8 <ILI9341_Draw_Vertical_Line+0xbc>
	{
		truncated = 1;
 8004ee2:	230f      	movs	r3, #15
 8004ee4:	18fb      	adds	r3, r7, r3
 8004ee6:	2201      	movs	r2, #1
 8004ee8:	701a      	strb	r2, [r3, #0]
		height = ((height >> 1) * 2);
 8004eea:	1cbb      	adds	r3, r7, #2
 8004eec:	881b      	ldrh	r3, [r3, #0]
 8004eee:	085b      	lsrs	r3, r3, #1
 8004ef0:	b29b      	uxth	r3, r3
 8004ef2:	1cba      	adds	r2, r7, #2
 8004ef4:	18db      	adds	r3, r3, r3
 8004ef6:	8013      	strh	r3, [r2, #0]
//TODO


	//

	if(truncated)
 8004ef8:	230f      	movs	r3, #15
 8004efa:	18fb      	adds	r3, r7, r3
 8004efc:	781b      	ldrb	r3, [r3, #0]
 8004efe:	2b00      	cmp	r3, #0
 8004f00:	d00c      	beq.n	8004f1c <ILI9341_Draw_Vertical_Line+0xe0>
	{
		ILI9341_Draw_Pixel(	(xpos),
 8004f02:	1d3a      	adds	r2, r7, #4
 8004f04:	1cbb      	adds	r3, r7, #2
 8004f06:	8812      	ldrh	r2, [r2, #0]
 8004f08:	881b      	ldrh	r3, [r3, #0]
 8004f0a:	18d3      	adds	r3, r2, r3
 8004f0c:	b299      	uxth	r1, r3
 8004f0e:	003b      	movs	r3, r7
 8004f10:	881a      	ldrh	r2, [r3, #0]
 8004f12:	1dbb      	adds	r3, r7, #6
 8004f14:	881b      	ldrh	r3, [r3, #0]
 8004f16:	0018      	movs	r0, r3
 8004f18:	f000 f898 	bl	800504c <ILI9341_Draw_Pixel>
							(ypos + height),
							colour);
	}

	_LCD_Write_Frame(xpos, ypos, colour, height, LINE_CHUNK);
 8004f1c:	1cbb      	adds	r3, r7, #2
 8004f1e:	881c      	ldrh	r4, [r3, #0]
 8004f20:	003b      	movs	r3, r7
 8004f22:	881a      	ldrh	r2, [r3, #0]
 8004f24:	1d3b      	adds	r3, r7, #4
 8004f26:	8819      	ldrh	r1, [r3, #0]
 8004f28:	1dbb      	adds	r3, r7, #6
 8004f2a:	8818      	ldrh	r0, [r3, #0]
 8004f2c:	2303      	movs	r3, #3
 8004f2e:	9300      	str	r3, [sp, #0]
 8004f30:	0023      	movs	r3, r4
 8004f32:	f000 fb4b 	bl	80055cc <_LCD_Write_Frame>
 8004f36:	e000      	b.n	8004f3a <ILI9341_Draw_Vertical_Line+0xfe>
	if((xpos >= LCD_WIDTH) || (ypos >= LCD_HEIGHT)) return;
 8004f38:	46c0      	nop			; (mov r8, r8)
}
 8004f3a:	46bd      	mov	sp, r7
 8004f3c:	b004      	add	sp, #16
 8004f3e:	bdb0      	pop	{r4, r5, r7, pc}
 8004f40:	2000000c 	.word	0x2000000c
 8004f44:	2000000a 	.word	0x2000000a

08004f48 <ILI9341_Set_Frame>:
 *	bottom right of area (ec, ep):
 *	ec 	- 	"end column"
 *	ep	- 	"end page"
 */
void ILI9341_Set_Frame(uint16_t sc, uint16_t sp, uint16_t ec, uint16_t ep)
{
 8004f48:	b5b0      	push	{r4, r5, r7, lr}
 8004f4a:	b082      	sub	sp, #8
 8004f4c:	af00      	add	r7, sp, #0
 8004f4e:	0005      	movs	r5, r0
 8004f50:	000c      	movs	r4, r1
 8004f52:	0010      	movs	r0, r2
 8004f54:	0019      	movs	r1, r3
 8004f56:	1dbb      	adds	r3, r7, #6
 8004f58:	1c2a      	adds	r2, r5, #0
 8004f5a:	801a      	strh	r2, [r3, #0]
 8004f5c:	1d3b      	adds	r3, r7, #4
 8004f5e:	1c22      	adds	r2, r4, #0
 8004f60:	801a      	strh	r2, [r3, #0]
 8004f62:	1cbb      	adds	r3, r7, #2
 8004f64:	1c02      	adds	r2, r0, #0
 8004f66:	801a      	strh	r2, [r3, #0]
 8004f68:	003b      	movs	r3, r7
 8004f6a:	1c0a      	adds	r2, r1, #0
 8004f6c:	801a      	strh	r2, [r3, #0]
	// send "Column Address Set" command
	_LCD_SendCommand(0x2A);
 8004f6e:	202a      	movs	r0, #42	; 0x2a
 8004f70:	f000 fc0c 	bl	800578c <_LCD_SendCommand>
	_LCD_SendData(sc >> 8);
 8004f74:	1dbb      	adds	r3, r7, #6
 8004f76:	881b      	ldrh	r3, [r3, #0]
 8004f78:	0a1b      	lsrs	r3, r3, #8
 8004f7a:	b29b      	uxth	r3, r3
 8004f7c:	b2db      	uxtb	r3, r3
 8004f7e:	0018      	movs	r0, r3
 8004f80:	f000 fc3a 	bl	80057f8 <_LCD_SendData>
	_LCD_SendData(sc);
 8004f84:	1dbb      	adds	r3, r7, #6
 8004f86:	881b      	ldrh	r3, [r3, #0]
 8004f88:	b2db      	uxtb	r3, r3
 8004f8a:	0018      	movs	r0, r3
 8004f8c:	f000 fc34 	bl	80057f8 <_LCD_SendData>
	_LCD_SendData(ec >> 8);
 8004f90:	1cbb      	adds	r3, r7, #2
 8004f92:	881b      	ldrh	r3, [r3, #0]
 8004f94:	0a1b      	lsrs	r3, r3, #8
 8004f96:	b29b      	uxth	r3, r3
 8004f98:	b2db      	uxtb	r3, r3
 8004f9a:	0018      	movs	r0, r3
 8004f9c:	f000 fc2c 	bl	80057f8 <_LCD_SendData>
	_LCD_SendData(ec);
 8004fa0:	1cbb      	adds	r3, r7, #2
 8004fa2:	881b      	ldrh	r3, [r3, #0]
 8004fa4:	b2db      	uxtb	r3, r3
 8004fa6:	0018      	movs	r0, r3
 8004fa8:	f000 fc26 	bl	80057f8 <_LCD_SendData>

	// send "Page Address Set" command
	_LCD_SendCommand(0x2B);
 8004fac:	202b      	movs	r0, #43	; 0x2b
 8004fae:	f000 fbed 	bl	800578c <_LCD_SendCommand>
	_LCD_SendData(sp >> 8);
 8004fb2:	1d3b      	adds	r3, r7, #4
 8004fb4:	881b      	ldrh	r3, [r3, #0]
 8004fb6:	0a1b      	lsrs	r3, r3, #8
 8004fb8:	b29b      	uxth	r3, r3
 8004fba:	b2db      	uxtb	r3, r3
 8004fbc:	0018      	movs	r0, r3
 8004fbe:	f000 fc1b 	bl	80057f8 <_LCD_SendData>
	_LCD_SendData(sp);
 8004fc2:	1d3b      	adds	r3, r7, #4
 8004fc4:	881b      	ldrh	r3, [r3, #0]
 8004fc6:	b2db      	uxtb	r3, r3
 8004fc8:	0018      	movs	r0, r3
 8004fca:	f000 fc15 	bl	80057f8 <_LCD_SendData>
	_LCD_SendData(ep >> 8);
 8004fce:	003b      	movs	r3, r7
 8004fd0:	881b      	ldrh	r3, [r3, #0]
 8004fd2:	0a1b      	lsrs	r3, r3, #8
 8004fd4:	b29b      	uxth	r3, r3
 8004fd6:	b2db      	uxtb	r3, r3
 8004fd8:	0018      	movs	r0, r3
 8004fda:	f000 fc0d 	bl	80057f8 <_LCD_SendData>
	_LCD_SendData(ep);
 8004fde:	003b      	movs	r3, r7
 8004fe0:	881b      	ldrh	r3, [r3, #0]
 8004fe2:	b2db      	uxtb	r3, r3
 8004fe4:	0018      	movs	r0, r3
 8004fe6:	f000 fc07 	bl	80057f8 <_LCD_SendData>

	_LCD_SendCommand(0x2C);
 8004fea:	202c      	movs	r0, #44	; 0x2c
 8004fec:	f000 fbce 	bl	800578c <_LCD_SendCommand>
}
 8004ff0:	46c0      	nop			; (mov r8, r8)
 8004ff2:	46bd      	mov	sp, r7
 8004ff4:	b002      	add	sp, #8
 8004ff6:	bdb0      	pop	{r4, r5, r7, pc}

08004ff8 <ILI9341_Fill_Screen>:
 *
 * 	Sets address (entire screen) and Sends height*width ammount of colour information to LCD
 *
 */
void ILI9341_Fill_Screen(uint16_t colour)
{
 8004ff8:	b580      	push	{r7, lr}
 8004ffa:	b084      	sub	sp, #16
 8004ffc:	af02      	add	r7, sp, #8
 8004ffe:	0002      	movs	r2, r0
 8005000:	1dbb      	adds	r3, r7, #6
 8005002:	801a      	strh	r2, [r3, #0]
	ILI9341_Set_Frame(0,0,LCD_WIDTH,LCD_HEIGHT);
 8005004:	4b0f      	ldr	r3, [pc, #60]	; (8005044 <ILI9341_Fill_Screen+0x4c>)
 8005006:	881b      	ldrh	r3, [r3, #0]
 8005008:	b29a      	uxth	r2, r3
 800500a:	4b0f      	ldr	r3, [pc, #60]	; (8005048 <ILI9341_Fill_Screen+0x50>)
 800500c:	881b      	ldrh	r3, [r3, #0]
 800500e:	b29b      	uxth	r3, r3
 8005010:	2100      	movs	r1, #0
 8005012:	2000      	movs	r0, #0
 8005014:	f7ff ff98 	bl	8004f48 <ILI9341_Set_Frame>
	_LCD_Write_Frame(0, 0, colour, LCD_WIDTH*LCD_HEIGHT, AREA_CHUNK);
 8005018:	4b0a      	ldr	r3, [pc, #40]	; (8005044 <ILI9341_Fill_Screen+0x4c>)
 800501a:	881b      	ldrh	r3, [r3, #0]
 800501c:	b29b      	uxth	r3, r3
 800501e:	001a      	movs	r2, r3
 8005020:	4b09      	ldr	r3, [pc, #36]	; (8005048 <ILI9341_Fill_Screen+0x50>)
 8005022:	881b      	ldrh	r3, [r3, #0]
 8005024:	b29b      	uxth	r3, r3
 8005026:	4353      	muls	r3, r2
 8005028:	0019      	movs	r1, r3
 800502a:	1dbb      	adds	r3, r7, #6
 800502c:	881a      	ldrh	r2, [r3, #0]
 800502e:	2304      	movs	r3, #4
 8005030:	9300      	str	r3, [sp, #0]
 8005032:	000b      	movs	r3, r1
 8005034:	2100      	movs	r1, #0
 8005036:	2000      	movs	r0, #0
 8005038:	f000 fac8 	bl	80055cc <_LCD_Write_Frame>
}
 800503c:	46c0      	nop			; (mov r8, r8)
 800503e:	46bd      	mov	sp, r7
 8005040:	b002      	add	sp, #8
 8005042:	bd80      	pop	{r7, pc}
 8005044:	2000000c 	.word	0x2000000c
 8005048:	2000000a 	.word	0x2000000a

0800504c <ILI9341_Draw_Pixel>:
 * 	Using pixels to draw big simple structures is not recommended as it is really slow
 * 	Try using either rectangles or lines if possible
 *
 */
void ILI9341_Draw_Pixel(uint16_t x,uint16_t y,uint16_t colour)
{
 800504c:	b590      	push	{r4, r7, lr}
 800504e:	b08f      	sub	sp, #60	; 0x3c
 8005050:	af00      	add	r7, sp, #0
 8005052:	0004      	movs	r4, r0
 8005054:	0008      	movs	r0, r1
 8005056:	0011      	movs	r1, r2
 8005058:	1dbb      	adds	r3, r7, #6
 800505a:	1c22      	adds	r2, r4, #0
 800505c:	801a      	strh	r2, [r3, #0]
 800505e:	1d3b      	adds	r3, r7, #4
 8005060:	1c02      	adds	r2, r0, #0
 8005062:	801a      	strh	r2, [r3, #0]
 8005064:	1cbb      	adds	r3, r7, #2
 8005066:	1c0a      	adds	r2, r1, #0
 8005068:	801a      	strh	r2, [r3, #0]
	if((x >= LCD_WIDTH) || (y >= LCD_HEIGHT)) return;	//OUT OF BOUNDS!
 800506a:	4bae      	ldr	r3, [pc, #696]	; (8005324 <ILI9341_Draw_Pixel+0x2d8>)
 800506c:	881b      	ldrh	r3, [r3, #0]
 800506e:	b29b      	uxth	r3, r3
 8005070:	1dba      	adds	r2, r7, #6
 8005072:	8812      	ldrh	r2, [r2, #0]
 8005074:	429a      	cmp	r2, r3
 8005076:	d300      	bcc.n	800507a <ILI9341_Draw_Pixel+0x2e>
 8005078:	e150      	b.n	800531c <ILI9341_Draw_Pixel+0x2d0>
 800507a:	4bab      	ldr	r3, [pc, #684]	; (8005328 <ILI9341_Draw_Pixel+0x2dc>)
 800507c:	881b      	ldrh	r3, [r3, #0]
 800507e:	b29b      	uxth	r3, r3
 8005080:	1d3a      	adds	r2, r7, #4
 8005082:	8812      	ldrh	r2, [r2, #0]
 8005084:	429a      	cmp	r2, r3
 8005086:	d300      	bcc.n	800508a <ILI9341_Draw_Pixel+0x3e>
 8005088:	e148      	b.n	800531c <ILI9341_Draw_Pixel+0x2d0>

	//ADDRESS
	LCD_DC_PORT->ODR &= ~(LCD_DC_PIN);
 800508a:	4ba8      	ldr	r3, [pc, #672]	; (800532c <ILI9341_Draw_Pixel+0x2e0>)
 800508c:	695a      	ldr	r2, [r3, #20]
 800508e:	4ba7      	ldr	r3, [pc, #668]	; (800532c <ILI9341_Draw_Pixel+0x2e0>)
 8005090:	2101      	movs	r1, #1
 8005092:	438a      	bics	r2, r1
 8005094:	615a      	str	r2, [r3, #20]
	LCD_CS_PORT->ODR &= ~(LCD_CS_PIN);
 8005096:	4ba6      	ldr	r3, [pc, #664]	; (8005330 <ILI9341_Draw_Pixel+0x2e4>)
 8005098:	695a      	ldr	r2, [r3, #20]
 800509a:	4ba5      	ldr	r3, [pc, #660]	; (8005330 <ILI9341_Draw_Pixel+0x2e4>)
 800509c:	2110      	movs	r1, #16
 800509e:	438a      	bics	r2, r1
 80050a0:	615a      	str	r2, [r3, #20]
	_SPI_SendByte(0x2A, 0, 10);
 80050a2:	220a      	movs	r2, #10
 80050a4:	2100      	movs	r1, #0
 80050a6:	202a      	movs	r0, #42	; 0x2a
 80050a8:	f000 fbdc 	bl	8005864 <_SPI_SendByte>
	for(int s=0; s < SPI_DELAY_HOLD; s++) LCD_CS_PORT->ODR &= ~(LCD_CS_PIN);
 80050ac:	2300      	movs	r3, #0
 80050ae:	637b      	str	r3, [r7, #52]	; 0x34
 80050b0:	e008      	b.n	80050c4 <ILI9341_Draw_Pixel+0x78>
 80050b2:	4b9f      	ldr	r3, [pc, #636]	; (8005330 <ILI9341_Draw_Pixel+0x2e4>)
 80050b4:	695a      	ldr	r2, [r3, #20]
 80050b6:	4b9e      	ldr	r3, [pc, #632]	; (8005330 <ILI9341_Draw_Pixel+0x2e4>)
 80050b8:	2110      	movs	r1, #16
 80050ba:	438a      	bics	r2, r1
 80050bc:	615a      	str	r2, [r3, #20]
 80050be:	6b7b      	ldr	r3, [r7, #52]	; 0x34
 80050c0:	3301      	adds	r3, #1
 80050c2:	637b      	str	r3, [r7, #52]	; 0x34
 80050c4:	6b7b      	ldr	r3, [r7, #52]	; 0x34
 80050c6:	2b02      	cmp	r3, #2
 80050c8:	ddf3      	ble.n	80050b2 <ILI9341_Draw_Pixel+0x66>
	LCD_DC_PORT->ODR |= LCD_DC_PIN;
 80050ca:	4b98      	ldr	r3, [pc, #608]	; (800532c <ILI9341_Draw_Pixel+0x2e0>)
 80050cc:	695a      	ldr	r2, [r3, #20]
 80050ce:	4b97      	ldr	r3, [pc, #604]	; (800532c <ILI9341_Draw_Pixel+0x2e0>)
 80050d0:	2101      	movs	r1, #1
 80050d2:	430a      	orrs	r2, r1
 80050d4:	615a      	str	r2, [r3, #20]
	LCD_CS_PORT->ODR |= LCD_CS_PIN;
 80050d6:	4b96      	ldr	r3, [pc, #600]	; (8005330 <ILI9341_Draw_Pixel+0x2e4>)
 80050d8:	695a      	ldr	r2, [r3, #20]
 80050da:	4b95      	ldr	r3, [pc, #596]	; (8005330 <ILI9341_Draw_Pixel+0x2e4>)
 80050dc:	2110      	movs	r1, #16
 80050de:	430a      	orrs	r2, r1
 80050e0:	615a      	str	r2, [r3, #20]

	//XDATA
	LCD_CS_PORT->ODR &= ~(LCD_CS_PIN);
 80050e2:	4b93      	ldr	r3, [pc, #588]	; (8005330 <ILI9341_Draw_Pixel+0x2e4>)
 80050e4:	695a      	ldr	r2, [r3, #20]
 80050e6:	4b92      	ldr	r3, [pc, #584]	; (8005330 <ILI9341_Draw_Pixel+0x2e4>)
 80050e8:	2110      	movs	r1, #16
 80050ea:	438a      	bics	r2, r1
 80050ec:	615a      	str	r2, [r3, #20]
	unsigned char Temp_Buffer[4] = { x >> 8, x, (x + 1) >> 8, (x + 1) };
 80050ee:	1dbb      	adds	r3, r7, #6
 80050f0:	881b      	ldrh	r3, [r3, #0]
 80050f2:	0a1b      	lsrs	r3, r3, #8
 80050f4:	b29b      	uxth	r3, r3
 80050f6:	b2da      	uxtb	r2, r3
 80050f8:	2114      	movs	r1, #20
 80050fa:	187b      	adds	r3, r7, r1
 80050fc:	701a      	strb	r2, [r3, #0]
 80050fe:	1dbb      	adds	r3, r7, #6
 8005100:	881b      	ldrh	r3, [r3, #0]
 8005102:	b2da      	uxtb	r2, r3
 8005104:	187b      	adds	r3, r7, r1
 8005106:	705a      	strb	r2, [r3, #1]
 8005108:	1dbb      	adds	r3, r7, #6
 800510a:	881b      	ldrh	r3, [r3, #0]
 800510c:	3301      	adds	r3, #1
 800510e:	121b      	asrs	r3, r3, #8
 8005110:	b2da      	uxtb	r2, r3
 8005112:	187b      	adds	r3, r7, r1
 8005114:	709a      	strb	r2, [r3, #2]
 8005116:	1dbb      	adds	r3, r7, #6
 8005118:	881b      	ldrh	r3, [r3, #0]
 800511a:	b2db      	uxtb	r3, r3
 800511c:	3301      	adds	r3, #1
 800511e:	b2da      	uxtb	r2, r3
 8005120:	187b      	adds	r3, r7, r1
 8005122:	70da      	strb	r2, [r3, #3]
	_SPI_SendByteMultiByte(Temp_Buffer, 4, 0, 10);
 8005124:	1878      	adds	r0, r7, r1
 8005126:	230a      	movs	r3, #10
 8005128:	2200      	movs	r2, #0
 800512a:	2104      	movs	r1, #4
 800512c:	f000 fbd4 	bl	80058d8 <_SPI_SendByteMultiByte>
	//HAL_SPI_Transmit(HSPI_INSTANCE, Temp_Buffer, 4, 1 );
	for(int s=0; s < SPI_DELAY_HOLD; s++) LCD_CS_PORT->ODR &= ~(LCD_CS_PIN);
 8005130:	2300      	movs	r3, #0
 8005132:	633b      	str	r3, [r7, #48]	; 0x30
 8005134:	e008      	b.n	8005148 <ILI9341_Draw_Pixel+0xfc>
 8005136:	4b7e      	ldr	r3, [pc, #504]	; (8005330 <ILI9341_Draw_Pixel+0x2e4>)
 8005138:	695a      	ldr	r2, [r3, #20]
 800513a:	4b7d      	ldr	r3, [pc, #500]	; (8005330 <ILI9341_Draw_Pixel+0x2e4>)
 800513c:	2110      	movs	r1, #16
 800513e:	438a      	bics	r2, r1
 8005140:	615a      	str	r2, [r3, #20]
 8005142:	6b3b      	ldr	r3, [r7, #48]	; 0x30
 8005144:	3301      	adds	r3, #1
 8005146:	633b      	str	r3, [r7, #48]	; 0x30
 8005148:	6b3b      	ldr	r3, [r7, #48]	; 0x30
 800514a:	2b02      	cmp	r3, #2
 800514c:	ddf3      	ble.n	8005136 <ILI9341_Draw_Pixel+0xea>
	LCD_CS_PORT->ODR |= LCD_CS_PIN;
 800514e:	4b78      	ldr	r3, [pc, #480]	; (8005330 <ILI9341_Draw_Pixel+0x2e4>)
 8005150:	695a      	ldr	r2, [r3, #20]
 8005152:	4b77      	ldr	r3, [pc, #476]	; (8005330 <ILI9341_Draw_Pixel+0x2e4>)
 8005154:	2110      	movs	r1, #16
 8005156:	430a      	orrs	r2, r1
 8005158:	615a      	str	r2, [r3, #20]

	//ADDRESS
	LCD_DC_PORT->ODR &= ~(LCD_DC_PIN);
 800515a:	4b74      	ldr	r3, [pc, #464]	; (800532c <ILI9341_Draw_Pixel+0x2e0>)
 800515c:	695a      	ldr	r2, [r3, #20]
 800515e:	4b73      	ldr	r3, [pc, #460]	; (800532c <ILI9341_Draw_Pixel+0x2e0>)
 8005160:	2101      	movs	r1, #1
 8005162:	438a      	bics	r2, r1
 8005164:	615a      	str	r2, [r3, #20]
	LCD_CS_PORT->ODR &= ~(LCD_CS_PIN);
 8005166:	4b72      	ldr	r3, [pc, #456]	; (8005330 <ILI9341_Draw_Pixel+0x2e4>)
 8005168:	695a      	ldr	r2, [r3, #20]
 800516a:	4b71      	ldr	r3, [pc, #452]	; (8005330 <ILI9341_Draw_Pixel+0x2e4>)
 800516c:	2110      	movs	r1, #16
 800516e:	438a      	bics	r2, r1
 8005170:	615a      	str	r2, [r3, #20]
	_SPI_SendByte(0x2B, 0, 10);
 8005172:	220a      	movs	r2, #10
 8005174:	2100      	movs	r1, #0
 8005176:	202b      	movs	r0, #43	; 0x2b
 8005178:	f000 fb74 	bl	8005864 <_SPI_SendByte>
	for(int s=0; s < SPI_DELAY_HOLD; s++) LCD_CS_PORT->ODR &= ~(LCD_CS_PIN);
 800517c:	2300      	movs	r3, #0
 800517e:	62fb      	str	r3, [r7, #44]	; 0x2c
 8005180:	e008      	b.n	8005194 <ILI9341_Draw_Pixel+0x148>
 8005182:	4b6b      	ldr	r3, [pc, #428]	; (8005330 <ILI9341_Draw_Pixel+0x2e4>)
 8005184:	695a      	ldr	r2, [r3, #20]
 8005186:	4b6a      	ldr	r3, [pc, #424]	; (8005330 <ILI9341_Draw_Pixel+0x2e4>)
 8005188:	2110      	movs	r1, #16
 800518a:	438a      	bics	r2, r1
 800518c:	615a      	str	r2, [r3, #20]
 800518e:	6afb      	ldr	r3, [r7, #44]	; 0x2c
 8005190:	3301      	adds	r3, #1
 8005192:	62fb      	str	r3, [r7, #44]	; 0x2c
 8005194:	6afb      	ldr	r3, [r7, #44]	; 0x2c
 8005196:	2b02      	cmp	r3, #2
 8005198:	ddf3      	ble.n	8005182 <ILI9341_Draw_Pixel+0x136>
	LCD_DC_PORT->ODR |= LCD_DC_PIN;
 800519a:	4b64      	ldr	r3, [pc, #400]	; (800532c <ILI9341_Draw_Pixel+0x2e0>)
 800519c:	695a      	ldr	r2, [r3, #20]
 800519e:	4b63      	ldr	r3, [pc, #396]	; (800532c <ILI9341_Draw_Pixel+0x2e0>)
 80051a0:	2101      	movs	r1, #1
 80051a2:	430a      	orrs	r2, r1
 80051a4:	615a      	str	r2, [r3, #20]
	LCD_CS_PORT->ODR |= LCD_CS_PIN;
 80051a6:	4b62      	ldr	r3, [pc, #392]	; (8005330 <ILI9341_Draw_Pixel+0x2e4>)
 80051a8:	695a      	ldr	r2, [r3, #20]
 80051aa:	4b61      	ldr	r3, [pc, #388]	; (8005330 <ILI9341_Draw_Pixel+0x2e4>)
 80051ac:	2110      	movs	r1, #16
 80051ae:	430a      	orrs	r2, r1
 80051b0:	615a      	str	r2, [r3, #20]

	//YDATA
	LCD_CS_PORT->ODR &= ~(LCD_CS_PIN);
 80051b2:	4b5f      	ldr	r3, [pc, #380]	; (8005330 <ILI9341_Draw_Pixel+0x2e4>)
 80051b4:	695a      	ldr	r2, [r3, #20]
 80051b6:	4b5e      	ldr	r3, [pc, #376]	; (8005330 <ILI9341_Draw_Pixel+0x2e4>)
 80051b8:	2110      	movs	r1, #16
 80051ba:	438a      	bics	r2, r1
 80051bc:	615a      	str	r2, [r3, #20]
	unsigned char Temp_Buffer1[4] = { y >> 8, y, (y + 1) >> 8, (y + 1) };
 80051be:	1d3b      	adds	r3, r7, #4
 80051c0:	881b      	ldrh	r3, [r3, #0]
 80051c2:	0a1b      	lsrs	r3, r3, #8
 80051c4:	b29b      	uxth	r3, r3
 80051c6:	b2da      	uxtb	r2, r3
 80051c8:	2110      	movs	r1, #16
 80051ca:	187b      	adds	r3, r7, r1
 80051cc:	701a      	strb	r2, [r3, #0]
 80051ce:	1d3b      	adds	r3, r7, #4
 80051d0:	881b      	ldrh	r3, [r3, #0]
 80051d2:	b2da      	uxtb	r2, r3
 80051d4:	187b      	adds	r3, r7, r1
 80051d6:	705a      	strb	r2, [r3, #1]
 80051d8:	1d3b      	adds	r3, r7, #4
 80051da:	881b      	ldrh	r3, [r3, #0]
 80051dc:	3301      	adds	r3, #1
 80051de:	121b      	asrs	r3, r3, #8
 80051e0:	b2da      	uxtb	r2, r3
 80051e2:	187b      	adds	r3, r7, r1
 80051e4:	709a      	strb	r2, [r3, #2]
 80051e6:	1d3b      	adds	r3, r7, #4
 80051e8:	881b      	ldrh	r3, [r3, #0]
 80051ea:	b2db      	uxtb	r3, r3
 80051ec:	3301      	adds	r3, #1
 80051ee:	b2da      	uxtb	r2, r3
 80051f0:	187b      	adds	r3, r7, r1
 80051f2:	70da      	strb	r2, [r3, #3]
	_SPI_SendByteMultiByte(Temp_Buffer1, 4, 0, 10);
 80051f4:	1878      	adds	r0, r7, r1
 80051f6:	230a      	movs	r3, #10
 80051f8:	2200      	movs	r2, #0
 80051fa:	2104      	movs	r1, #4
 80051fc:	f000 fb6c 	bl	80058d8 <_SPI_SendByteMultiByte>
	//HAL_SPI_Transmit(HSPI_INSTANCE, Temp_Buffer1, 4, 1 );
	for(int s=0; s < SPI_DELAY_HOLD; s++) LCD_CS_PORT->ODR &= ~(LCD_CS_PIN);
 8005200:	2300      	movs	r3, #0
 8005202:	62bb      	str	r3, [r7, #40]	; 0x28
 8005204:	e008      	b.n	8005218 <ILI9341_Draw_Pixel+0x1cc>
 8005206:	4b4a      	ldr	r3, [pc, #296]	; (8005330 <ILI9341_Draw_Pixel+0x2e4>)
 8005208:	695a      	ldr	r2, [r3, #20]
 800520a:	4b49      	ldr	r3, [pc, #292]	; (8005330 <ILI9341_Draw_Pixel+0x2e4>)
 800520c:	2110      	movs	r1, #16
 800520e:	438a      	bics	r2, r1
 8005210:	615a      	str	r2, [r3, #20]
 8005212:	6abb      	ldr	r3, [r7, #40]	; 0x28
 8005214:	3301      	adds	r3, #1
 8005216:	62bb      	str	r3, [r7, #40]	; 0x28
 8005218:	6abb      	ldr	r3, [r7, #40]	; 0x28
 800521a:	2b02      	cmp	r3, #2
 800521c:	ddf3      	ble.n	8005206 <ILI9341_Draw_Pixel+0x1ba>
	LCD_CS_PORT->ODR |= LCD_CS_PIN;
 800521e:	4b44      	ldr	r3, [pc, #272]	; (8005330 <ILI9341_Draw_Pixel+0x2e4>)
 8005220:	695a      	ldr	r2, [r3, #20]
 8005222:	4b43      	ldr	r3, [pc, #268]	; (8005330 <ILI9341_Draw_Pixel+0x2e4>)
 8005224:	2110      	movs	r1, #16
 8005226:	430a      	orrs	r2, r1
 8005228:	615a      	str	r2, [r3, #20]

	//ADDRESS
	LCD_DC_PORT->ODR &= ~(LCD_DC_PIN);
 800522a:	4b40      	ldr	r3, [pc, #256]	; (800532c <ILI9341_Draw_Pixel+0x2e0>)
 800522c:	695a      	ldr	r2, [r3, #20]
 800522e:	4b3f      	ldr	r3, [pc, #252]	; (800532c <ILI9341_Draw_Pixel+0x2e0>)
 8005230:	2101      	movs	r1, #1
 8005232:	438a      	bics	r2, r1
 8005234:	615a      	str	r2, [r3, #20]
	LCD_CS_PORT->ODR &= ~(LCD_CS_PIN);
 8005236:	4b3e      	ldr	r3, [pc, #248]	; (8005330 <ILI9341_Draw_Pixel+0x2e4>)
 8005238:	695a      	ldr	r2, [r3, #20]
 800523a:	4b3d      	ldr	r3, [pc, #244]	; (8005330 <ILI9341_Draw_Pixel+0x2e4>)
 800523c:	2110      	movs	r1, #16
 800523e:	438a      	bics	r2, r1
 8005240:	615a      	str	r2, [r3, #20]
	_SPI_SendByte(0x2C, 0, 10);
 8005242:	220a      	movs	r2, #10
 8005244:	2100      	movs	r1, #0
 8005246:	202c      	movs	r0, #44	; 0x2c
 8005248:	f000 fb0c 	bl	8005864 <_SPI_SendByte>
	for(int s=0; s < SPI_DELAY_HOLD; s++) LCD_CS_PORT->ODR &= ~(LCD_CS_PIN);
 800524c:	2300      	movs	r3, #0
 800524e:	627b      	str	r3, [r7, #36]	; 0x24
 8005250:	e008      	b.n	8005264 <ILI9341_Draw_Pixel+0x218>
 8005252:	4b37      	ldr	r3, [pc, #220]	; (8005330 <ILI9341_Draw_Pixel+0x2e4>)
 8005254:	695a      	ldr	r2, [r3, #20]
 8005256:	4b36      	ldr	r3, [pc, #216]	; (8005330 <ILI9341_Draw_Pixel+0x2e4>)
 8005258:	2110      	movs	r1, #16
 800525a:	438a      	bics	r2, r1
 800525c:	615a      	str	r2, [r3, #20]
 800525e:	6a7b      	ldr	r3, [r7, #36]	; 0x24
 8005260:	3301      	adds	r3, #1
 8005262:	627b      	str	r3, [r7, #36]	; 0x24
 8005264:	6a7b      	ldr	r3, [r7, #36]	; 0x24
 8005266:	2b02      	cmp	r3, #2
 8005268:	ddf3      	ble.n	8005252 <ILI9341_Draw_Pixel+0x206>
	LCD_DC_PORT->ODR |= LCD_DC_PIN;
 800526a:	4b30      	ldr	r3, [pc, #192]	; (800532c <ILI9341_Draw_Pixel+0x2e0>)
 800526c:	695a      	ldr	r2, [r3, #20]
 800526e:	4b2f      	ldr	r3, [pc, #188]	; (800532c <ILI9341_Draw_Pixel+0x2e0>)
 8005270:	2101      	movs	r1, #1
 8005272:	430a      	orrs	r2, r1
 8005274:	615a      	str	r2, [r3, #20]
	LCD_CS_PORT->ODR |= LCD_CS_PIN;
 8005276:	4b2e      	ldr	r3, [pc, #184]	; (8005330 <ILI9341_Draw_Pixel+0x2e4>)
 8005278:	695a      	ldr	r2, [r3, #20]
 800527a:	4b2d      	ldr	r3, [pc, #180]	; (8005330 <ILI9341_Draw_Pixel+0x2e4>)
 800527c:	2110      	movs	r1, #16
 800527e:	430a      	orrs	r2, r1
 8005280:	615a      	str	r2, [r3, #20]

	//COLOUR
	LCD_CS_PORT->ODR &= ~(LCD_CS_PIN);
 8005282:	4b2b      	ldr	r3, [pc, #172]	; (8005330 <ILI9341_Draw_Pixel+0x2e4>)
 8005284:	695a      	ldr	r2, [r3, #20]
 8005286:	4b2a      	ldr	r3, [pc, #168]	; (8005330 <ILI9341_Draw_Pixel+0x2e4>)
 8005288:	2110      	movs	r1, #16
 800528a:	438a      	bics	r2, r1
 800528c:	615a      	str	r2, [r3, #20]
	unsigned char Temp_Buffer2[2] = {colour>>8, colour};
 800528e:	1cbb      	adds	r3, r7, #2
 8005290:	881b      	ldrh	r3, [r3, #0]
 8005292:	0a1b      	lsrs	r3, r3, #8
 8005294:	b29b      	uxth	r3, r3
 8005296:	b2da      	uxtb	r2, r3
 8005298:	210c      	movs	r1, #12
 800529a:	187b      	adds	r3, r7, r1
 800529c:	701a      	strb	r2, [r3, #0]
 800529e:	1cbb      	adds	r3, r7, #2
 80052a0:	881b      	ldrh	r3, [r3, #0]
 80052a2:	b2da      	uxtb	r2, r3
 80052a4:	187b      	adds	r3, r7, r1
 80052a6:	705a      	strb	r2, [r3, #1]
	//HAL_SPI_Transmit(HSPI_INSTANCE, Temp_Buffer2, 2, 1 );
	_SPI_SendByteMultiByte(Temp_Buffer2, 2, 0, 1);
 80052a8:	1878      	adds	r0, r7, r1
 80052aa:	2301      	movs	r3, #1
 80052ac:	2200      	movs	r2, #0
 80052ae:	2102      	movs	r1, #2
 80052b0:	f000 fb12 	bl	80058d8 <_SPI_SendByteMultiByte>
	for(int s=0; s < SPI_DELAY_HOLD; s++) LCD_CS_PORT->ODR &= ~(LCD_CS_PIN);
 80052b4:	2300      	movs	r3, #0
 80052b6:	623b      	str	r3, [r7, #32]
 80052b8:	e008      	b.n	80052cc <ILI9341_Draw_Pixel+0x280>
 80052ba:	4b1d      	ldr	r3, [pc, #116]	; (8005330 <ILI9341_Draw_Pixel+0x2e4>)
 80052bc:	695a      	ldr	r2, [r3, #20]
 80052be:	4b1c      	ldr	r3, [pc, #112]	; (8005330 <ILI9341_Draw_Pixel+0x2e4>)
 80052c0:	2110      	movs	r1, #16
 80052c2:	438a      	bics	r2, r1
 80052c4:	615a      	str	r2, [r3, #20]
 80052c6:	6a3b      	ldr	r3, [r7, #32]
 80052c8:	3301      	adds	r3, #1
 80052ca:	623b      	str	r3, [r7, #32]
 80052cc:	6a3b      	ldr	r3, [r7, #32]
 80052ce:	2b02      	cmp	r3, #2
 80052d0:	ddf3      	ble.n	80052ba <ILI9341_Draw_Pixel+0x26e>
	for(int s=0; s < SPI_DELAY_HOLD; s++) LCD_CS_PORT->ODR &= ~(LCD_CS_PIN);
 80052d2:	2300      	movs	r3, #0
 80052d4:	61fb      	str	r3, [r7, #28]
 80052d6:	e008      	b.n	80052ea <ILI9341_Draw_Pixel+0x29e>
 80052d8:	4b15      	ldr	r3, [pc, #84]	; (8005330 <ILI9341_Draw_Pixel+0x2e4>)
 80052da:	695a      	ldr	r2, [r3, #20]
 80052dc:	4b14      	ldr	r3, [pc, #80]	; (8005330 <ILI9341_Draw_Pixel+0x2e4>)
 80052de:	2110      	movs	r1, #16
 80052e0:	438a      	bics	r2, r1
 80052e2:	615a      	str	r2, [r3, #20]
 80052e4:	69fb      	ldr	r3, [r7, #28]
 80052e6:	3301      	adds	r3, #1
 80052e8:	61fb      	str	r3, [r7, #28]
 80052ea:	69fb      	ldr	r3, [r7, #28]
 80052ec:	2b02      	cmp	r3, #2
 80052ee:	ddf3      	ble.n	80052d8 <ILI9341_Draw_Pixel+0x28c>
	for(int s=0; s < SPI_DELAY_HOLD; s++) LCD_CS_PORT->ODR &= ~(LCD_CS_PIN);
 80052f0:	2300      	movs	r3, #0
 80052f2:	61bb      	str	r3, [r7, #24]
 80052f4:	e008      	b.n	8005308 <ILI9341_Draw_Pixel+0x2bc>
 80052f6:	4b0e      	ldr	r3, [pc, #56]	; (8005330 <ILI9341_Draw_Pixel+0x2e4>)
 80052f8:	695a      	ldr	r2, [r3, #20]
 80052fa:	4b0d      	ldr	r3, [pc, #52]	; (8005330 <ILI9341_Draw_Pixel+0x2e4>)
 80052fc:	2110      	movs	r1, #16
 80052fe:	438a      	bics	r2, r1
 8005300:	615a      	str	r2, [r3, #20]
 8005302:	69bb      	ldr	r3, [r7, #24]
 8005304:	3301      	adds	r3, #1
 8005306:	61bb      	str	r3, [r7, #24]
 8005308:	69bb      	ldr	r3, [r7, #24]
 800530a:	2b02      	cmp	r3, #2
 800530c:	ddf3      	ble.n	80052f6 <ILI9341_Draw_Pixel+0x2aa>


	LCD_CS_PORT->ODR |= LCD_CS_PIN;
 800530e:	4b08      	ldr	r3, [pc, #32]	; (8005330 <ILI9341_Draw_Pixel+0x2e4>)
 8005310:	695a      	ldr	r2, [r3, #20]
 8005312:	4b07      	ldr	r3, [pc, #28]	; (8005330 <ILI9341_Draw_Pixel+0x2e4>)
 8005314:	2110      	movs	r1, #16
 8005316:	430a      	orrs	r2, r1
 8005318:	615a      	str	r2, [r3, #20]
 800531a:	e000      	b.n	800531e <ILI9341_Draw_Pixel+0x2d2>
	if((x >= LCD_WIDTH) || (y >= LCD_HEIGHT)) return;	//OUT OF BOUNDS!
 800531c:	46c0      	nop			; (mov r8, r8)


}
 800531e:	46bd      	mov	sp, r7
 8005320:	b00f      	add	sp, #60	; 0x3c
 8005322:	bd90      	pop	{r4, r7, pc}
 8005324:	2000000c 	.word	0x2000000c
 8005328:	2000000a 	.word	0x2000000a
 800532c:	48000400 	.word	0x48000400
 8005330:	48000800 	.word	0x48000800

08005334 <ILI9341_Draw_Rectangle>:
 *
 *
 */

void ILI9341_Draw_Rectangle(uint16_t xpos, uint16_t ypos, uint16_t width, uint16_t height, uint16_t colour, CHUNK_Type chunk_type)
{
 8005334:	b5b0      	push	{r4, r5, r7, lr}
 8005336:	b086      	sub	sp, #24
 8005338:	af02      	add	r7, sp, #8
 800533a:	0005      	movs	r5, r0
 800533c:	000c      	movs	r4, r1
 800533e:	0010      	movs	r0, r2
 8005340:	0019      	movs	r1, r3
 8005342:	1dbb      	adds	r3, r7, #6
 8005344:	1c2a      	adds	r2, r5, #0
 8005346:	801a      	strh	r2, [r3, #0]
 8005348:	1d3b      	adds	r3, r7, #4
 800534a:	1c22      	adds	r2, r4, #0
 800534c:	801a      	strh	r2, [r3, #0]
 800534e:	1cbb      	adds	r3, r7, #2
 8005350:	1c02      	adds	r2, r0, #0
 8005352:	801a      	strh	r2, [r3, #0]
 8005354:	003b      	movs	r3, r7
 8005356:	1c0a      	adds	r2, r1, #0
 8005358:	801a      	strh	r2, [r3, #0]
	if((xpos >=LCD_WIDTH) || (ypos >=LCD_HEIGHT)) return;
 800535a:	4b5b      	ldr	r3, [pc, #364]	; (80054c8 <ILI9341_Draw_Rectangle+0x194>)
 800535c:	881b      	ldrh	r3, [r3, #0]
 800535e:	b29b      	uxth	r3, r3
 8005360:	1dba      	adds	r2, r7, #6
 8005362:	8812      	ldrh	r2, [r2, #0]
 8005364:	429a      	cmp	r2, r3
 8005366:	d300      	bcc.n	800536a <ILI9341_Draw_Rectangle+0x36>
 8005368:	e0a9      	b.n	80054be <ILI9341_Draw_Rectangle+0x18a>
 800536a:	4b58      	ldr	r3, [pc, #352]	; (80054cc <ILI9341_Draw_Rectangle+0x198>)
 800536c:	881b      	ldrh	r3, [r3, #0]
 800536e:	b29b      	uxth	r3, r3
 8005370:	1d3a      	adds	r2, r7, #4
 8005372:	8812      	ldrh	r2, [r2, #0]
 8005374:	429a      	cmp	r2, r3
 8005376:	d300      	bcc.n	800537a <ILI9341_Draw_Rectangle+0x46>
 8005378:	e0a1      	b.n	80054be <ILI9341_Draw_Rectangle+0x18a>
	if((xpos+width-1)>=LCD_WIDTH)
 800537a:	1dbb      	adds	r3, r7, #6
 800537c:	881a      	ldrh	r2, [r3, #0]
 800537e:	1cbb      	adds	r3, r7, #2
 8005380:	881b      	ldrh	r3, [r3, #0]
 8005382:	18d3      	adds	r3, r2, r3
 8005384:	3b01      	subs	r3, #1
 8005386:	4a50      	ldr	r2, [pc, #320]	; (80054c8 <ILI9341_Draw_Rectangle+0x194>)
 8005388:	8812      	ldrh	r2, [r2, #0]
 800538a:	b292      	uxth	r2, r2
 800538c:	4293      	cmp	r3, r2
 800538e:	db07      	blt.n	80053a0 <ILI9341_Draw_Rectangle+0x6c>
		{
			width=LCD_WIDTH-xpos;
 8005390:	4b4d      	ldr	r3, [pc, #308]	; (80054c8 <ILI9341_Draw_Rectangle+0x194>)
 8005392:	881b      	ldrh	r3, [r3, #0]
 8005394:	b299      	uxth	r1, r3
 8005396:	1cbb      	adds	r3, r7, #2
 8005398:	1dba      	adds	r2, r7, #6
 800539a:	8812      	ldrh	r2, [r2, #0]
 800539c:	1a8a      	subs	r2, r1, r2
 800539e:	801a      	strh	r2, [r3, #0]
		}
	if((ypos+height-1)>=LCD_HEIGHT)
 80053a0:	1d3b      	adds	r3, r7, #4
 80053a2:	881a      	ldrh	r2, [r3, #0]
 80053a4:	003b      	movs	r3, r7
 80053a6:	881b      	ldrh	r3, [r3, #0]
 80053a8:	18d3      	adds	r3, r2, r3
 80053aa:	3b01      	subs	r3, #1
 80053ac:	4a47      	ldr	r2, [pc, #284]	; (80054cc <ILI9341_Draw_Rectangle+0x198>)
 80053ae:	8812      	ldrh	r2, [r2, #0]
 80053b0:	b292      	uxth	r2, r2
 80053b2:	4293      	cmp	r3, r2
 80053b4:	db07      	blt.n	80053c6 <ILI9341_Draw_Rectangle+0x92>
		{
			height=LCD_HEIGHT-ypos;
 80053b6:	4b45      	ldr	r3, [pc, #276]	; (80054cc <ILI9341_Draw_Rectangle+0x198>)
 80053b8:	881b      	ldrh	r3, [r3, #0]
 80053ba:	b299      	uxth	r1, r3
 80053bc:	003b      	movs	r3, r7
 80053be:	1d3a      	adds	r2, r7, #4
 80053c0:	8812      	ldrh	r2, [r2, #0]
 80053c2:	1a8a      	subs	r2, r1, r2
 80053c4:	801a      	strh	r2, [r3, #0]
		}
	ILI9341_Set_Frame(	xpos,
						ypos,
						(xpos + width) - 1,
 80053c6:	1dba      	adds	r2, r7, #6
 80053c8:	1cbb      	adds	r3, r7, #2
 80053ca:	8812      	ldrh	r2, [r2, #0]
 80053cc:	881b      	ldrh	r3, [r3, #0]
 80053ce:	18d3      	adds	r3, r2, r3
 80053d0:	b29b      	uxth	r3, r3
	ILI9341_Set_Frame(	xpos,
 80053d2:	3b01      	subs	r3, #1
 80053d4:	b29c      	uxth	r4, r3
						(ypos + height) - 1);
 80053d6:	1d3a      	adds	r2, r7, #4
 80053d8:	003b      	movs	r3, r7
 80053da:	8812      	ldrh	r2, [r2, #0]
 80053dc:	881b      	ldrh	r3, [r3, #0]
 80053de:	18d3      	adds	r3, r2, r3
 80053e0:	b29b      	uxth	r3, r3
	ILI9341_Set_Frame(	xpos,
 80053e2:	3b01      	subs	r3, #1
 80053e4:	b29a      	uxth	r2, r3
 80053e6:	1d3b      	adds	r3, r7, #4
 80053e8:	8819      	ldrh	r1, [r3, #0]
 80053ea:	1dbb      	adds	r3, r7, #6
 80053ec:	8818      	ldrh	r0, [r3, #0]
 80053ee:	0013      	movs	r3, r2
 80053f0:	0022      	movs	r2, r4
 80053f2:	f7ff fda9 	bl	8004f48 <ILI9341_Set_Frame>
	// if odd numbered rect area is requested, we round down to nearest even number
	// to keep _LCD_Write_Frame() happy.

	// Note, truncated pixel will be needed at function end.

	uint16_t size = height*width;
 80053f6:	200e      	movs	r0, #14
 80053f8:	183b      	adds	r3, r7, r0
 80053fa:	003a      	movs	r2, r7
 80053fc:	1cb9      	adds	r1, r7, #2
 80053fe:	8812      	ldrh	r2, [r2, #0]
 8005400:	8809      	ldrh	r1, [r1, #0]
 8005402:	434a      	muls	r2, r1
 8005404:	801a      	strh	r2, [r3, #0]
	uint8_t truncated = 0;
 8005406:	230d      	movs	r3, #13
 8005408:	18fb      	adds	r3, r7, r3
 800540a:	2200      	movs	r2, #0
 800540c:	701a      	strb	r2, [r3, #0]

	if((size & 1) && (size > 1))		// don't round down to zero!
 800540e:	183b      	adds	r3, r7, r0
 8005410:	881b      	ldrh	r3, [r3, #0]
 8005412:	2201      	movs	r2, #1
 8005414:	4013      	ands	r3, r2
 8005416:	d010      	beq.n	800543a <ILI9341_Draw_Rectangle+0x106>
 8005418:	230e      	movs	r3, #14
 800541a:	18fb      	adds	r3, r7, r3
 800541c:	881b      	ldrh	r3, [r3, #0]
 800541e:	2b01      	cmp	r3, #1
 8005420:	d90b      	bls.n	800543a <ILI9341_Draw_Rectangle+0x106>
	{
		truncated = 1;
 8005422:	230d      	movs	r3, #13
 8005424:	18fb      	adds	r3, r7, r3
 8005426:	2201      	movs	r2, #1
 8005428:	701a      	strb	r2, [r3, #0]
	 	size = ((size >> 1) * 2);
 800542a:	220e      	movs	r2, #14
 800542c:	18bb      	adds	r3, r7, r2
 800542e:	881b      	ldrh	r3, [r3, #0]
 8005430:	085b      	lsrs	r3, r3, #1
 8005432:	b29b      	uxth	r3, r3
 8005434:	18ba      	adds	r2, r7, r2
 8005436:	18db      	adds	r3, r3, r3
 8005438:	8013      	strh	r3, [r2, #0]
	}

	_LCD_Write_Frame(	xpos,
 800543a:	230e      	movs	r3, #14
 800543c:	18fb      	adds	r3, r7, r3
 800543e:	881c      	ldrh	r4, [r3, #0]
 8005440:	2320      	movs	r3, #32
 8005442:	18fb      	adds	r3, r7, r3
 8005444:	881a      	ldrh	r2, [r3, #0]
 8005446:	1d3b      	adds	r3, r7, #4
 8005448:	8819      	ldrh	r1, [r3, #0]
 800544a:	1dbb      	adds	r3, r7, #6
 800544c:	8818      	ldrh	r0, [r3, #0]
 800544e:	2324      	movs	r3, #36	; 0x24
 8005450:	18fb      	adds	r3, r7, r3
 8005452:	781b      	ldrb	r3, [r3, #0]
 8005454:	9300      	str	r3, [sp, #0]
 8005456:	0023      	movs	r3, r4
 8005458:	f000 f8b8 	bl	80055cc <_LCD_Write_Frame>
						colour,
						size,
						chunk_type);

	// add the truncated pixel now
	if(truncated)
 800545c:	230d      	movs	r3, #13
 800545e:	18fb      	adds	r3, r7, r3
 8005460:	781b      	ldrb	r3, [r3, #0]
 8005462:	2b00      	cmp	r3, #0
 8005464:	d02c      	beq.n	80054c0 <ILI9341_Draw_Rectangle+0x18c>
	{
		ILI9341_Draw_Pixel(	(xpos + width) - 2,
 8005466:	1dba      	adds	r2, r7, #6
 8005468:	1cbb      	adds	r3, r7, #2
 800546a:	8812      	ldrh	r2, [r2, #0]
 800546c:	881b      	ldrh	r3, [r3, #0]
 800546e:	18d3      	adds	r3, r2, r3
 8005470:	b29b      	uxth	r3, r3
 8005472:	3b02      	subs	r3, #2
 8005474:	b298      	uxth	r0, r3
							(ypos + height) - 1,
 8005476:	1d3a      	adds	r2, r7, #4
 8005478:	003b      	movs	r3, r7
 800547a:	8812      	ldrh	r2, [r2, #0]
 800547c:	881b      	ldrh	r3, [r3, #0]
 800547e:	18d3      	adds	r3, r2, r3
 8005480:	b29b      	uxth	r3, r3
		ILI9341_Draw_Pixel(	(xpos + width) - 2,
 8005482:	3b01      	subs	r3, #1
 8005484:	b29b      	uxth	r3, r3
 8005486:	2420      	movs	r4, #32
 8005488:	193a      	adds	r2, r7, r4
 800548a:	8812      	ldrh	r2, [r2, #0]
 800548c:	0019      	movs	r1, r3
 800548e:	f7ff fddd 	bl	800504c <ILI9341_Draw_Pixel>
							colour);
		ILI9341_Draw_Pixel(	(xpos + width) - 1,
 8005492:	1dba      	adds	r2, r7, #6
 8005494:	1cbb      	adds	r3, r7, #2
 8005496:	8812      	ldrh	r2, [r2, #0]
 8005498:	881b      	ldrh	r3, [r3, #0]
 800549a:	18d3      	adds	r3, r2, r3
 800549c:	b29b      	uxth	r3, r3
 800549e:	3b01      	subs	r3, #1
 80054a0:	b298      	uxth	r0, r3
							(ypos + height) - 1,
 80054a2:	1d3a      	adds	r2, r7, #4
 80054a4:	003b      	movs	r3, r7
 80054a6:	8812      	ldrh	r2, [r2, #0]
 80054a8:	881b      	ldrh	r3, [r3, #0]
 80054aa:	18d3      	adds	r3, r2, r3
 80054ac:	b29b      	uxth	r3, r3
		ILI9341_Draw_Pixel(	(xpos + width) - 1,
 80054ae:	3b01      	subs	r3, #1
 80054b0:	b29b      	uxth	r3, r3
 80054b2:	193a      	adds	r2, r7, r4
 80054b4:	8812      	ldrh	r2, [r2, #0]
 80054b6:	0019      	movs	r1, r3
 80054b8:	f7ff fdc8 	bl	800504c <ILI9341_Draw_Pixel>
 80054bc:	e000      	b.n	80054c0 <ILI9341_Draw_Rectangle+0x18c>
	if((xpos >=LCD_WIDTH) || (ypos >=LCD_HEIGHT)) return;
 80054be:	46c0      	nop			; (mov r8, r8)
							colour);
	}
}
 80054c0:	46bd      	mov	sp, r7
 80054c2:	b004      	add	sp, #16
 80054c4:	bdb0      	pop	{r4, r5, r7, pc}
 80054c6:	46c0      	nop			; (mov r8, r8)
 80054c8:	2000000c 	.word	0x2000000c
 80054cc:	2000000a 	.word	0x2000000a

080054d0 <ILI9341_Set_Rotation>:
 *
 * 	Set LCD orientation
 *
 */
void ILI9341_Set_Rotation(uint8_t rotation)
{
 80054d0:	b590      	push	{r4, r7, lr}
 80054d2:	b085      	sub	sp, #20
 80054d4:	af00      	add	r7, sp, #0
 80054d6:	0002      	movs	r2, r0
 80054d8:	1dfb      	adds	r3, r7, #7
 80054da:	701a      	strb	r2, [r3, #0]

	uint8_t screen_rotation = rotation;
 80054dc:	240f      	movs	r4, #15
 80054de:	193b      	adds	r3, r7, r4
 80054e0:	1dfa      	adds	r2, r7, #7
 80054e2:	7812      	ldrb	r2, [r2, #0]
 80054e4:	701a      	strb	r2, [r3, #0]

	_LCD_SendCommand(0x36);
 80054e6:	2036      	movs	r0, #54	; 0x36
 80054e8:	f000 f950 	bl	800578c <_LCD_SendCommand>
	//HAL_Delay(1);

	switch(screen_rotation)
 80054ec:	193b      	adds	r3, r7, r4
 80054ee:	781b      	ldrb	r3, [r3, #0]
 80054f0:	2b01      	cmp	r3, #1
 80054f2:	d013      	beq.n	800551c <ILI9341_Set_Rotation+0x4c>
 80054f4:	dc02      	bgt.n	80054fc <ILI9341_Set_Rotation+0x2c>
 80054f6:	2b00      	cmp	r3, #0
 80054f8:	d005      	beq.n	8005506 <ILI9341_Set_Rotation+0x36>
			LCD_WIDTH  = 320;
			LCD_HEIGHT = 240;
			break;
		default:
			//EXIT IF SCREEN ROTATION NOT VALID!
			break;
 80054fa:	e030      	b.n	800555e <ILI9341_Set_Rotation+0x8e>
	switch(screen_rotation)
 80054fc:	2b02      	cmp	r3, #2
 80054fe:	d018      	beq.n	8005532 <ILI9341_Set_Rotation+0x62>
 8005500:	2b03      	cmp	r3, #3
 8005502:	d021      	beq.n	8005548 <ILI9341_Set_Rotation+0x78>
			break;
 8005504:	e02b      	b.n	800555e <ILI9341_Set_Rotation+0x8e>
			_LCD_SendData(0x40|0x08);
 8005506:	2048      	movs	r0, #72	; 0x48
 8005508:	f000 f976 	bl	80057f8 <_LCD_SendData>
			LCD_WIDTH = 240;
 800550c:	4b16      	ldr	r3, [pc, #88]	; (8005568 <ILI9341_Set_Rotation+0x98>)
 800550e:	22f0      	movs	r2, #240	; 0xf0
 8005510:	801a      	strh	r2, [r3, #0]
			LCD_HEIGHT = 320;
 8005512:	4b16      	ldr	r3, [pc, #88]	; (800556c <ILI9341_Set_Rotation+0x9c>)
 8005514:	22a0      	movs	r2, #160	; 0xa0
 8005516:	0052      	lsls	r2, r2, #1
 8005518:	801a      	strh	r2, [r3, #0]
			break;
 800551a:	e020      	b.n	800555e <ILI9341_Set_Rotation+0x8e>
			_LCD_SendData(0x20|0x08);
 800551c:	2028      	movs	r0, #40	; 0x28
 800551e:	f000 f96b 	bl	80057f8 <_LCD_SendData>
			LCD_WIDTH  = 320;
 8005522:	4b11      	ldr	r3, [pc, #68]	; (8005568 <ILI9341_Set_Rotation+0x98>)
 8005524:	22a0      	movs	r2, #160	; 0xa0
 8005526:	0052      	lsls	r2, r2, #1
 8005528:	801a      	strh	r2, [r3, #0]
			LCD_HEIGHT = 240;
 800552a:	4b10      	ldr	r3, [pc, #64]	; (800556c <ILI9341_Set_Rotation+0x9c>)
 800552c:	22f0      	movs	r2, #240	; 0xf0
 800552e:	801a      	strh	r2, [r3, #0]
			break;
 8005530:	e015      	b.n	800555e <ILI9341_Set_Rotation+0x8e>
			_LCD_SendData(0x80|0x08);
 8005532:	2088      	movs	r0, #136	; 0x88
 8005534:	f000 f960 	bl	80057f8 <_LCD_SendData>
			LCD_WIDTH  = 240;
 8005538:	4b0b      	ldr	r3, [pc, #44]	; (8005568 <ILI9341_Set_Rotation+0x98>)
 800553a:	22f0      	movs	r2, #240	; 0xf0
 800553c:	801a      	strh	r2, [r3, #0]
			LCD_HEIGHT = 320;
 800553e:	4b0b      	ldr	r3, [pc, #44]	; (800556c <ILI9341_Set_Rotation+0x9c>)
 8005540:	22a0      	movs	r2, #160	; 0xa0
 8005542:	0052      	lsls	r2, r2, #1
 8005544:	801a      	strh	r2, [r3, #0]
			break;
 8005546:	e00a      	b.n	800555e <ILI9341_Set_Rotation+0x8e>
			_LCD_SendData(0x40|0x80|0x20|0x08);
 8005548:	20e8      	movs	r0, #232	; 0xe8
 800554a:	f000 f955 	bl	80057f8 <_LCD_SendData>
			LCD_WIDTH  = 320;
 800554e:	4b06      	ldr	r3, [pc, #24]	; (8005568 <ILI9341_Set_Rotation+0x98>)
 8005550:	22a0      	movs	r2, #160	; 0xa0
 8005552:	0052      	lsls	r2, r2, #1
 8005554:	801a      	strh	r2, [r3, #0]
			LCD_HEIGHT = 240;
 8005556:	4b05      	ldr	r3, [pc, #20]	; (800556c <ILI9341_Set_Rotation+0x9c>)
 8005558:	22f0      	movs	r2, #240	; 0xf0
 800555a:	801a      	strh	r2, [r3, #0]
			break;
 800555c:	46c0      	nop			; (mov r8, r8)
	}
}
 800555e:	46c0      	nop			; (mov r8, r8)
 8005560:	46bd      	mov	sp, r7
 8005562:	b005      	add	sp, #20
 8005564:	bd90      	pop	{r4, r7, pc}
 8005566:	46c0      	nop			; (mov r8, r8)
 8005568:	2000000c 	.word	0x2000000c
 800556c:	2000000a 	.word	0x2000000a

08005570 <_LCD_Enable>:
 *
 * Enable LCD display
 *
 */
void _LCD_Enable()
{
 8005570:	b580      	push	{r7, lr}
 8005572:	af00      	add	r7, sp, #0
	LCD_RST_PORT->ODR |= LCD_RST_PIN;
 8005574:	4b04      	ldr	r3, [pc, #16]	; (8005588 <_LCD_Enable+0x18>)
 8005576:	695a      	ldr	r2, [r3, #20]
 8005578:	4b03      	ldr	r3, [pc, #12]	; (8005588 <_LCD_Enable+0x18>)
 800557a:	2120      	movs	r1, #32
 800557c:	430a      	orrs	r2, r1
 800557e:	615a      	str	r2, [r3, #20]
}
 8005580:	46c0      	nop			; (mov r8, r8)
 8005582:	46bd      	mov	sp, r7
 8005584:	bd80      	pop	{r7, pc}
 8005586:	46c0      	nop			; (mov r8, r8)
 8005588:	48000800 	.word	0x48000800

0800558c <_LCD_Reset>:
 *
 * 	Reset LCD
 *
 */
void _LCD_Reset()
{
 800558c:	b580      	push	{r7, lr}
 800558e:	af00      	add	r7, sp, #0
	LCD_RST_PORT->ODR &= ~(LCD_RST_PIN);
 8005590:	4b0d      	ldr	r3, [pc, #52]	; (80055c8 <_LCD_Reset+0x3c>)
 8005592:	695a      	ldr	r2, [r3, #20]
 8005594:	4b0c      	ldr	r3, [pc, #48]	; (80055c8 <_LCD_Reset+0x3c>)
 8005596:	2120      	movs	r1, #32
 8005598:	438a      	bics	r2, r1
 800559a:	615a      	str	r2, [r3, #20]
	HAL_Delay(200);
 800559c:	20c8      	movs	r0, #200	; 0xc8
 800559e:	f7fd fa4f 	bl	8002a40 <HAL_Delay>
	LCD_CS_PORT->ODR &= ~(LCD_CS_PIN);
 80055a2:	4b09      	ldr	r3, [pc, #36]	; (80055c8 <_LCD_Reset+0x3c>)
 80055a4:	695a      	ldr	r2, [r3, #20]
 80055a6:	4b08      	ldr	r3, [pc, #32]	; (80055c8 <_LCD_Reset+0x3c>)
 80055a8:	2110      	movs	r1, #16
 80055aa:	438a      	bics	r2, r1
 80055ac:	615a      	str	r2, [r3, #20]
	HAL_Delay(200);
 80055ae:	20c8      	movs	r0, #200	; 0xc8
 80055b0:	f7fd fa46 	bl	8002a40 <HAL_Delay>
	LCD_RST_PORT->ODR |= LCD_RST_PIN;
 80055b4:	4b04      	ldr	r3, [pc, #16]	; (80055c8 <_LCD_Reset+0x3c>)
 80055b6:	695a      	ldr	r2, [r3, #20]
 80055b8:	4b03      	ldr	r3, [pc, #12]	; (80055c8 <_LCD_Reset+0x3c>)
 80055ba:	2120      	movs	r1, #32
 80055bc:	430a      	orrs	r2, r1
 80055be:	615a      	str	r2, [r3, #20]
}
 80055c0:	46c0      	nop			; (mov r8, r8)
 80055c2:	46bd      	mov	sp, r7
 80055c4:	bd80      	pop	{r7, pc}
 80055c6:	46c0      	nop			; (mov r8, r8)
 80055c8:	48000800 	.word	0x48000800

080055cc <_LCD_Write_Frame>:
 *
 *	entire data sent to this function is a CHUNK < BURST_MAX_SIZE
 *	each CHUNK is broken down into smaller BLOCKS
 */
void _LCD_Write_Frame(uint16_t chunk_xpos, uint16_t chunk_ypos, uint16_t colour, uint32_t chunk_size, CHUNK_Type chunk_type)
{
 80055cc:	b5f0      	push	{r4, r5, r6, r7, lr}
 80055ce:	b095      	sub	sp, #84	; 0x54
 80055d0:	af00      	add	r7, sp, #0
 80055d2:	0006      	movs	r6, r0
 80055d4:	0008      	movs	r0, r1
 80055d6:	0011      	movs	r1, r2
 80055d8:	61fb      	str	r3, [r7, #28]
 80055da:	230e      	movs	r3, #14
 80055dc:	2218      	movs	r2, #24
 80055de:	4694      	mov	ip, r2
 80055e0:	44bc      	add	ip, r7
 80055e2:	4463      	add	r3, ip
 80055e4:	1c32      	adds	r2, r6, #0
 80055e6:	801a      	strh	r2, [r3, #0]
 80055e8:	230c      	movs	r3, #12
 80055ea:	2218      	movs	r2, #24
 80055ec:	4694      	mov	ip, r2
 80055ee:	44bc      	add	ip, r7
 80055f0:	4463      	add	r3, ip
 80055f2:	1c02      	adds	r2, r0, #0
 80055f4:	801a      	strh	r2, [r3, #0]
 80055f6:	230a      	movs	r3, #10
 80055f8:	2218      	movs	r2, #24
 80055fa:	4694      	mov	ip, r2
 80055fc:	44bc      	add	ip, r7
 80055fe:	4463      	add	r3, ip
 8005600:	1c0a      	adds	r2, r1, #0
 8005602:	801a      	strh	r2, [r3, #0]
 8005604:	466b      	mov	r3, sp
 8005606:	61bb      	str	r3, [r7, #24]

	uint32_t buffer_size = 0;
 8005608:	2300      	movs	r3, #0
 800560a:	647b      	str	r3, [r7, #68]	; 0x44
	if((chunk_size*2) < BURST_MAX_SIZE)
 800560c:	69fb      	ldr	r3, [r7, #28]
 800560e:	005b      	lsls	r3, r3, #1
 8005610:	4a5b      	ldr	r2, [pc, #364]	; (8005780 <_LCD_Write_Frame+0x1b4>)
 8005612:	8812      	ldrh	r2, [r2, #0]
 8005614:	4293      	cmp	r3, r2
 8005616:	d202      	bcs.n	800561e <_LCD_Write_Frame+0x52>
	{
		buffer_size = chunk_size;
 8005618:	69fb      	ldr	r3, [r7, #28]
 800561a:	647b      	str	r3, [r7, #68]	; 0x44
 800561c:	e002      	b.n	8005624 <_LCD_Write_Frame+0x58>
	}
	else
	{
		buffer_size = BURST_MAX_SIZE;
 800561e:	4b58      	ldr	r3, [pc, #352]	; (8005780 <_LCD_Write_Frame+0x1b4>)
 8005620:	881b      	ldrh	r3, [r3, #0]
 8005622:	647b      	str	r3, [r7, #68]	; 0x44
	}

	unsigned char chifted = 	colour>>8;;
 8005624:	230a      	movs	r3, #10
 8005626:	2218      	movs	r2, #24
 8005628:	4694      	mov	ip, r2
 800562a:	44bc      	add	ip, r7
 800562c:	4463      	add	r3, ip
 800562e:	881b      	ldrh	r3, [r3, #0]
 8005630:	0a1b      	lsrs	r3, r3, #8
 8005632:	b29a      	uxth	r2, r3
 8005634:	231f      	movs	r3, #31
 8005636:	2118      	movs	r1, #24
 8005638:	468c      	mov	ip, r1
 800563a:	44bc      	add	ip, r7
 800563c:	4463      	add	r3, ip
 800563e:	701a      	strb	r2, [r3, #0]
	unsigned char burst_buffer[buffer_size];
 8005640:	6c7b      	ldr	r3, [r7, #68]	; 0x44
 8005642:	001a      	movs	r2, r3
 8005644:	3a01      	subs	r2, #1
 8005646:	633a      	str	r2, [r7, #48]	; 0x30
 8005648:	60bb      	str	r3, [r7, #8]
 800564a:	2200      	movs	r2, #0
 800564c:	60fa      	str	r2, [r7, #12]
 800564e:	68b8      	ldr	r0, [r7, #8]
 8005650:	68f9      	ldr	r1, [r7, #12]
 8005652:	0002      	movs	r2, r0
 8005654:	0f52      	lsrs	r2, r2, #29
 8005656:	000e      	movs	r6, r1
 8005658:	00f6      	lsls	r6, r6, #3
 800565a:	617e      	str	r6, [r7, #20]
 800565c:	697e      	ldr	r6, [r7, #20]
 800565e:	4316      	orrs	r6, r2
 8005660:	617e      	str	r6, [r7, #20]
 8005662:	0002      	movs	r2, r0
 8005664:	00d2      	lsls	r2, r2, #3
 8005666:	613a      	str	r2, [r7, #16]
 8005668:	603b      	str	r3, [r7, #0]
 800566a:	2200      	movs	r2, #0
 800566c:	607a      	str	r2, [r7, #4]
 800566e:	6838      	ldr	r0, [r7, #0]
 8005670:	6879      	ldr	r1, [r7, #4]
 8005672:	0002      	movs	r2, r0
 8005674:	0f52      	lsrs	r2, r2, #29
 8005676:	000e      	movs	r6, r1
 8005678:	00f5      	lsls	r5, r6, #3
 800567a:	4315      	orrs	r5, r2
 800567c:	0002      	movs	r2, r0
 800567e:	00d4      	lsls	r4, r2, #3
 8005680:	3307      	adds	r3, #7
 8005682:	08db      	lsrs	r3, r3, #3
 8005684:	00db      	lsls	r3, r3, #3
 8005686:	466a      	mov	r2, sp
 8005688:	1ad3      	subs	r3, r2, r3
 800568a:	469d      	mov	sp, r3
 800568c:	466b      	mov	r3, sp
 800568e:	3300      	adds	r3, #0
 8005690:	62fb      	str	r3, [r7, #44]	; 0x2c
	for(uint32_t j = 0; j < buffer_size; j+=2)
 8005692:	2300      	movs	r3, #0
 8005694:	64bb      	str	r3, [r7, #72]	; 0x48
 8005696:	e017      	b.n	80056c8 <_LCD_Write_Frame+0xfc>
	{
			burst_buffer[j] = 	chifted;
 8005698:	6afa      	ldr	r2, [r7, #44]	; 0x2c
 800569a:	6cbb      	ldr	r3, [r7, #72]	; 0x48
 800569c:	18d3      	adds	r3, r2, r3
 800569e:	221f      	movs	r2, #31
 80056a0:	2118      	movs	r1, #24
 80056a2:	468c      	mov	ip, r1
 80056a4:	44bc      	add	ip, r7
 80056a6:	4462      	add	r2, ip
 80056a8:	7812      	ldrb	r2, [r2, #0]
 80056aa:	701a      	strb	r2, [r3, #0]
			burst_buffer[j+1] = colour;
 80056ac:	6cbb      	ldr	r3, [r7, #72]	; 0x48
 80056ae:	3301      	adds	r3, #1
 80056b0:	220a      	movs	r2, #10
 80056b2:	2118      	movs	r1, #24
 80056b4:	468c      	mov	ip, r1
 80056b6:	44bc      	add	ip, r7
 80056b8:	4462      	add	r2, ip
 80056ba:	8812      	ldrh	r2, [r2, #0]
 80056bc:	b2d1      	uxtb	r1, r2
 80056be:	6afa      	ldr	r2, [r7, #44]	; 0x2c
 80056c0:	54d1      	strb	r1, [r2, r3]
	for(uint32_t j = 0; j < buffer_size; j+=2)
 80056c2:	6cbb      	ldr	r3, [r7, #72]	; 0x48
 80056c4:	3302      	adds	r3, #2
 80056c6:	64bb      	str	r3, [r7, #72]	; 0x48
 80056c8:	6cba      	ldr	r2, [r7, #72]	; 0x48
 80056ca:	6c7b      	ldr	r3, [r7, #68]	; 0x44
 80056cc:	429a      	cmp	r2, r3
 80056ce:	d3e3      	bcc.n	8005698 <_LCD_Write_Frame+0xcc>
	}
	
	uint32_t Sending_size = chunk_size*2;
 80056d0:	69fb      	ldr	r3, [r7, #28]
 80056d2:	005b      	lsls	r3, r3, #1
 80056d4:	62bb      	str	r3, [r7, #40]	; 0x28

	// make sure we don't divide by size=0
	uint32_t Sending_in_Block = 1;
 80056d6:	2301      	movs	r3, #1
 80056d8:	64fb      	str	r3, [r7, #76]	; 0x4c
	uint32_t Remainder_from_block = 0;
 80056da:	2300      	movs	r3, #0
 80056dc:	643b      	str	r3, [r7, #64]	; 0x40
	if(chunk_size > 0)
 80056de:	69fb      	ldr	r3, [r7, #28]
 80056e0:	2b00      	cmp	r3, #0
 80056e2:	d00c      	beq.n	80056fe <_LCD_Write_Frame+0x132>
	{
			Sending_in_Block 		= Sending_size/buffer_size;
 80056e4:	6c79      	ldr	r1, [r7, #68]	; 0x44
 80056e6:	6ab8      	ldr	r0, [r7, #40]	; 0x28
 80056e8:	f7fa fd20 	bl	800012c <__udivsi3>
 80056ec:	0003      	movs	r3, r0
 80056ee:	64fb      	str	r3, [r7, #76]	; 0x4c
			Remainder_from_block 	= Sending_size%buffer_size;
 80056f0:	6abb      	ldr	r3, [r7, #40]	; 0x28
 80056f2:	6c79      	ldr	r1, [r7, #68]	; 0x44
 80056f4:	0018      	movs	r0, r3
 80056f6:	f7fa fd9f 	bl	8000238 <__aeabi_uidivmod>
 80056fa:	000b      	movs	r3, r1
 80056fc:	643b      	str	r3, [r7, #64]	; 0x40
	}

	// send blocks
	LCD_DC_PORT->ODR |= LCD_DC_PIN;
 80056fe:	4b21      	ldr	r3, [pc, #132]	; (8005784 <_LCD_Write_Frame+0x1b8>)
 8005700:	695a      	ldr	r2, [r3, #20]
 8005702:	4b20      	ldr	r3, [pc, #128]	; (8005784 <_LCD_Write_Frame+0x1b8>)
 8005704:	2101      	movs	r1, #1
 8005706:	430a      	orrs	r2, r1
 8005708:	615a      	str	r2, [r3, #20]
	LCD_CS_PORT->ODR &= ~(LCD_CS_PIN);
 800570a:	4b1f      	ldr	r3, [pc, #124]	; (8005788 <_LCD_Write_Frame+0x1bc>)
 800570c:	695a      	ldr	r2, [r3, #20]
 800570e:	4b1e      	ldr	r3, [pc, #120]	; (8005788 <_LCD_Write_Frame+0x1bc>)
 8005710:	2110      	movs	r1, #16
 8005712:	438a      	bics	r2, r1
 8005714:	615a      	str	r2, [r3, #20]
//TODO
	if(Sending_in_Block != 0)
 8005716:	6cfb      	ldr	r3, [r7, #76]	; 0x4c
 8005718:	2b00      	cmp	r3, #0
 800571a:	d00f      	beq.n	800573c <_LCD_Write_Frame+0x170>
	{
		for(uint32_t j = 0; j < (Sending_in_Block); j++)
 800571c:	2300      	movs	r3, #0
 800571e:	63fb      	str	r3, [r7, #60]	; 0x3c
 8005720:	e008      	b.n	8005734 <_LCD_Write_Frame+0x168>
		{
			_SPI_SendByteMultiByte(burst_buffer, buffer_size, 0, 10);
 8005722:	6af8      	ldr	r0, [r7, #44]	; 0x2c
 8005724:	6c79      	ldr	r1, [r7, #68]	; 0x44
 8005726:	230a      	movs	r3, #10
 8005728:	2200      	movs	r2, #0
 800572a:	f000 f8d5 	bl	80058d8 <_SPI_SendByteMultiByte>
		for(uint32_t j = 0; j < (Sending_in_Block); j++)
 800572e:	6bfb      	ldr	r3, [r7, #60]	; 0x3c
 8005730:	3301      	adds	r3, #1
 8005732:	63fb      	str	r3, [r7, #60]	; 0x3c
 8005734:	6bfa      	ldr	r2, [r7, #60]	; 0x3c
 8005736:	6cfb      	ldr	r3, [r7, #76]	; 0x4c
 8005738:	429a      	cmp	r2, r3
 800573a:	d3f2      	bcc.n	8005722 <_LCD_Write_Frame+0x156>
		}
	}

	_SPI_SendByteMultiByte(burst_buffer, Remainder_from_block, 0, 10);
 800573c:	6af8      	ldr	r0, [r7, #44]	; 0x2c
 800573e:	6c39      	ldr	r1, [r7, #64]	; 0x40
 8005740:	230a      	movs	r3, #10
 8005742:	2200      	movs	r2, #0
 8005744:	f000 f8c8 	bl	80058d8 <_SPI_SendByteMultiByte>


	// Additional SPI CS "low" hold
	for(int x=0; x < SPI_DELAY_HOLD; x++)
 8005748:	2300      	movs	r3, #0
 800574a:	63bb      	str	r3, [r7, #56]	; 0x38
 800574c:	e008      	b.n	8005760 <_LCD_Write_Frame+0x194>
		LCD_CS_PORT->ODR &= ~(LCD_CS_PIN);
 800574e:	4b0e      	ldr	r3, [pc, #56]	; (8005788 <_LCD_Write_Frame+0x1bc>)
 8005750:	695a      	ldr	r2, [r3, #20]
 8005752:	4b0d      	ldr	r3, [pc, #52]	; (8005788 <_LCD_Write_Frame+0x1bc>)
 8005754:	2110      	movs	r1, #16
 8005756:	438a      	bics	r2, r1
 8005758:	615a      	str	r2, [r3, #20]
	for(int x=0; x < SPI_DELAY_HOLD; x++)
 800575a:	6bbb      	ldr	r3, [r7, #56]	; 0x38
 800575c:	3301      	adds	r3, #1
 800575e:	63bb      	str	r3, [r7, #56]	; 0x38
 8005760:	6bbb      	ldr	r3, [r7, #56]	; 0x38
 8005762:	2b02      	cmp	r3, #2
 8005764:	ddf3      	ble.n	800574e <_LCD_Write_Frame+0x182>

	LCD_CS_PORT->ODR |= LCD_CS_PIN;
 8005766:	4b08      	ldr	r3, [pc, #32]	; (8005788 <_LCD_Write_Frame+0x1bc>)
 8005768:	695a      	ldr	r2, [r3, #20]
 800576a:	4b07      	ldr	r3, [pc, #28]	; (8005788 <_LCD_Write_Frame+0x1bc>)
 800576c:	2110      	movs	r1, #16
 800576e:	430a      	orrs	r2, r1
 8005770:	615a      	str	r2, [r3, #20]
 8005772:	69bb      	ldr	r3, [r7, #24]
 8005774:	469d      	mov	sp, r3

}
 8005776:	46c0      	nop			; (mov r8, r8)
 8005778:	46bd      	mov	sp, r7
 800577a:	b015      	add	sp, #84	; 0x54
 800577c:	bdf0      	pop	{r4, r5, r6, r7, pc}
 800577e:	46c0      	nop			; (mov r8, r8)
 8005780:	2000000e 	.word	0x2000000e
 8005784:	48000400 	.word	0x48000400
 8005788:	48000800 	.word	0x48000800

0800578c <_LCD_SendCommand>:
 *
 * 	Send command to LCD
 *
 */
void _LCD_SendCommand(uint8_t command)
{
 800578c:	b580      	push	{r7, lr}
 800578e:	b084      	sub	sp, #16
 8005790:	af00      	add	r7, sp, #0
 8005792:	0002      	movs	r2, r0
 8005794:	1dfb      	adds	r3, r7, #7
 8005796:	701a      	strb	r2, [r3, #0]
	LCD_CS_PORT->ODR &= ~(LCD_CS_PIN);
 8005798:	4b15      	ldr	r3, [pc, #84]	; (80057f0 <_LCD_SendCommand+0x64>)
 800579a:	695a      	ldr	r2, [r3, #20]
 800579c:	4b14      	ldr	r3, [pc, #80]	; (80057f0 <_LCD_SendCommand+0x64>)
 800579e:	2110      	movs	r1, #16
 80057a0:	438a      	bics	r2, r1
 80057a2:	615a      	str	r2, [r3, #20]
	LCD_DC_PORT->ODR &= ~(LCD_DC_PIN);
 80057a4:	4b13      	ldr	r3, [pc, #76]	; (80057f4 <_LCD_SendCommand+0x68>)
 80057a6:	695a      	ldr	r2, [r3, #20]
 80057a8:	4b12      	ldr	r3, [pc, #72]	; (80057f4 <_LCD_SendCommand+0x68>)
 80057aa:	2101      	movs	r1, #1
 80057ac:	438a      	bics	r2, r1
 80057ae:	615a      	str	r2, [r3, #20]

	_SPI_SendByte(command, 0 , 0);
 80057b0:	1dfb      	adds	r3, r7, #7
 80057b2:	781b      	ldrb	r3, [r3, #0]
 80057b4:	2200      	movs	r2, #0
 80057b6:	2100      	movs	r1, #0
 80057b8:	0018      	movs	r0, r3
 80057ba:	f000 f853 	bl	8005864 <_SPI_SendByte>

	// Additional SPI CS "low" hold
	for(int x=0; x < SPI_DELAY_HOLD; x++)
 80057be:	2300      	movs	r3, #0
 80057c0:	60fb      	str	r3, [r7, #12]
 80057c2:	e008      	b.n	80057d6 <_LCD_SendCommand+0x4a>
		LCD_CS_PORT->ODR &= ~(LCD_CS_PIN);
 80057c4:	4b0a      	ldr	r3, [pc, #40]	; (80057f0 <_LCD_SendCommand+0x64>)
 80057c6:	695a      	ldr	r2, [r3, #20]
 80057c8:	4b09      	ldr	r3, [pc, #36]	; (80057f0 <_LCD_SendCommand+0x64>)
 80057ca:	2110      	movs	r1, #16
 80057cc:	438a      	bics	r2, r1
 80057ce:	615a      	str	r2, [r3, #20]
	for(int x=0; x < SPI_DELAY_HOLD; x++)
 80057d0:	68fb      	ldr	r3, [r7, #12]
 80057d2:	3301      	adds	r3, #1
 80057d4:	60fb      	str	r3, [r7, #12]
 80057d6:	68fb      	ldr	r3, [r7, #12]
 80057d8:	2b02      	cmp	r3, #2
 80057da:	ddf3      	ble.n	80057c4 <_LCD_SendCommand+0x38>

	LCD_CS_PORT->ODR |= LCD_CS_PIN;
 80057dc:	4b04      	ldr	r3, [pc, #16]	; (80057f0 <_LCD_SendCommand+0x64>)
 80057de:	695a      	ldr	r2, [r3, #20]
 80057e0:	4b03      	ldr	r3, [pc, #12]	; (80057f0 <_LCD_SendCommand+0x64>)
 80057e2:	2110      	movs	r1, #16
 80057e4:	430a      	orrs	r2, r1
 80057e6:	615a      	str	r2, [r3, #20]
}
 80057e8:	46c0      	nop			; (mov r8, r8)
 80057ea:	46bd      	mov	sp, r7
 80057ec:	b004      	add	sp, #16
 80057ee:	bd80      	pop	{r7, pc}
 80057f0:	48000800 	.word	0x48000800
 80057f4:	48000400 	.word	0x48000400

080057f8 <_LCD_SendData>:
 *
 * 	Send Data to LCD
 *
 */
void _LCD_SendData(uint8_t data)
{
 80057f8:	b580      	push	{r7, lr}
 80057fa:	b084      	sub	sp, #16
 80057fc:	af00      	add	r7, sp, #0
 80057fe:	0002      	movs	r2, r0
 8005800:	1dfb      	adds	r3, r7, #7
 8005802:	701a      	strb	r2, [r3, #0]
	LCD_DC_PORT->ODR |= LCD_DC_PIN;
 8005804:	4b15      	ldr	r3, [pc, #84]	; (800585c <_LCD_SendData+0x64>)
 8005806:	695a      	ldr	r2, [r3, #20]
 8005808:	4b14      	ldr	r3, [pc, #80]	; (800585c <_LCD_SendData+0x64>)
 800580a:	2101      	movs	r1, #1
 800580c:	430a      	orrs	r2, r1
 800580e:	615a      	str	r2, [r3, #20]
	LCD_CS_PORT->ODR &= ~(LCD_CS_PIN);
 8005810:	4b13      	ldr	r3, [pc, #76]	; (8005860 <_LCD_SendData+0x68>)
 8005812:	695a      	ldr	r2, [r3, #20]
 8005814:	4b12      	ldr	r3, [pc, #72]	; (8005860 <_LCD_SendData+0x68>)
 8005816:	2110      	movs	r1, #16
 8005818:	438a      	bics	r2, r1
 800581a:	615a      	str	r2, [r3, #20]

	_SPI_SendByte(data, 0 , 0);
 800581c:	1dfb      	adds	r3, r7, #7
 800581e:	781b      	ldrb	r3, [r3, #0]
 8005820:	2200      	movs	r2, #0
 8005822:	2100      	movs	r1, #0
 8005824:	0018      	movs	r0, r3
 8005826:	f000 f81d 	bl	8005864 <_SPI_SendByte>

	// Additional SPI CS "low" hold
	for(int x=0; x < SPI_DELAY_HOLD; x++)
 800582a:	2300      	movs	r3, #0
 800582c:	60fb      	str	r3, [r7, #12]
 800582e:	e008      	b.n	8005842 <_LCD_SendData+0x4a>
		LCD_CS_PORT->ODR &= ~(LCD_CS_PIN);
 8005830:	4b0b      	ldr	r3, [pc, #44]	; (8005860 <_LCD_SendData+0x68>)
 8005832:	695a      	ldr	r2, [r3, #20]
 8005834:	4b0a      	ldr	r3, [pc, #40]	; (8005860 <_LCD_SendData+0x68>)
 8005836:	2110      	movs	r1, #16
 8005838:	438a      	bics	r2, r1
 800583a:	615a      	str	r2, [r3, #20]
	for(int x=0; x < SPI_DELAY_HOLD; x++)
 800583c:	68fb      	ldr	r3, [r7, #12]
 800583e:	3301      	adds	r3, #1
 8005840:	60fb      	str	r3, [r7, #12]
 8005842:	68fb      	ldr	r3, [r7, #12]
 8005844:	2b02      	cmp	r3, #2
 8005846:	ddf3      	ble.n	8005830 <_LCD_SendData+0x38>

	LCD_CS_PORT->ODR &= ~(LCD_CS_PIN);
 8005848:	4b05      	ldr	r3, [pc, #20]	; (8005860 <_LCD_SendData+0x68>)
 800584a:	695a      	ldr	r2, [r3, #20]
 800584c:	4b04      	ldr	r3, [pc, #16]	; (8005860 <_LCD_SendData+0x68>)
 800584e:	2110      	movs	r1, #16
 8005850:	438a      	bics	r2, r1
 8005852:	615a      	str	r2, [r3, #20]
}
 8005854:	46c0      	nop			; (mov r8, r8)
 8005856:	46bd      	mov	sp, r7
 8005858:	b004      	add	sp, #16
 800585a:	bd80      	pop	{r7, pc}
 800585c:	48000400 	.word	0x48000400
 8005860:	48000800 	.word	0x48000800

08005864 <_SPI_SendByte>:
 *
 * 	Send single byte over SPI using HAL or (optimised) direct-to-register
 *
 */
void _SPI_SendByte(unsigned char data_buffer, uint8_t pre_frame_delay, uint8_t post_frame_delay)
{
 8005864:	b590      	push	{r4, r7, lr}
 8005866:	b085      	sub	sp, #20
 8005868:	af00      	add	r7, sp, #0
 800586a:	0004      	movs	r4, r0
 800586c:	0008      	movs	r0, r1
 800586e:	0011      	movs	r1, r2
 8005870:	1dfb      	adds	r3, r7, #7
 8005872:	1c22      	adds	r2, r4, #0
 8005874:	701a      	strb	r2, [r3, #0]
 8005876:	1dbb      	adds	r3, r7, #6
 8005878:	1c02      	adds	r2, r0, #0
 800587a:	701a      	strb	r2, [r3, #0]
 800587c:	1d7b      	adds	r3, r7, #5
 800587e:	1c0a      	adds	r2, r1, #0
 8005880:	701a      	strb	r2, [r3, #0]
#endif

#ifdef USE_BARE_SPI

    // pre frame delay
   	for(int d = 0; d < pre_frame_delay ; d++)
 8005882:	2300      	movs	r3, #0
 8005884:	60fb      	str	r3, [r7, #12]
 8005886:	e003      	b.n	8005890 <_SPI_SendByte+0x2c>
   		asm("nop");
 8005888:	46c0      	nop			; (mov r8, r8)
   	for(int d = 0; d < pre_frame_delay ; d++)
 800588a:	68fb      	ldr	r3, [r7, #12]
 800588c:	3301      	adds	r3, #1
 800588e:	60fb      	str	r3, [r7, #12]
 8005890:	1dbb      	adds	r3, r7, #6
 8005892:	781b      	ldrb	r3, [r3, #0]
 8005894:	68fa      	ldr	r2, [r7, #12]
 8005896:	429a      	cmp	r2, r3
 8005898:	dbf6      	blt.n	8005888 <_SPI_SendByte+0x24>

	// check transmit buffer empty
	if((SPI_PERIPH->SR & SPI_SR_TXE) == SPI_SR_TXE)
 800589a:	4b0d      	ldr	r3, [pc, #52]	; (80058d0 <_SPI_SendByte+0x6c>)
 800589c:	689b      	ldr	r3, [r3, #8]
 800589e:	2202      	movs	r2, #2
 80058a0:	4013      	ands	r3, r2
 80058a2:	2b02      	cmp	r3, #2
 80058a4:	d103      	bne.n	80058ae <_SPI_SendByte+0x4a>
	{
		*(volatile uint8_t *)&SPI_PERIPH->DR = data_buffer;
 80058a6:	4a0b      	ldr	r2, [pc, #44]	; (80058d4 <_SPI_SendByte+0x70>)
 80058a8:	1dfb      	adds	r3, r7, #7
 80058aa:	781b      	ldrb	r3, [r3, #0]
 80058ac:	7013      	strb	r3, [r2, #0]
	}

    // post frame delay
   	for(int d = 0; d < post_frame_delay ; d++)
 80058ae:	2300      	movs	r3, #0
 80058b0:	60bb      	str	r3, [r7, #8]
 80058b2:	e003      	b.n	80058bc <_SPI_SendByte+0x58>
   		asm("nop");
 80058b4:	46c0      	nop			; (mov r8, r8)
   	for(int d = 0; d < post_frame_delay ; d++)
 80058b6:	68bb      	ldr	r3, [r7, #8]
 80058b8:	3301      	adds	r3, #1
 80058ba:	60bb      	str	r3, [r7, #8]
 80058bc:	1d7b      	adds	r3, r7, #5
 80058be:	781b      	ldrb	r3, [r3, #0]
 80058c0:	68ba      	ldr	r2, [r7, #8]
 80058c2:	429a      	cmp	r2, r3
 80058c4:	dbf6      	blt.n	80058b4 <_SPI_SendByte+0x50>

#endif

}
 80058c6:	46c0      	nop			; (mov r8, r8)
 80058c8:	46bd      	mov	sp, r7
 80058ca:	b005      	add	sp, #20
 80058cc:	bd90      	pop	{r4, r7, pc}
 80058ce:	46c0      	nop			; (mov r8, r8)
 80058d0:	40013000 	.word	0x40013000
 80058d4:	4001300c 	.word	0x4001300c

080058d8 <_SPI_SendByteMultiByte>:
 *
 * 	Send multiple bytes over SPI using HAL or (optimised) direct-to-register
 *
 */
void _SPI_SendByteMultiByte(unsigned char *data_buffer, uint32_t buffer_size, uint8_t pre_frame_delay, uint8_t post_frame_delay)
{
 80058d8:	b580      	push	{r7, lr}
 80058da:	b088      	sub	sp, #32
 80058dc:	af00      	add	r7, sp, #0
 80058de:	60f8      	str	r0, [r7, #12]
 80058e0:	60b9      	str	r1, [r7, #8]
 80058e2:	0019      	movs	r1, r3
 80058e4:	1dfb      	adds	r3, r7, #7
 80058e6:	701a      	strb	r2, [r3, #0]
 80058e8:	1dbb      	adds	r3, r7, #6
 80058ea:	1c0a      	adds	r2, r1, #0
 80058ec:	701a      	strb	r2, [r3, #0]
#endif

#ifdef USE_BARE_SPI

    // pre frame delay
   	for(int d = 0; d < pre_frame_delay ; d++)
 80058ee:	2300      	movs	r3, #0
 80058f0:	61fb      	str	r3, [r7, #28]
 80058f2:	e003      	b.n	80058fc <_SPI_SendByteMultiByte+0x24>
   		asm("nop");
 80058f4:	46c0      	nop			; (mov r8, r8)
   	for(int d = 0; d < pre_frame_delay ; d++)
 80058f6:	69fb      	ldr	r3, [r7, #28]
 80058f8:	3301      	adds	r3, #1
 80058fa:	61fb      	str	r3, [r7, #28]
 80058fc:	1dfb      	adds	r3, r7, #7
 80058fe:	781b      	ldrb	r3, [r3, #0]
 8005900:	69fa      	ldr	r2, [r7, #28]
 8005902:	429a      	cmp	r2, r3
 8005904:	dbf6      	blt.n	80058f4 <_SPI_SendByteMultiByte+0x1c>

	uint8_t *p_data_buffer = (uint8_t *)data_buffer;
 8005906:	68fb      	ldr	r3, [r7, #12]
 8005908:	61bb      	str	r3, [r7, #24]
	//volatile uint16_t TxXferCount = (uint16_t)buffer_size;

	while (buffer_size > 0U)
 800590a:	e01d      	b.n	8005948 <_SPI_SendByteMultiByte+0x70>
	{
		// check transmit buffer empty
		if ((SPI_PERIPH->SR & SPI_SR_TXE) == SPI_SR_TXE)
 800590c:	4b1b      	ldr	r3, [pc, #108]	; (800597c <_SPI_SendByteMultiByte+0xa4>)
 800590e:	689b      	ldr	r3, [r3, #8]
 8005910:	2202      	movs	r2, #2
 8005912:	4013      	ands	r3, r2
 8005914:	2b02      	cmp	r3, #2
 8005916:	d117      	bne.n	8005948 <_SPI_SendByteMultiByte+0x70>
		{
			if (buffer_size > 1U)
 8005918:	68bb      	ldr	r3, [r7, #8]
 800591a:	2b01      	cmp	r3, #1
 800591c:	d90a      	bls.n	8005934 <_SPI_SendByteMultiByte+0x5c>
			{
				// write on the data register in packing mode
				SPI_PERIPH->DR = *((uint16_t *)p_data_buffer);
 800591e:	69bb      	ldr	r3, [r7, #24]
 8005920:	881a      	ldrh	r2, [r3, #0]
 8005922:	4b16      	ldr	r3, [pc, #88]	; (800597c <_SPI_SendByteMultiByte+0xa4>)
 8005924:	60da      	str	r2, [r3, #12]
				p_data_buffer += sizeof(uint16_t);
 8005926:	69bb      	ldr	r3, [r7, #24]
 8005928:	3302      	adds	r3, #2
 800592a:	61bb      	str	r3, [r7, #24]
				buffer_size -= 2U;
 800592c:	68bb      	ldr	r3, [r7, #8]
 800592e:	3b02      	subs	r3, #2
 8005930:	60bb      	str	r3, [r7, #8]
 8005932:	e009      	b.n	8005948 <_SPI_SendByteMultiByte+0x70>
			}
			else
			{
				*((volatile uint8_t *)&SPI_PERIPH->DR) = (*p_data_buffer);
 8005934:	4a12      	ldr	r2, [pc, #72]	; (8005980 <_SPI_SendByteMultiByte+0xa8>)
 8005936:	69bb      	ldr	r3, [r7, #24]
 8005938:	781b      	ldrb	r3, [r3, #0]
 800593a:	7013      	strb	r3, [r2, #0]
				p_data_buffer++;
 800593c:	69bb      	ldr	r3, [r7, #24]
 800593e:	3301      	adds	r3, #1
 8005940:	61bb      	str	r3, [r7, #24]
				buffer_size--;
 8005942:	68bb      	ldr	r3, [r7, #8]
 8005944:	3b01      	subs	r3, #1
 8005946:	60bb      	str	r3, [r7, #8]
	while (buffer_size > 0U)
 8005948:	68bb      	ldr	r3, [r7, #8]
 800594a:	2b00      	cmp	r3, #0
 800594c:	d1de      	bne.n	800590c <_SPI_SendByteMultiByte+0x34>
			}
		}
	}

	// clear SPI overrun flag
	SPI_PERIPH->SR &= ~(SPI_SR_OVR);
 800594e:	4b0b      	ldr	r3, [pc, #44]	; (800597c <_SPI_SendByteMultiByte+0xa4>)
 8005950:	689a      	ldr	r2, [r3, #8]
 8005952:	4b0a      	ldr	r3, [pc, #40]	; (800597c <_SPI_SendByteMultiByte+0xa4>)
 8005954:	2140      	movs	r1, #64	; 0x40
 8005956:	438a      	bics	r2, r1
 8005958:	609a      	str	r2, [r3, #8]

    // post frame delay
   	for(int d = 0; d < post_frame_delay ; d++)
 800595a:	2300      	movs	r3, #0
 800595c:	617b      	str	r3, [r7, #20]
 800595e:	e003      	b.n	8005968 <_SPI_SendByteMultiByte+0x90>
   		asm("nop");
 8005960:	46c0      	nop			; (mov r8, r8)
   	for(int d = 0; d < post_frame_delay ; d++)
 8005962:	697b      	ldr	r3, [r7, #20]
 8005964:	3301      	adds	r3, #1
 8005966:	617b      	str	r3, [r7, #20]
 8005968:	1dbb      	adds	r3, r7, #6
 800596a:	781b      	ldrb	r3, [r3, #0]
 800596c:	697a      	ldr	r2, [r7, #20]
 800596e:	429a      	cmp	r2, r3
 8005970:	dbf6      	blt.n	8005960 <_SPI_SendByteMultiByte+0x88>

#endif

}
 8005972:	46c0      	nop			; (mov r8, r8)
 8005974:	46bd      	mov	sp, r7
 8005976:	b008      	add	sp, #32
 8005978:	bd80      	pop	{r7, pc}
 800597a:	46c0      	nop			; (mov r8, r8)
 800597c:	40013000 	.word	0x40013000
 8005980:	4001300c 	.word	0x4001300c

08005984 <TSC2046_EM_GetTouchScreenState>:
 *	@retval TSC2046_StatesTypedef - 	TSC2046_IdleState = 0x0,
											TSC2046_ConversionState
 *
 */
TSC2046_StatesTypedef 	TSC2046_EM_GetTouchScreenState()
{
 8005984:	b580      	push	{r7, lr}
 8005986:	af00      	add	r7, sp, #0
	return eTouchScreenState;
 8005988:	4b02      	ldr	r3, [pc, #8]	; (8005994 <TSC2046_EM_GetTouchScreenState+0x10>)
 800598a:	781b      	ldrb	r3, [r3, #0]
}
 800598c:	0018      	movs	r0, r3
 800598e:	46bd      	mov	sp, r7
 8005990:	bd80      	pop	{r7, pc}
 8005992:	46c0      	nop			; (mov r8, r8)
 8005994:	200001fc 	.word	0x200001fc

08005998 <TSC2046_EM_ProcessEvent>:
 *	@param newEvent
 *	@retval None
 *
 */
void TSC2046_EM_ProcessEvent(TSC2046_EventsTypedef newEvent)
{
 8005998:	b580      	push	{r7, lr}
 800599a:	b082      	sub	sp, #8
 800599c:	af00      	add	r7, sp, #0
 800599e:	0002      	movs	r2, r0
 80059a0:	1dfb      	adds	r3, r7, #7
 80059a2:	701a      	strb	r2, [r3, #0]
	switch(eTouchScreenState)
 80059a4:	4b0f      	ldr	r3, [pc, #60]	; (80059e4 <TSC2046_EM_ProcessEvent+0x4c>)
 80059a6:	781b      	ldrb	r3, [r3, #0]
 80059a8:	3300      	adds	r3, #0
 80059aa:	2b01      	cmp	r3, #1
 80059ac:	d815      	bhi.n	80059da <TSC2046_EM_ProcessEvent+0x42>
	{
		case TSC2046_IdleState:
		case TSC2046_ConversionState:

			switch(newEvent)
 80059ae:	1dfb      	adds	r3, r7, #7
 80059b0:	781b      	ldrb	r3, [r3, #0]
 80059b2:	2b00      	cmp	r3, #0
 80059b4:	d002      	beq.n	80059bc <TSC2046_EM_ProcessEvent+0x24>
 80059b6:	2b01      	cmp	r3, #1
 80059b8:	d007      	beq.n	80059ca <TSC2046_EM_ProcessEvent+0x32>

				case TSC2046_evPen:
					eTouchScreenState = TSC2046_EM_EnableConversionState();
					break;
			}
			break;
 80059ba:	e00d      	b.n	80059d8 <TSC2046_EM_ProcessEvent+0x40>
					eTouchScreenState = TSC2046_EM_EnableIdleState();
 80059bc:	f000 f81a 	bl	80059f4 <TSC2046_EM_EnableIdleState>
 80059c0:	0003      	movs	r3, r0
 80059c2:	001a      	movs	r2, r3
 80059c4:	4b07      	ldr	r3, [pc, #28]	; (80059e4 <TSC2046_EM_ProcessEvent+0x4c>)
 80059c6:	701a      	strb	r2, [r3, #0]
					break;
 80059c8:	e006      	b.n	80059d8 <TSC2046_EM_ProcessEvent+0x40>
					eTouchScreenState = TSC2046_EM_EnableConversionState();
 80059ca:	f000 f80d 	bl	80059e8 <TSC2046_EM_EnableConversionState>
 80059ce:	0003      	movs	r3, r0
 80059d0:	001a      	movs	r2, r3
 80059d2:	4b04      	ldr	r3, [pc, #16]	; (80059e4 <TSC2046_EM_ProcessEvent+0x4c>)
 80059d4:	701a      	strb	r2, [r3, #0]
					break;
 80059d6:	46c0      	nop			; (mov r8, r8)
			break;
 80059d8:	46c0      	nop			; (mov r8, r8)
	}
}
 80059da:	46c0      	nop			; (mov r8, r8)
 80059dc:	46bd      	mov	sp, r7
 80059de:	b002      	add	sp, #8
 80059e0:	bd80      	pop	{r7, pc}
 80059e2:	46c0      	nop			; (mov r8, r8)
 80059e4:	200001fc 	.word	0x200001fc

080059e8 <TSC2046_EM_EnableConversionState>:
 *	@param None
 *	@retval TSC2046_StatesTypedef
 *
 */
TSC2046_StatesTypedef	TSC2046_EM_EnableConversionState()
{
 80059e8:	b580      	push	{r7, lr}
 80059ea:	af00      	add	r7, sp, #0
	return TSC2046_ConversionState;
 80059ec:	2301      	movs	r3, #1
}
 80059ee:	0018      	movs	r0, r3
 80059f0:	46bd      	mov	sp, r7
 80059f2:	bd80      	pop	{r7, pc}

080059f4 <TSC2046_EM_EnableIdleState>:
 *	@param None
 *	@retval TSC2046_StatesTypedef
 *
 */
TSC2046_StatesTypedef	TSC2046_EM_EnableIdleState()
{
 80059f4:	b580      	push	{r7, lr}
 80059f6:	af00      	add	r7, sp, #0
	//HAL_GPIO_WritePin(TSC2046_IRQ_PORT, TSC2046_IRQ_PIN, GPIO_PIN_RESET);
	return TSC2046_IdleState;
 80059f8:	2300      	movs	r3, #0
}
 80059fa:	0018      	movs	r0, r3
 80059fc:	46bd      	mov	sp, r7
 80059fe:	bd80      	pop	{r7, pc}

08005a00 <TSC2046_HM_Init>:
 *	@param None
 *	@retval
 *
 */
void TSC2046_HM_Init()
{
 8005a00:	b580      	push	{r7, lr}
 8005a02:	b082      	sub	sp, #8
 8005a04:	af00      	add	r7, sp, #0
	TSC2046_HW_LOOP_TIMER->PSC = 0;
 8005a06:	4b15      	ldr	r3, [pc, #84]	; (8005a5c <TSC2046_HM_Init+0x5c>)
 8005a08:	2200      	movs	r2, #0
 8005a0a:	629a      	str	r2, [r3, #40]	; 0x28
	TSC2046_HW_LOOP_TIMER->ARR = 4095;
 8005a0c:	4b13      	ldr	r3, [pc, #76]	; (8005a5c <TSC2046_HM_Init+0x5c>)
 8005a0e:	4a14      	ldr	r2, [pc, #80]	; (8005a60 <TSC2046_HM_Init+0x60>)
 8005a10:	62da      	str	r2, [r3, #44]	; 0x2c
	TSC2046_HW_LOOP_TIMER->CR1 |= TIM_CR1_CEN;
 8005a12:	4b12      	ldr	r3, [pc, #72]	; (8005a5c <TSC2046_HM_Init+0x5c>)
 8005a14:	681a      	ldr	r2, [r3, #0]
 8005a16:	4b11      	ldr	r3, [pc, #68]	; (8005a5c <TSC2046_HM_Init+0x5c>)
 8005a18:	2101      	movs	r1, #1
 8005a1a:	430a      	orrs	r2, r1
 8005a1c:	601a      	str	r2, [r3, #0]
	TSC2046_HW_LOOP_TIMER->DIER |= TIM_DIER_UIE;
 8005a1e:	4b0f      	ldr	r3, [pc, #60]	; (8005a5c <TSC2046_HM_Init+0x5c>)
 8005a20:	68da      	ldr	r2, [r3, #12]
 8005a22:	4b0e      	ldr	r3, [pc, #56]	; (8005a5c <TSC2046_HM_Init+0x5c>)
 8005a24:	2101      	movs	r1, #1
 8005a26:	430a      	orrs	r2, r1
 8005a28:	60da      	str	r2, [r3, #12]

#if TSC2046_OVERSAMPLE > 0

	// statically initialise the array to hold
	// read values from TSC2046 touch controller
	for(int p = 0; p < TSC2046_OVERSAMPLE; p++)
 8005a2a:	2300      	movs	r3, #0
 8005a2c:	607b      	str	r3, [r7, #4]
 8005a2e:	e00e      	b.n	8005a4e <TSC2046_HM_Init+0x4e>
	{
		tsc2046_data[p].XPOS = 0;
 8005a30:	4b0c      	ldr	r3, [pc, #48]	; (8005a64 <TSC2046_HM_Init+0x64>)
 8005a32:	687a      	ldr	r2, [r7, #4]
 8005a34:	0092      	lsls	r2, r2, #2
 8005a36:	2100      	movs	r1, #0
 8005a38:	52d1      	strh	r1, [r2, r3]
		tsc2046_data[p].YPOS = 0;
 8005a3a:	4a0a      	ldr	r2, [pc, #40]	; (8005a64 <TSC2046_HM_Init+0x64>)
 8005a3c:	687b      	ldr	r3, [r7, #4]
 8005a3e:	009b      	lsls	r3, r3, #2
 8005a40:	18d3      	adds	r3, r2, r3
 8005a42:	3302      	adds	r3, #2
 8005a44:	2200      	movs	r2, #0
 8005a46:	801a      	strh	r2, [r3, #0]
	for(int p = 0; p < TSC2046_OVERSAMPLE; p++)
 8005a48:	687b      	ldr	r3, [r7, #4]
 8005a4a:	3301      	adds	r3, #1
 8005a4c:	607b      	str	r3, [r7, #4]
 8005a4e:	687b      	ldr	r3, [r7, #4]
 8005a50:	2b00      	cmp	r3, #0
 8005a52:	dded      	ble.n	8005a30 <TSC2046_HM_Init+0x30>

#else
	#error "TSC2046_OVERSAMPLE (TSC2046_STM32_HardwareManager.h) cannot be zero!"
#endif

}
 8005a54:	46c0      	nop			; (mov r8, r8)
 8005a56:	46bd      	mov	sp, r7
 8005a58:	b002      	add	sp, #8
 8005a5a:	bd80      	pop	{r7, pc}
 8005a5c:	40014800 	.word	0x40014800
 8005a60:	00000fff 	.word	0x00000fff
 8005a64:	20000364 	.word	0x20000364

08005a68 <TSC2046_HM_RunConversion>:
 *	@param None
 *	@retval
 *
 */
eTSC2046ReadStatusTypedef TSC2046_HM_RunConversion()
{
 8005a68:	b580      	push	{r7, lr}
 8005a6a:	b082      	sub	sp, #8
 8005a6c:	af00      	add	r7, sp, #0
	eTSC2046ReadStatusTypedef status = TSC2046_DATAOK;
 8005a6e:	1dfb      	adds	r3, r7, #7
 8005a70:	2200      	movs	r2, #0
 8005a72:	701a      	strb	r2, [r3, #0]
	#else
		//TS_CS_GPIO_Port->ODR |= TS_CS_Pin;
		//_SetCsPinHigh();
	#endif

	if(TSC2046_EM_GetTouchScreenState() == TSC2046_ConversionState)
 8005a74:	f7ff ff86 	bl	8005984 <TSC2046_EM_GetTouchScreenState>
 8005a78:	0003      	movs	r3, r0
 8005a7a:	2b01      	cmp	r3, #1
 8005a7c:	d138      	bne.n	8005af0 <TSC2046_HM_RunConversion+0x88>
	{

	// Check SPI is enabled
		_EnableSPI();
 8005a7e:	f000 f8b7 	bl	8005bf0 <_EnableSPI>
			HAL_SPI_Receive(&hspi2, tsc2046_read_ypos_data, 2, 1);

			HAL_GPIO_WritePin(TS_CS_GPIO_Port, TS_CS_Pin, GPIO_PIN_SET);
		#else

			for( int s = 0; s < TSC2046_OVERSAMPLE; s++)
 8005a82:	2300      	movs	r3, #0
 8005a84:	603b      	str	r3, [r7, #0]
 8005a86:	e02d      	b.n	8005ae4 <TSC2046_HM_RunConversion+0x7c>
			{
				_SetCsPinLow();
 8005a88:	f000 f8a2 	bl	8005bd0 <_SetCsPinLow>
				//_WaitDelay(100);

				_SpiTransmit8(YPOSCMD);							// Y POS CMD transmit
 8005a8c:	20d0      	movs	r0, #208	; 0xd0
 8005a8e:	f000 f8c3 	bl	8005c18 <_SpiTransmit8>

				_SpiReceive16();								// dummy receive
 8005a92:	f000 f8d9 	bl	8005c48 <_SpiReceive16>


				//_WaitDelay(0);

				_SpiTransmit8(YPOSCMD);							// Y POS CMD transmit
 8005a96:	20d0      	movs	r0, #208	; 0xd0
 8005a98:	f000 f8be 	bl	8005c18 <_SpiTransmit8>
				tsc2046_data[s].YPOS = _SpiReceive16();		// Y POS receive
 8005a9c:	f000 f8d4 	bl	8005c48 <_SpiReceive16>
 8005aa0:	0003      	movs	r3, r0
 8005aa2:	0019      	movs	r1, r3
 8005aa4:	4a1a      	ldr	r2, [pc, #104]	; (8005b10 <TSC2046_HM_RunConversion+0xa8>)
 8005aa6:	683b      	ldr	r3, [r7, #0]
 8005aa8:	009b      	lsls	r3, r3, #2
 8005aaa:	18d3      	adds	r3, r2, r3
 8005aac:	3302      	adds	r3, #2
 8005aae:	1c0a      	adds	r2, r1, #0
 8005ab0:	801a      	strh	r2, [r3, #0]

				//_WaitDelay(100);
				_SetCsPinHigh();
 8005ab2:	f000 f87f 	bl	8005bb4 <_SetCsPinHigh>

				_SetCsPinLow();
 8005ab6:	f000 f88b 	bl	8005bd0 <_SetCsPinLow>
				//_WaitDelay(100);

				_SpiTransmit8(XPOSCMD);							// X POS CMD transmit
 8005aba:	2090      	movs	r0, #144	; 0x90
 8005abc:	f000 f8ac 	bl	8005c18 <_SpiTransmit8>
				_SpiReceive16();								// dummy receive
 8005ac0:	f000 f8c2 	bl	8005c48 <_SpiReceive16>

				//_WaitDelay(0);

				_SpiTransmit8(XPOSCMD);							// X POS CMD transmit
 8005ac4:	2090      	movs	r0, #144	; 0x90
 8005ac6:	f000 f8a7 	bl	8005c18 <_SpiTransmit8>
				tsc2046_data[s].XPOS = _SpiReceive16();		// Y POS receive
 8005aca:	f000 f8bd 	bl	8005c48 <_SpiReceive16>
 8005ace:	0003      	movs	r3, r0
 8005ad0:	0019      	movs	r1, r3
 8005ad2:	4b0f      	ldr	r3, [pc, #60]	; (8005b10 <TSC2046_HM_RunConversion+0xa8>)
 8005ad4:	683a      	ldr	r2, [r7, #0]
 8005ad6:	0092      	lsls	r2, r2, #2
 8005ad8:	52d1      	strh	r1, [r2, r3]

				//_WaitDelay(100);
				_SetCsPinHigh();
 8005ada:	f000 f86b 	bl	8005bb4 <_SetCsPinHigh>
			for( int s = 0; s < TSC2046_OVERSAMPLE; s++)
 8005ade:	683b      	ldr	r3, [r7, #0]
 8005ae0:	3301      	adds	r3, #1
 8005ae2:	603b      	str	r3, [r7, #0]
 8005ae4:	683b      	ldr	r3, [r7, #0]
 8005ae6:	2b00      	cmp	r3, #0
 8005ae8:	ddce      	ble.n	8005a88 <TSC2046_HM_RunConversion+0x20>
			}

		#endif

		#ifdef TSC2046_USE_QVGA
			TSC2046_HM_ConvertToQVGA();
 8005aea:	f000 f813 	bl	8005b14 <TSC2046_HM_ConvertToQVGA>
 8005aee:	e008      	b.n	8005b02 <TSC2046_HM_RunConversion+0x9a>
		#endif

	}
	else
	{
		tsc2046_data[0].XPOS = 0;
 8005af0:	4b07      	ldr	r3, [pc, #28]	; (8005b10 <TSC2046_HM_RunConversion+0xa8>)
 8005af2:	2200      	movs	r2, #0
 8005af4:	801a      	strh	r2, [r3, #0]
		tsc2046_data[0].YPOS = 0;
 8005af6:	4b06      	ldr	r3, [pc, #24]	; (8005b10 <TSC2046_HM_RunConversion+0xa8>)
 8005af8:	2200      	movs	r2, #0
 8005afa:	805a      	strh	r2, [r3, #2]
		status = TSC2046_DATAERR;
 8005afc:	1dfb      	adds	r3, r7, #7
 8005afe:	2201      	movs	r2, #1
 8005b00:	701a      	strb	r2, [r3, #0]
	}

	return status;
 8005b02:	1dfb      	adds	r3, r7, #7
 8005b04:	781b      	ldrb	r3, [r3, #0]

}
 8005b06:	0018      	movs	r0, r3
 8005b08:	46bd      	mov	sp, r7
 8005b0a:	b002      	add	sp, #8
 8005b0c:	bd80      	pop	{r7, pc}
 8005b0e:	46c0      	nop			; (mov r8, r8)
 8005b10:	20000364 	.word	0x20000364

08005b14 <TSC2046_HM_ConvertToQVGA>:
 *	@param None
 *	@retval
 *
 */
void TSC2046_HM_ConvertToQVGA()
{
 8005b14:	b590      	push	{r4, r7, lr}
 8005b16:	b083      	sub	sp, #12
 8005b18:	af00      	add	r7, sp, #0
	uint16_t QVGA_MAX_XRES = 	320;
 8005b1a:	1dbb      	adds	r3, r7, #6
 8005b1c:	22a0      	movs	r2, #160	; 0xa0
 8005b1e:	0052      	lsls	r2, r2, #1
 8005b20:	801a      	strh	r2, [r3, #0]
	uint16_t QVGA_MAX_YRES = 	240;
 8005b22:	1d3b      	adds	r3, r7, #4
 8005b24:	22f0      	movs	r2, #240	; 0xf0
 8005b26:	801a      	strh	r2, [r3, #0]

	// Convert to
	tsc2046_data[0].XPOS /= QVGA_MAX_XRES;
 8005b28:	4b21      	ldr	r3, [pc, #132]	; (8005bb0 <TSC2046_HM_ConvertToQVGA+0x9c>)
 8005b2a:	881a      	ldrh	r2, [r3, #0]
 8005b2c:	1dbb      	adds	r3, r7, #6
 8005b2e:	881b      	ldrh	r3, [r3, #0]
 8005b30:	0019      	movs	r1, r3
 8005b32:	0010      	movs	r0, r2
 8005b34:	f7fa fafa 	bl	800012c <__udivsi3>
 8005b38:	0003      	movs	r3, r0
 8005b3a:	b29a      	uxth	r2, r3
 8005b3c:	4b1c      	ldr	r3, [pc, #112]	; (8005bb0 <TSC2046_HM_ConvertToQVGA+0x9c>)
 8005b3e:	801a      	strh	r2, [r3, #0]
	tsc2046_data[0].YPOS /= QVGA_MAX_YRES;
 8005b40:	4b1b      	ldr	r3, [pc, #108]	; (8005bb0 <TSC2046_HM_ConvertToQVGA+0x9c>)
 8005b42:	885a      	ldrh	r2, [r3, #2]
 8005b44:	1d3b      	adds	r3, r7, #4
 8005b46:	881b      	ldrh	r3, [r3, #0]
 8005b48:	0019      	movs	r1, r3
 8005b4a:	0010      	movs	r0, r2
 8005b4c:	f7fa faee 	bl	800012c <__udivsi3>
 8005b50:	0003      	movs	r3, r0
 8005b52:	b29a      	uxth	r2, r3
 8005b54:	4b16      	ldr	r3, [pc, #88]	; (8005bb0 <TSC2046_HM_ConvertToQVGA+0x9c>)
 8005b56:	805a      	strh	r2, [r3, #2]
		tsc2046_data[0].YPOS = QVGA_MAX_YRES - tsc2046_data[0].YPOS;
	#endif


	// Offset adjustment
	tsc2046_data[0].XPOS -= 10;
 8005b58:	4b15      	ldr	r3, [pc, #84]	; (8005bb0 <TSC2046_HM_ConvertToQVGA+0x9c>)
 8005b5a:	881b      	ldrh	r3, [r3, #0]
 8005b5c:	3b0a      	subs	r3, #10
 8005b5e:	b29a      	uxth	r2, r3
 8005b60:	4b13      	ldr	r3, [pc, #76]	; (8005bb0 <TSC2046_HM_ConvertToQVGA+0x9c>)
 8005b62:	801a      	strh	r2, [r3, #0]
	tsc2046_data[0].YPOS -= 10;
 8005b64:	4b12      	ldr	r3, [pc, #72]	; (8005bb0 <TSC2046_HM_ConvertToQVGA+0x9c>)
 8005b66:	885b      	ldrh	r3, [r3, #2]
 8005b68:	3b0a      	subs	r3, #10
 8005b6a:	b29a      	uxth	r2, r3
 8005b6c:	4b10      	ldr	r3, [pc, #64]	; (8005bb0 <TSC2046_HM_ConvertToQVGA+0x9c>)
 8005b6e:	805a      	strh	r2, [r3, #2]

	// Scale adjustment
	tsc2046_data[0].XPOS *= (QVGA_MAX_XRES/80);
 8005b70:	4b0f      	ldr	r3, [pc, #60]	; (8005bb0 <TSC2046_HM_ConvertToQVGA+0x9c>)
 8005b72:	881c      	ldrh	r4, [r3, #0]
 8005b74:	1dbb      	adds	r3, r7, #6
 8005b76:	881b      	ldrh	r3, [r3, #0]
 8005b78:	2150      	movs	r1, #80	; 0x50
 8005b7a:	0018      	movs	r0, r3
 8005b7c:	f7fa fad6 	bl	800012c <__udivsi3>
 8005b80:	0003      	movs	r3, r0
 8005b82:	b29b      	uxth	r3, r3
 8005b84:	4363      	muls	r3, r4
 8005b86:	b29a      	uxth	r2, r3
 8005b88:	4b09      	ldr	r3, [pc, #36]	; (8005bb0 <TSC2046_HM_ConvertToQVGA+0x9c>)
 8005b8a:	801a      	strh	r2, [r3, #0]
	tsc2046_data[0].YPOS *= (QVGA_MAX_YRES/100);
 8005b8c:	4b08      	ldr	r3, [pc, #32]	; (8005bb0 <TSC2046_HM_ConvertToQVGA+0x9c>)
 8005b8e:	885c      	ldrh	r4, [r3, #2]
 8005b90:	1d3b      	adds	r3, r7, #4
 8005b92:	881b      	ldrh	r3, [r3, #0]
 8005b94:	2164      	movs	r1, #100	; 0x64
 8005b96:	0018      	movs	r0, r3
 8005b98:	f7fa fac8 	bl	800012c <__udivsi3>
 8005b9c:	0003      	movs	r3, r0
 8005b9e:	b29b      	uxth	r3, r3
 8005ba0:	4363      	muls	r3, r4
 8005ba2:	b29a      	uxth	r2, r3
 8005ba4:	4b02      	ldr	r3, [pc, #8]	; (8005bb0 <TSC2046_HM_ConvertToQVGA+0x9c>)
 8005ba6:	805a      	strh	r2, [r3, #2]

}
 8005ba8:	46c0      	nop			; (mov r8, r8)
 8005baa:	46bd      	mov	sp, r7
 8005bac:	b003      	add	sp, #12
 8005bae:	bd90      	pop	{r4, r7, pc}
 8005bb0:	20000364 	.word	0x20000364

08005bb4 <_SetCsPinHigh>:
 *	@param None
 *	@retval
 *
 */
void _SetCsPinHigh()
{
 8005bb4:	b580      	push	{r7, lr}
 8005bb6:	af00      	add	r7, sp, #0
	TS_CS_GPIO_Port->ODR |= TS_CS_Pin;
 8005bb8:	4b04      	ldr	r3, [pc, #16]	; (8005bcc <_SetCsPinHigh+0x18>)
 8005bba:	695a      	ldr	r2, [r3, #20]
 8005bbc:	4b03      	ldr	r3, [pc, #12]	; (8005bcc <_SetCsPinHigh+0x18>)
 8005bbe:	2180      	movs	r1, #128	; 0x80
 8005bc0:	0149      	lsls	r1, r1, #5
 8005bc2:	430a      	orrs	r2, r1
 8005bc4:	615a      	str	r2, [r3, #20]
}
 8005bc6:	46c0      	nop			; (mov r8, r8)
 8005bc8:	46bd      	mov	sp, r7
 8005bca:	bd80      	pop	{r7, pc}
 8005bcc:	48000400 	.word	0x48000400

08005bd0 <_SetCsPinLow>:
 *	@param None
 *	@retval
 *
 */
void _SetCsPinLow()
{
 8005bd0:	b580      	push	{r7, lr}
 8005bd2:	af00      	add	r7, sp, #0
	TS_CS_GPIO_Port->ODR &= ~TS_CS_Pin;
 8005bd4:	4b04      	ldr	r3, [pc, #16]	; (8005be8 <_SetCsPinLow+0x18>)
 8005bd6:	695a      	ldr	r2, [r3, #20]
 8005bd8:	4b03      	ldr	r3, [pc, #12]	; (8005be8 <_SetCsPinLow+0x18>)
 8005bda:	4904      	ldr	r1, [pc, #16]	; (8005bec <_SetCsPinLow+0x1c>)
 8005bdc:	400a      	ands	r2, r1
 8005bde:	615a      	str	r2, [r3, #20]

}
 8005be0:	46c0      	nop			; (mov r8, r8)
 8005be2:	46bd      	mov	sp, r7
 8005be4:	bd80      	pop	{r7, pc}
 8005be6:	46c0      	nop			; (mov r8, r8)
 8005be8:	48000400 	.word	0x48000400
 8005bec:	ffffefff 	.word	0xffffefff

08005bf0 <_EnableSPI>:
 *	@param None
 *	@retval
 *
 */
void _EnableSPI()
{
 8005bf0:	b580      	push	{r7, lr}
 8005bf2:	af00      	add	r7, sp, #0
	// Check SPI is enabled
	if ((TSC2046_SPI->CR1 & SPI_CR1_SPE) != SPI_CR1_SPE)
 8005bf4:	4b07      	ldr	r3, [pc, #28]	; (8005c14 <_EnableSPI+0x24>)
 8005bf6:	681b      	ldr	r3, [r3, #0]
 8005bf8:	2240      	movs	r2, #64	; 0x40
 8005bfa:	4013      	ands	r3, r2
 8005bfc:	2b40      	cmp	r3, #64	; 0x40
 8005bfe:	d005      	beq.n	8005c0c <_EnableSPI+0x1c>
	{
		TSC2046_SPI->CR1 |= SPI_CR1_SPE;
 8005c00:	4b04      	ldr	r3, [pc, #16]	; (8005c14 <_EnableSPI+0x24>)
 8005c02:	681a      	ldr	r2, [r3, #0]
 8005c04:	4b03      	ldr	r3, [pc, #12]	; (8005c14 <_EnableSPI+0x24>)
 8005c06:	2140      	movs	r1, #64	; 0x40
 8005c08:	430a      	orrs	r2, r1
 8005c0a:	601a      	str	r2, [r3, #0]

	}

}
 8005c0c:	46c0      	nop			; (mov r8, r8)
 8005c0e:	46bd      	mov	sp, r7
 8005c10:	bd80      	pop	{r7, pc}
 8005c12:	46c0      	nop			; (mov r8, r8)
 8005c14:	40003800 	.word	0x40003800

08005c18 <_SpiTransmit8>:
 *	@param None
 *	@retval
 *
 */
void _SpiTransmit8(uint8_t data)
{
 8005c18:	b580      	push	{r7, lr}
 8005c1a:	b082      	sub	sp, #8
 8005c1c:	af00      	add	r7, sp, #0
 8005c1e:	0002      	movs	r2, r0
 8005c20:	1dfb      	adds	r3, r7, #7
 8005c22:	701a      	strb	r2, [r3, #0]
	if ((SPI2->SR & SPI_SR_TXE) == SPI_SR_TXE)
 8005c24:	4b06      	ldr	r3, [pc, #24]	; (8005c40 <_SpiTransmit8+0x28>)
 8005c26:	689b      	ldr	r3, [r3, #8]
 8005c28:	2202      	movs	r2, #2
 8005c2a:	4013      	ands	r3, r2
 8005c2c:	2b02      	cmp	r3, #2
 8005c2e:	d103      	bne.n	8005c38 <_SpiTransmit8+0x20>
	{
		*(volatile uint8_t *)&(SPI2->DR) = data;
 8005c30:	4a04      	ldr	r2, [pc, #16]	; (8005c44 <_SpiTransmit8+0x2c>)
 8005c32:	1dfb      	adds	r3, r7, #7
 8005c34:	781b      	ldrb	r3, [r3, #0]
 8005c36:	7013      	strb	r3, [r2, #0]

	}

}
 8005c38:	46c0      	nop			; (mov r8, r8)
 8005c3a:	46bd      	mov	sp, r7
 8005c3c:	b002      	add	sp, #8
 8005c3e:	bd80      	pop	{r7, pc}
 8005c40:	40003800 	.word	0x40003800
 8005c44:	4000380c 	.word	0x4000380c

08005c48 <_SpiReceive16>:
 *	@param None
 *	@retval
 *
 */
uint16_t _SpiReceive16()
{
 8005c48:	b580      	push	{r7, lr}
 8005c4a:	b082      	sub	sp, #8
 8005c4c:	af00      	add	r7, sp, #0
	uint16_t data = 0;
 8005c4e:	1dbb      	adds	r3, r7, #6
 8005c50:	2200      	movs	r2, #0
 8005c52:	801a      	strh	r2, [r3, #0]
	if ((SPI2->SR & SPI_SR_RXNE) == SPI_SR_RXNE)
 8005c54:	4b07      	ldr	r3, [pc, #28]	; (8005c74 <_SpiReceive16+0x2c>)
 8005c56:	689b      	ldr	r3, [r3, #8]
 8005c58:	2201      	movs	r2, #1
 8005c5a:	4013      	ands	r3, r2
 8005c5c:	2b01      	cmp	r3, #1
 8005c5e:	d103      	bne.n	8005c68 <_SpiReceive16+0x20>
	{
		data = (uint16_t)SPI2->DR;
 8005c60:	4b04      	ldr	r3, [pc, #16]	; (8005c74 <_SpiReceive16+0x2c>)
 8005c62:	68da      	ldr	r2, [r3, #12]
 8005c64:	1dbb      	adds	r3, r7, #6
 8005c66:	801a      	strh	r2, [r3, #0]

	}
	return data;
 8005c68:	1dbb      	adds	r3, r7, #6
 8005c6a:	881b      	ldrh	r3, [r3, #0]
}
 8005c6c:	0018      	movs	r0, r3
 8005c6e:	46bd      	mov	sp, r7
 8005c70:	b002      	add	sp, #8
 8005c72:	bd80      	pop	{r7, pc}
 8005c74:	40003800 	.word	0x40003800

08005c78 <TSC4026_STM32_HM_GetXpos>:
 *	@param None
 *	@retval
 *
 */
uint16_t TSC4026_STM32_HM_GetXpos()
{
 8005c78:	b580      	push	{r7, lr}
 8005c7a:	af00      	add	r7, sp, #0
	return tsc2046_data[0].XPOS;
 8005c7c:	4b02      	ldr	r3, [pc, #8]	; (8005c88 <TSC4026_STM32_HM_GetXpos+0x10>)
 8005c7e:	881b      	ldrh	r3, [r3, #0]
}
 8005c80:	0018      	movs	r0, r3
 8005c82:	46bd      	mov	sp, r7
 8005c84:	bd80      	pop	{r7, pc}
 8005c86:	46c0      	nop			; (mov r8, r8)
 8005c88:	20000364 	.word	0x20000364

08005c8c <TSC4026_STM32_HM_GetYpos>:
 *	@param None
 *	@retval
 *
 */
uint16_t TSC4026_STM32_HM_GetYpos()
{
 8005c8c:	b580      	push	{r7, lr}
 8005c8e:	af00      	add	r7, sp, #0
	return tsc2046_data[0].YPOS;
 8005c90:	4b02      	ldr	r3, [pc, #8]	; (8005c9c <TSC4026_STM32_HM_GetYpos+0x10>)
 8005c92:	885b      	ldrh	r3, [r3, #2]
}
 8005c94:	0018      	movs	r0, r3
 8005c96:	46bd      	mov	sp, r7
 8005c98:	bd80      	pop	{r7, pc}
 8005c9a:	46c0      	nop			; (mov r8, r8)
 8005c9c:	20000364 	.word	0x20000364

08005ca0 <TSC2046_IM_PENIRQ_EXTI_Handler>:
 *	@param None
 *	@retval
 *
 */
void TSC2046_IM_PENIRQ_EXTI_Handler()
{
 8005ca0:	b580      	push	{r7, lr}
 8005ca2:	af00      	add	r7, sp, #0

//	if( (interrupt_time - touchscreen_last_interrupt_time) > MAX_TOUCHSCREEN_DEBOUNCE_DELAY )
//	{


	TSC2046_EM_ProcessEvent(TSC2046_evPen);
 8005ca4:	2001      	movs	r0, #1
 8005ca6:	f7ff fe77 	bl	8005998 <TSC2046_EM_ProcessEvent>
//	}
//	touchscreen_last_interrupt_time = interrupt_time;
}
 8005caa:	46c0      	nop			; (mov r8, r8)
 8005cac:	46bd      	mov	sp, r7
 8005cae:	bd80      	pop	{r7, pc}

08005cb0 <TSC2046_IM_HardwareManagerLoopHandler>:
 *	@param None
 *	@retval
 *
 */
void TSC2046_IM_HardwareManagerLoopHandler()
{
 8005cb0:	b580      	push	{r7, lr}
 8005cb2:	af00      	add	r7, sp, #0
	if(HAL_GPIO_ReadPin(TS_IRQ_GPIO_Port, TS_IRQ_Pin) == 0)
 8005cb4:	4b08      	ldr	r3, [pc, #32]	; (8005cd8 <TSC2046_IM_HardwareManagerLoopHandler+0x28>)
 8005cb6:	2140      	movs	r1, #64	; 0x40
 8005cb8:	0018      	movs	r0, r3
 8005cba:	f7fd fd93 	bl	80037e4 <HAL_GPIO_ReadPin>
 8005cbe:	1e03      	subs	r3, r0, #0
 8005cc0:	d103      	bne.n	8005cca <TSC2046_IM_HardwareManagerLoopHandler+0x1a>
	{
		TSC2046_EM_ProcessEvent(TSC2046_evPen);
 8005cc2:	2001      	movs	r0, #1
 8005cc4:	f7ff fe68 	bl	8005998 <TSC2046_EM_ProcessEvent>
	}
	else
	{
		TSC2046_EM_ProcessEvent(TSC2046_evIdle);
	}
}
 8005cc8:	e002      	b.n	8005cd0 <TSC2046_IM_HardwareManagerLoopHandler+0x20>
		TSC2046_EM_ProcessEvent(TSC2046_evIdle);
 8005cca:	2000      	movs	r0, #0
 8005ccc:	f7ff fe64 	bl	8005998 <TSC2046_EM_ProcessEvent>
}
 8005cd0:	46c0      	nop			; (mov r8, r8)
 8005cd2:	46bd      	mov	sp, r7
 8005cd4:	bd80      	pop	{r7, pc}
 8005cd6:	46c0      	nop			; (mov r8, r8)
 8005cd8:	48000800 	.word	0x48000800

08005cdc <UserDisplayTask>:
	TSC2046_IM_PENIRQ_EXTI_Handler();
#endif
}

void UserDisplayTask()
{
 8005cdc:	b590      	push	{r4, r7, lr}
 8005cde:	b087      	sub	sp, #28
 8005ce0:	af02      	add	r7, sp, #8



	   // check for penirq interrupt
	   if(TSC2046_EM_GetTouchScreenState())
 8005ce2:	f7ff fe4f 	bl	8005984 <TSC2046_EM_GetTouchScreenState>
 8005ce6:	1e03      	subs	r3, r0, #0
 8005ce8:	d043      	beq.n	8005d72 <UserDisplayTask+0x96>
	   {
		 ILI9341_Draw_Text("HIT ", 100, 10, BLACK, 2, RED);
 8005cea:	4837      	ldr	r0, [pc, #220]	; (8005dc8 <UserDisplayTask+0xec>)
 8005cec:	4b37      	ldr	r3, [pc, #220]	; (8005dcc <UserDisplayTask+0xf0>)
 8005cee:	9301      	str	r3, [sp, #4]
 8005cf0:	2302      	movs	r3, #2
 8005cf2:	9300      	str	r3, [sp, #0]
 8005cf4:	2300      	movs	r3, #0
 8005cf6:	220a      	movs	r2, #10
 8005cf8:	2164      	movs	r1, #100	; 0x64
 8005cfa:	f7fe ff03 	bl	8004b04 <ILI9341_Draw_Text>

		 // turn on PSU
		 HAL_GPIO_TogglePin(PSU_SW_ON_GPIO_Port, PSU_SW_ON_Pin);
 8005cfe:	4b34      	ldr	r3, [pc, #208]	; (8005dd0 <UserDisplayTask+0xf4>)
 8005d00:	2108      	movs	r1, #8
 8005d02:	0018      	movs	r0, r3
 8005d04:	f7fd fda8 	bl	8003858 <HAL_GPIO_TogglePin>

		 // get touchscreen coordinate data
		 if( TSC2046_HM_RunConversion() == TSC2046_DATAOK )
 8005d08:	f7ff feae 	bl	8005a68 <TSC2046_HM_RunConversion>
 8005d0c:	1e03      	subs	r3, r0, #0
 8005d0e:	d125      	bne.n	8005d5c <UserDisplayTask+0x80>
		 {
		   ILI9341_Draw_Filled_Circle(TSC4026_STM32_HM_GetXpos(), TSC4026_STM32_HM_GetYpos(), 2, WHITE);
 8005d10:	f7ff ffb2 	bl	8005c78 <TSC4026_STM32_HM_GetXpos>
 8005d14:	0003      	movs	r3, r0
 8005d16:	001c      	movs	r4, r3
 8005d18:	f7ff ffb8 	bl	8005c8c <TSC4026_STM32_HM_GetYpos>
 8005d1c:	0003      	movs	r3, r0
 8005d1e:	0019      	movs	r1, r3
 8005d20:	4b2c      	ldr	r3, [pc, #176]	; (8005dd4 <UserDisplayTask+0xf8>)
 8005d22:	2202      	movs	r2, #2
 8005d24:	0020      	movs	r0, r4
 8005d26:	f7fe fd4b 	bl	80047c0 <ILI9341_Draw_Filled_Circle>
		   char pos_string[15];
		   snprintf(pos_string, sizeof(pos_string), "Y:%u,X:%u      ", TSC4026_STM32_HM_GetXpos(), TSC4026_STM32_HM_GetYpos());
 8005d2a:	f7ff ffa5 	bl	8005c78 <TSC4026_STM32_HM_GetXpos>
 8005d2e:	0003      	movs	r3, r0
 8005d30:	001c      	movs	r4, r3
 8005d32:	f7ff ffab 	bl	8005c8c <TSC4026_STM32_HM_GetYpos>
 8005d36:	0003      	movs	r3, r0
 8005d38:	4a27      	ldr	r2, [pc, #156]	; (8005dd8 <UserDisplayTask+0xfc>)
 8005d3a:	0038      	movs	r0, r7
 8005d3c:	9300      	str	r3, [sp, #0]
 8005d3e:	0023      	movs	r3, r4
 8005d40:	210f      	movs	r1, #15
 8005d42:	f000 fd5f 	bl	8006804 <sniprintf>
		   ILI9341_Draw_Text(pos_string, 180, 10, BLACK, 2, RED);
 8005d46:	0038      	movs	r0, r7
 8005d48:	4b20      	ldr	r3, [pc, #128]	; (8005dcc <UserDisplayTask+0xf0>)
 8005d4a:	9301      	str	r3, [sp, #4]
 8005d4c:	2302      	movs	r3, #2
 8005d4e:	9300      	str	r3, [sp, #0]
 8005d50:	2300      	movs	r3, #0
 8005d52:	220a      	movs	r2, #10
 8005d54:	21b4      	movs	r1, #180	; 0xb4
 8005d56:	f7fe fed5 	bl	8004b04 <ILI9341_Draw_Text>
 8005d5a:	e014      	b.n	8005d86 <UserDisplayTask+0xaa>
		 }
		 else
		 {
		   ILI9341_Draw_Text("DATAERR   ", 200, 10, BLACK, 2, RED);
 8005d5c:	481f      	ldr	r0, [pc, #124]	; (8005ddc <UserDisplayTask+0x100>)
 8005d5e:	4b1b      	ldr	r3, [pc, #108]	; (8005dcc <UserDisplayTask+0xf0>)
 8005d60:	9301      	str	r3, [sp, #4]
 8005d62:	2302      	movs	r3, #2
 8005d64:	9300      	str	r3, [sp, #0]
 8005d66:	2300      	movs	r3, #0
 8005d68:	220a      	movs	r2, #10
 8005d6a:	21c8      	movs	r1, #200	; 0xc8
 8005d6c:	f7fe feca 	bl	8004b04 <ILI9341_Draw_Text>
 8005d70:	e009      	b.n	8005d86 <UserDisplayTask+0xaa>
		 }
	   }

	   else
	   {
		 ILI9341_Draw_Text("NONE", 100, 10, BLACK, 2, RED);
 8005d72:	481b      	ldr	r0, [pc, #108]	; (8005de0 <UserDisplayTask+0x104>)
 8005d74:	4b15      	ldr	r3, [pc, #84]	; (8005dcc <UserDisplayTask+0xf0>)
 8005d76:	9301      	str	r3, [sp, #4]
 8005d78:	2302      	movs	r3, #2
 8005d7a:	9300      	str	r3, [sp, #0]
 8005d7c:	2300      	movs	r3, #0
 8005d7e:	220a      	movs	r2, #10
 8005d80:	2164      	movs	r1, #100	; 0x64
 8005d82:	f7fe febf 	bl	8004b04 <ILI9341_Draw_Text>
	   }

	   // update screen ON/OFF label
	   if(HAL_GPIO_ReadPin(PSU_SW_ON_GPIO_Port, PSU_SW_ON_Pin) == GPIO_PIN_SET)
 8005d86:	4b12      	ldr	r3, [pc, #72]	; (8005dd0 <UserDisplayTask+0xf4>)
 8005d88:	2108      	movs	r1, #8
 8005d8a:	0018      	movs	r0, r3
 8005d8c:	f7fd fd2a 	bl	80037e4 <HAL_GPIO_ReadPin>
 8005d90:	0003      	movs	r3, r0
 8005d92:	2b01      	cmp	r3, #1
 8005d94:	d10a      	bne.n	8005dac <UserDisplayTask+0xd0>
	   {
		   ILI9341_Draw_Text("ON ", 10, 50, BLACK, 3, GREEN);
 8005d96:	4813      	ldr	r0, [pc, #76]	; (8005de4 <UserDisplayTask+0x108>)
 8005d98:	4b13      	ldr	r3, [pc, #76]	; (8005de8 <UserDisplayTask+0x10c>)
 8005d9a:	9301      	str	r3, [sp, #4]
 8005d9c:	2303      	movs	r3, #3
 8005d9e:	9300      	str	r3, [sp, #0]
 8005da0:	2300      	movs	r3, #0
 8005da2:	2232      	movs	r2, #50	; 0x32
 8005da4:	210a      	movs	r1, #10
 8005da6:	f7fe fead 	bl	8004b04 <ILI9341_Draw_Text>
	   }
	   else
	   {
		   ILI9341_Draw_Text("OFF", 10, 50, BLACK, 3, RED);
	   }
}
 8005daa:	e009      	b.n	8005dc0 <UserDisplayTask+0xe4>
		   ILI9341_Draw_Text("OFF", 10, 50, BLACK, 3, RED);
 8005dac:	480f      	ldr	r0, [pc, #60]	; (8005dec <UserDisplayTask+0x110>)
 8005dae:	4b07      	ldr	r3, [pc, #28]	; (8005dcc <UserDisplayTask+0xf0>)
 8005db0:	9301      	str	r3, [sp, #4]
 8005db2:	2303      	movs	r3, #3
 8005db4:	9300      	str	r3, [sp, #0]
 8005db6:	2300      	movs	r3, #0
 8005db8:	2232      	movs	r2, #50	; 0x32
 8005dba:	210a      	movs	r1, #10
 8005dbc:	f7fe fea2 	bl	8004b04 <ILI9341_Draw_Text>
}
 8005dc0:	46c0      	nop			; (mov r8, r8)
 8005dc2:	46bd      	mov	sp, r7
 8005dc4:	b005      	add	sp, #20
 8005dc6:	bd90      	pop	{r4, r7, pc}
 8005dc8:	08008100 	.word	0x08008100
 8005dcc:	0000d8c3 	.word	0x0000d8c3
 8005dd0:	48000400 	.word	0x48000400
 8005dd4:	0000ffff 	.word	0x0000ffff
 8005dd8:	08008108 	.word	0x08008108
 8005ddc:	08008118 	.word	0x08008118
 8005de0:	08008124 	.word	0x08008124
 8005de4:	0800812c 	.word	0x0800812c
 8005de8:	000014a2 	.word	0x000014a2
 8005dec:	08008130 	.word	0x08008130

08005df0 <UserAdcTask>:

void UserAdcTask()
{
 8005df0:	b590      	push	{r4, r7, lr}
 8005df2:	b087      	sub	sp, #28
 8005df4:	af02      	add	r7, sp, #8
		// if PSU enabled, poll imonitor pin
		if(HAL_GPIO_ReadPin(PSU_SW_ON_GPIO_Port, PSU_SW_ON_Pin) == GPIO_PIN_SET)
 8005df6:	4b34      	ldr	r3, [pc, #208]	; (8005ec8 <UserAdcTask+0xd8>)
 8005df8:	2108      	movs	r1, #8
 8005dfa:	0018      	movs	r0, r3
 8005dfc:	f7fd fcf2 	bl	80037e4 <HAL_GPIO_ReadPin>
 8005e00:	0003      	movs	r3, r0
 8005e02:	2b01      	cmp	r3, #1
 8005e04:	d142      	bne.n	8005e8c <UserAdcTask+0x9c>
		{
		   if(HAL_ADC_PollForConversion(&hadc, 1) == HAL_OK)
 8005e06:	4b31      	ldr	r3, [pc, #196]	; (8005ecc <UserAdcTask+0xdc>)
 8005e08:	2101      	movs	r1, #1
 8005e0a:	0018      	movs	r0, r3
 8005e0c:	f7fc ffce 	bl	8002dac <HAL_ADC_PollForConversion>
 8005e10:	1e03      	subs	r3, r0, #0
 8005e12:	d13e      	bne.n	8005e92 <UserAdcTask+0xa2>
		   {
			   if(adc_count == ADC_DATA_SIZE)			// calc adc mean, reset adc data + count
 8005e14:	4b2e      	ldr	r3, [pc, #184]	; (8005ed0 <UserAdcTask+0xe0>)
 8005e16:	781b      	ldrb	r3, [r3, #0]
 8005e18:	0018      	movs	r0, r3
 8005e1a:	f7fc f8ad 	bl	8001f78 <__aeabi_i2d>
 8005e1e:	2200      	movs	r2, #0
 8005e20:	4b2c      	ldr	r3, [pc, #176]	; (8005ed4 <UserAdcTask+0xe4>)
 8005e22:	f7fa fb09 	bl	8000438 <__aeabi_dcmpeq>
 8005e26:	1e03      	subs	r3, r0, #0
 8005e28:	d01f      	beq.n	8005e6a <UserAdcTask+0x7a>
			   {

#ifdef USE_FLOAT
				   final_adc_data = (float)adc_data / ADC_DATA_SIZE;
 8005e2a:	4b2b      	ldr	r3, [pc, #172]	; (8005ed8 <UserAdcTask+0xe8>)
 8005e2c:	681b      	ldr	r3, [r3, #0]
 8005e2e:	0018      	movs	r0, r3
 8005e30:	f7fa fb30 	bl	8000494 <__aeabi_ui2f>
 8005e34:	1c02      	adds	r2, r0, #0
 8005e36:	4b29      	ldr	r3, [pc, #164]	; (8005edc <UserAdcTask+0xec>)
 8005e38:	601a      	str	r2, [r3, #0]
				   final_adc_data = final_adc_data * ADC_TO_VOLTS_RES;		// convert to decimal
 8005e3a:	4b28      	ldr	r3, [pc, #160]	; (8005edc <UserAdcTask+0xec>)
 8005e3c:	681b      	ldr	r3, [r3, #0]
 8005e3e:	1c18      	adds	r0, r3, #0
 8005e40:	f7fc f906 	bl	8002050 <__aeabi_f2d>
 8005e44:	4a26      	ldr	r2, [pc, #152]	; (8005ee0 <UserAdcTask+0xf0>)
 8005e46:	4b27      	ldr	r3, [pc, #156]	; (8005ee4 <UserAdcTask+0xf4>)
 8005e48:	f7fb fa8a 	bl	8001360 <__aeabi_dmul>
 8005e4c:	0003      	movs	r3, r0
 8005e4e:	000c      	movs	r4, r1
 8005e50:	0018      	movs	r0, r3
 8005e52:	0021      	movs	r1, r4
 8005e54:	f7fc f94e 	bl	80020f4 <__aeabi_d2f>
 8005e58:	1c02      	adds	r2, r0, #0
 8005e5a:	4b20      	ldr	r3, [pc, #128]	; (8005edc <UserAdcTask+0xec>)
 8005e5c:	601a      	str	r2, [r3, #0]
#else
				   final_adc_data = adc_data / ADC_DATA_SIZE;

#endif	//USE_FLOAT
				   adc_data = 0;						// clear the total
 8005e5e:	4b1e      	ldr	r3, [pc, #120]	; (8005ed8 <UserAdcTask+0xe8>)
 8005e60:	2200      	movs	r2, #0
 8005e62:	601a      	str	r2, [r3, #0]
				   adc_count = 0;
 8005e64:	4b1a      	ldr	r3, [pc, #104]	; (8005ed0 <UserAdcTask+0xe0>)
 8005e66:	2200      	movs	r2, #0
 8005e68:	701a      	strb	r2, [r3, #0]
			   }

			   adc_data += HAL_ADC_GetValue(&hadc);		// add next read value to total
 8005e6a:	4b18      	ldr	r3, [pc, #96]	; (8005ecc <UserAdcTask+0xdc>)
 8005e6c:	0018      	movs	r0, r3
 8005e6e:	f7fd f82f 	bl	8002ed0 <HAL_ADC_GetValue>
 8005e72:	0002      	movs	r2, r0
 8005e74:	4b18      	ldr	r3, [pc, #96]	; (8005ed8 <UserAdcTask+0xe8>)
 8005e76:	681b      	ldr	r3, [r3, #0]
 8005e78:	18d2      	adds	r2, r2, r3
 8005e7a:	4b17      	ldr	r3, [pc, #92]	; (8005ed8 <UserAdcTask+0xe8>)
 8005e7c:	601a      	str	r2, [r3, #0]
			   adc_count++;
 8005e7e:	4b14      	ldr	r3, [pc, #80]	; (8005ed0 <UserAdcTask+0xe0>)
 8005e80:	781b      	ldrb	r3, [r3, #0]
 8005e82:	3301      	adds	r3, #1
 8005e84:	b2da      	uxtb	r2, r3
 8005e86:	4b12      	ldr	r3, [pc, #72]	; (8005ed0 <UserAdcTask+0xe0>)
 8005e88:	701a      	strb	r2, [r3, #0]
 8005e8a:	e002      	b.n	8005e92 <UserAdcTask+0xa2>
		   }
		}
		else
		{
			final_adc_data = 0;
 8005e8c:	4b13      	ldr	r3, [pc, #76]	; (8005edc <UserAdcTask+0xec>)
 8005e8e:	2200      	movs	r2, #0
 8005e90:	601a      	str	r2, [r3, #0]
		}

#ifdef USE_FLOAT
		char imon_string[12];
		sprintf(imon_string, "%f mV", final_adc_data);
 8005e92:	4b12      	ldr	r3, [pc, #72]	; (8005edc <UserAdcTask+0xec>)
 8005e94:	681b      	ldr	r3, [r3, #0]
 8005e96:	1c18      	adds	r0, r3, #0
 8005e98:	f7fc f8da 	bl	8002050 <__aeabi_f2d>
 8005e9c:	0003      	movs	r3, r0
 8005e9e:	000c      	movs	r4, r1
 8005ea0:	4911      	ldr	r1, [pc, #68]	; (8005ee8 <UserAdcTask+0xf8>)
 8005ea2:	1d38      	adds	r0, r7, #4
 8005ea4:	001a      	movs	r2, r3
 8005ea6:	0023      	movs	r3, r4
 8005ea8:	f000 fcde 	bl	8006868 <siprintf>
		ILI9341_Draw_Text(imon_string, 10, 100, BLACK, 3, RED);
 8005eac:	1d38      	adds	r0, r7, #4
 8005eae:	4b0f      	ldr	r3, [pc, #60]	; (8005eec <UserAdcTask+0xfc>)
 8005eb0:	9301      	str	r3, [sp, #4]
 8005eb2:	2303      	movs	r3, #3
 8005eb4:	9300      	str	r3, [sp, #0]
 8005eb6:	2300      	movs	r3, #0
 8005eb8:	2264      	movs	r2, #100	; 0x64
 8005eba:	210a      	movs	r1, #10
 8005ebc:	f7fe fe22 	bl	8004b04 <ILI9341_Draw_Text>
		snprintf(imon_string, sizeof(imon_string), "%lu mV", final_adc_data);
		ILI9341_Draw_Text(imon_string, 10, 100, BLACK, 3, RED);
#endif	//USE_FLOAT


}
 8005ec0:	46c0      	nop			; (mov r8, r8)
 8005ec2:	46bd      	mov	sp, r7
 8005ec4:	b005      	add	sp, #20
 8005ec6:	bd90      	pop	{r4, r7, pc}
 8005ec8:	48000400 	.word	0x48000400
 8005ecc:	20000218 	.word	0x20000218
 8005ed0:	20000208 	.word	0x20000208
 8005ed4:	3ff00000 	.word	0x3ff00000
 8005ed8:	20000204 	.word	0x20000204
 8005edc:	20000200 	.word	0x20000200
 8005ee0:	1416377a 	.word	0x1416377a
 8005ee4:	3f5a6506 	.word	0x3f5a6506
 8005ee8:	08008134 	.word	0x08008134
 8005eec:	0000d8c3 	.word	0x0000d8c3

08005ef0 <__libc_init_array>:
 8005ef0:	b570      	push	{r4, r5, r6, lr}
 8005ef2:	2600      	movs	r6, #0
 8005ef4:	4d0c      	ldr	r5, [pc, #48]	; (8005f28 <__libc_init_array+0x38>)
 8005ef6:	4c0d      	ldr	r4, [pc, #52]	; (8005f2c <__libc_init_array+0x3c>)
 8005ef8:	1b64      	subs	r4, r4, r5
 8005efa:	10a4      	asrs	r4, r4, #2
 8005efc:	42a6      	cmp	r6, r4
 8005efe:	d109      	bne.n	8005f14 <__libc_init_array+0x24>
 8005f00:	2600      	movs	r6, #0
 8005f02:	f002 f8e1 	bl	80080c8 <_init>
 8005f06:	4d0a      	ldr	r5, [pc, #40]	; (8005f30 <__libc_init_array+0x40>)
 8005f08:	4c0a      	ldr	r4, [pc, #40]	; (8005f34 <__libc_init_array+0x44>)
 8005f0a:	1b64      	subs	r4, r4, r5
 8005f0c:	10a4      	asrs	r4, r4, #2
 8005f0e:	42a6      	cmp	r6, r4
 8005f10:	d105      	bne.n	8005f1e <__libc_init_array+0x2e>
 8005f12:	bd70      	pop	{r4, r5, r6, pc}
 8005f14:	00b3      	lsls	r3, r6, #2
 8005f16:	58eb      	ldr	r3, [r5, r3]
 8005f18:	4798      	blx	r3
 8005f1a:	3601      	adds	r6, #1
 8005f1c:	e7ee      	b.n	8005efc <__libc_init_array+0xc>
 8005f1e:	00b3      	lsls	r3, r6, #2
 8005f20:	58eb      	ldr	r3, [r5, r3]
 8005f22:	4798      	blx	r3
 8005f24:	3601      	adds	r6, #1
 8005f26:	e7f2      	b.n	8005f0e <__libc_init_array+0x1e>
 8005f28:	08008668 	.word	0x08008668
 8005f2c:	08008668 	.word	0x08008668
 8005f30:	08008668 	.word	0x08008668
 8005f34:	0800866c 	.word	0x0800866c

08005f38 <memset>:
 8005f38:	0003      	movs	r3, r0
 8005f3a:	1812      	adds	r2, r2, r0
 8005f3c:	4293      	cmp	r3, r2
 8005f3e:	d100      	bne.n	8005f42 <memset+0xa>
 8005f40:	4770      	bx	lr
 8005f42:	7019      	strb	r1, [r3, #0]
 8005f44:	3301      	adds	r3, #1
 8005f46:	e7f9      	b.n	8005f3c <memset+0x4>

08005f48 <__cvt>:
 8005f48:	b5f0      	push	{r4, r5, r6, r7, lr}
 8005f4a:	b08b      	sub	sp, #44	; 0x2c
 8005f4c:	0014      	movs	r4, r2
 8005f4e:	1e1d      	subs	r5, r3, #0
 8005f50:	9912      	ldr	r1, [sp, #72]	; 0x48
 8005f52:	da53      	bge.n	8005ffc <__cvt+0xb4>
 8005f54:	2480      	movs	r4, #128	; 0x80
 8005f56:	0624      	lsls	r4, r4, #24
 8005f58:	191b      	adds	r3, r3, r4
 8005f5a:	001d      	movs	r5, r3
 8005f5c:	0014      	movs	r4, r2
 8005f5e:	232d      	movs	r3, #45	; 0x2d
 8005f60:	700b      	strb	r3, [r1, #0]
 8005f62:	2320      	movs	r3, #32
 8005f64:	9e14      	ldr	r6, [sp, #80]	; 0x50
 8005f66:	2203      	movs	r2, #3
 8005f68:	439e      	bics	r6, r3
 8005f6a:	2e46      	cmp	r6, #70	; 0x46
 8005f6c:	d007      	beq.n	8005f7e <__cvt+0x36>
 8005f6e:	0033      	movs	r3, r6
 8005f70:	3b45      	subs	r3, #69	; 0x45
 8005f72:	4259      	negs	r1, r3
 8005f74:	414b      	adcs	r3, r1
 8005f76:	9910      	ldr	r1, [sp, #64]	; 0x40
 8005f78:	3a01      	subs	r2, #1
 8005f7a:	18cb      	adds	r3, r1, r3
 8005f7c:	9310      	str	r3, [sp, #64]	; 0x40
 8005f7e:	ab09      	add	r3, sp, #36	; 0x24
 8005f80:	9304      	str	r3, [sp, #16]
 8005f82:	ab08      	add	r3, sp, #32
 8005f84:	9303      	str	r3, [sp, #12]
 8005f86:	9b13      	ldr	r3, [sp, #76]	; 0x4c
 8005f88:	9200      	str	r2, [sp, #0]
 8005f8a:	9302      	str	r3, [sp, #8]
 8005f8c:	9b10      	ldr	r3, [sp, #64]	; 0x40
 8005f8e:	0022      	movs	r2, r4
 8005f90:	9301      	str	r3, [sp, #4]
 8005f92:	002b      	movs	r3, r5
 8005f94:	f000 fd0e 	bl	80069b4 <_dtoa_r>
 8005f98:	0007      	movs	r7, r0
 8005f9a:	2e47      	cmp	r6, #71	; 0x47
 8005f9c:	d102      	bne.n	8005fa4 <__cvt+0x5c>
 8005f9e:	9b11      	ldr	r3, [sp, #68]	; 0x44
 8005fa0:	07db      	lsls	r3, r3, #31
 8005fa2:	d524      	bpl.n	8005fee <__cvt+0xa6>
 8005fa4:	9b10      	ldr	r3, [sp, #64]	; 0x40
 8005fa6:	18fb      	adds	r3, r7, r3
 8005fa8:	9307      	str	r3, [sp, #28]
 8005faa:	2e46      	cmp	r6, #70	; 0x46
 8005fac:	d114      	bne.n	8005fd8 <__cvt+0x90>
 8005fae:	783b      	ldrb	r3, [r7, #0]
 8005fb0:	2b30      	cmp	r3, #48	; 0x30
 8005fb2:	d10c      	bne.n	8005fce <__cvt+0x86>
 8005fb4:	2200      	movs	r2, #0
 8005fb6:	2300      	movs	r3, #0
 8005fb8:	0020      	movs	r0, r4
 8005fba:	0029      	movs	r1, r5
 8005fbc:	f7fa fa3c 	bl	8000438 <__aeabi_dcmpeq>
 8005fc0:	2800      	cmp	r0, #0
 8005fc2:	d104      	bne.n	8005fce <__cvt+0x86>
 8005fc4:	2301      	movs	r3, #1
 8005fc6:	9a10      	ldr	r2, [sp, #64]	; 0x40
 8005fc8:	1a9b      	subs	r3, r3, r2
 8005fca:	9a13      	ldr	r2, [sp, #76]	; 0x4c
 8005fcc:	6013      	str	r3, [r2, #0]
 8005fce:	9b13      	ldr	r3, [sp, #76]	; 0x4c
 8005fd0:	9a07      	ldr	r2, [sp, #28]
 8005fd2:	681b      	ldr	r3, [r3, #0]
 8005fd4:	18d3      	adds	r3, r2, r3
 8005fd6:	9307      	str	r3, [sp, #28]
 8005fd8:	2200      	movs	r2, #0
 8005fda:	2300      	movs	r3, #0
 8005fdc:	0020      	movs	r0, r4
 8005fde:	0029      	movs	r1, r5
 8005fe0:	f7fa fa2a 	bl	8000438 <__aeabi_dcmpeq>
 8005fe4:	2230      	movs	r2, #48	; 0x30
 8005fe6:	2800      	cmp	r0, #0
 8005fe8:	d00d      	beq.n	8006006 <__cvt+0xbe>
 8005fea:	9b07      	ldr	r3, [sp, #28]
 8005fec:	9309      	str	r3, [sp, #36]	; 0x24
 8005fee:	0038      	movs	r0, r7
 8005ff0:	9b09      	ldr	r3, [sp, #36]	; 0x24
 8005ff2:	9a15      	ldr	r2, [sp, #84]	; 0x54
 8005ff4:	1bdb      	subs	r3, r3, r7
 8005ff6:	6013      	str	r3, [r2, #0]
 8005ff8:	b00b      	add	sp, #44	; 0x2c
 8005ffa:	bdf0      	pop	{r4, r5, r6, r7, pc}
 8005ffc:	2300      	movs	r3, #0
 8005ffe:	e7af      	b.n	8005f60 <__cvt+0x18>
 8006000:	1c59      	adds	r1, r3, #1
 8006002:	9109      	str	r1, [sp, #36]	; 0x24
 8006004:	701a      	strb	r2, [r3, #0]
 8006006:	9b09      	ldr	r3, [sp, #36]	; 0x24
 8006008:	9907      	ldr	r1, [sp, #28]
 800600a:	428b      	cmp	r3, r1
 800600c:	d3f8      	bcc.n	8006000 <__cvt+0xb8>
 800600e:	e7ee      	b.n	8005fee <__cvt+0xa6>

08006010 <__exponent>:
 8006010:	b5f0      	push	{r4, r5, r6, r7, lr}
 8006012:	1c83      	adds	r3, r0, #2
 8006014:	b085      	sub	sp, #20
 8006016:	9301      	str	r3, [sp, #4]
 8006018:	0006      	movs	r6, r0
 800601a:	000c      	movs	r4, r1
 800601c:	7002      	strb	r2, [r0, #0]
 800601e:	232b      	movs	r3, #43	; 0x2b
 8006020:	2900      	cmp	r1, #0
 8006022:	da01      	bge.n	8006028 <__exponent+0x18>
 8006024:	232d      	movs	r3, #45	; 0x2d
 8006026:	424c      	negs	r4, r1
 8006028:	7073      	strb	r3, [r6, #1]
 800602a:	2c09      	cmp	r4, #9
 800602c:	dd22      	ble.n	8006074 <__exponent+0x64>
 800602e:	ab02      	add	r3, sp, #8
 8006030:	1ddd      	adds	r5, r3, #7
 8006032:	0020      	movs	r0, r4
 8006034:	210a      	movs	r1, #10
 8006036:	f7fa f9e9 	bl	800040c <__aeabi_idivmod>
 800603a:	1e6f      	subs	r7, r5, #1
 800603c:	3130      	adds	r1, #48	; 0x30
 800603e:	7039      	strb	r1, [r7, #0]
 8006040:	0020      	movs	r0, r4
 8006042:	210a      	movs	r1, #10
 8006044:	f7fa f8fc 	bl	8000240 <__divsi3>
 8006048:	0004      	movs	r4, r0
 800604a:	2809      	cmp	r0, #9
 800604c:	dc0b      	bgt.n	8006066 <__exponent+0x56>
 800604e:	3d02      	subs	r5, #2
 8006050:	3430      	adds	r4, #48	; 0x30
 8006052:	9b01      	ldr	r3, [sp, #4]
 8006054:	702c      	strb	r4, [r5, #0]
 8006056:	aa02      	add	r2, sp, #8
 8006058:	3207      	adds	r2, #7
 800605a:	0018      	movs	r0, r3
 800605c:	42aa      	cmp	r2, r5
 800605e:	d804      	bhi.n	800606a <__exponent+0x5a>
 8006060:	1b80      	subs	r0, r0, r6
 8006062:	b005      	add	sp, #20
 8006064:	bdf0      	pop	{r4, r5, r6, r7, pc}
 8006066:	003d      	movs	r5, r7
 8006068:	e7e3      	b.n	8006032 <__exponent+0x22>
 800606a:	782a      	ldrb	r2, [r5, #0]
 800606c:	3501      	adds	r5, #1
 800606e:	701a      	strb	r2, [r3, #0]
 8006070:	3301      	adds	r3, #1
 8006072:	e7f0      	b.n	8006056 <__exponent+0x46>
 8006074:	2330      	movs	r3, #48	; 0x30
 8006076:	18e4      	adds	r4, r4, r3
 8006078:	70b3      	strb	r3, [r6, #2]
 800607a:	1d30      	adds	r0, r6, #4
 800607c:	70f4      	strb	r4, [r6, #3]
 800607e:	e7ef      	b.n	8006060 <__exponent+0x50>

08006080 <_printf_float>:
 8006080:	b5f0      	push	{r4, r5, r6, r7, lr}
 8006082:	b095      	sub	sp, #84	; 0x54
 8006084:	000c      	movs	r4, r1
 8006086:	920a      	str	r2, [sp, #40]	; 0x28
 8006088:	930b      	str	r3, [sp, #44]	; 0x2c
 800608a:	9d1a      	ldr	r5, [sp, #104]	; 0x68
 800608c:	9009      	str	r0, [sp, #36]	; 0x24
 800608e:	f001 fa71 	bl	8007574 <_localeconv_r>
 8006092:	6803      	ldr	r3, [r0, #0]
 8006094:	0018      	movs	r0, r3
 8006096:	930c      	str	r3, [sp, #48]	; 0x30
 8006098:	f7fa f836 	bl	8000108 <strlen>
 800609c:	2300      	movs	r3, #0
 800609e:	9312      	str	r3, [sp, #72]	; 0x48
 80060a0:	6823      	ldr	r3, [r4, #0]
 80060a2:	900e      	str	r0, [sp, #56]	; 0x38
 80060a4:	930d      	str	r3, [sp, #52]	; 0x34
 80060a6:	990d      	ldr	r1, [sp, #52]	; 0x34
 80060a8:	7e27      	ldrb	r7, [r4, #24]
 80060aa:	682b      	ldr	r3, [r5, #0]
 80060ac:	2207      	movs	r2, #7
 80060ae:	05c9      	lsls	r1, r1, #23
 80060b0:	d545      	bpl.n	800613e <_printf_float+0xbe>
 80060b2:	189b      	adds	r3, r3, r2
 80060b4:	4393      	bics	r3, r2
 80060b6:	001a      	movs	r2, r3
 80060b8:	3208      	adds	r2, #8
 80060ba:	602a      	str	r2, [r5, #0]
 80060bc:	681a      	ldr	r2, [r3, #0]
 80060be:	685b      	ldr	r3, [r3, #4]
 80060c0:	64a2      	str	r2, [r4, #72]	; 0x48
 80060c2:	64e3      	str	r3, [r4, #76]	; 0x4c
 80060c4:	2201      	movs	r2, #1
 80060c6:	6ce5      	ldr	r5, [r4, #76]	; 0x4c
 80060c8:	6ca6      	ldr	r6, [r4, #72]	; 0x48
 80060ca:	006b      	lsls	r3, r5, #1
 80060cc:	085b      	lsrs	r3, r3, #1
 80060ce:	930f      	str	r3, [sp, #60]	; 0x3c
 80060d0:	4252      	negs	r2, r2
 80060d2:	4bac      	ldr	r3, [pc, #688]	; (8006384 <_printf_float+0x304>)
 80060d4:	0030      	movs	r0, r6
 80060d6:	990f      	ldr	r1, [sp, #60]	; 0x3c
 80060d8:	f7fb fefc 	bl	8001ed4 <__aeabi_dcmpun>
 80060dc:	2800      	cmp	r0, #0
 80060de:	d130      	bne.n	8006142 <_printf_float+0xc2>
 80060e0:	2201      	movs	r2, #1
 80060e2:	4ba8      	ldr	r3, [pc, #672]	; (8006384 <_printf_float+0x304>)
 80060e4:	4252      	negs	r2, r2
 80060e6:	0030      	movs	r0, r6
 80060e8:	990f      	ldr	r1, [sp, #60]	; 0x3c
 80060ea:	f7fa f9b5 	bl	8000458 <__aeabi_dcmple>
 80060ee:	2800      	cmp	r0, #0
 80060f0:	d127      	bne.n	8006142 <_printf_float+0xc2>
 80060f2:	2200      	movs	r2, #0
 80060f4:	2300      	movs	r3, #0
 80060f6:	0030      	movs	r0, r6
 80060f8:	0029      	movs	r1, r5
 80060fa:	f7fa f9a3 	bl	8000444 <__aeabi_dcmplt>
 80060fe:	2800      	cmp	r0, #0
 8006100:	d003      	beq.n	800610a <_printf_float+0x8a>
 8006102:	0023      	movs	r3, r4
 8006104:	222d      	movs	r2, #45	; 0x2d
 8006106:	3343      	adds	r3, #67	; 0x43
 8006108:	701a      	strb	r2, [r3, #0]
 800610a:	4d9f      	ldr	r5, [pc, #636]	; (8006388 <_printf_float+0x308>)
 800610c:	2f47      	cmp	r7, #71	; 0x47
 800610e:	d800      	bhi.n	8006112 <_printf_float+0x92>
 8006110:	4d9e      	ldr	r5, [pc, #632]	; (800638c <_printf_float+0x30c>)
 8006112:	2303      	movs	r3, #3
 8006114:	2600      	movs	r6, #0
 8006116:	9a0d      	ldr	r2, [sp, #52]	; 0x34
 8006118:	6123      	str	r3, [r4, #16]
 800611a:	3301      	adds	r3, #1
 800611c:	439a      	bics	r2, r3
 800611e:	6022      	str	r2, [r4, #0]
 8006120:	9b0b      	ldr	r3, [sp, #44]	; 0x2c
 8006122:	aa13      	add	r2, sp, #76	; 0x4c
 8006124:	9300      	str	r3, [sp, #0]
 8006126:	0021      	movs	r1, r4
 8006128:	9b0a      	ldr	r3, [sp, #40]	; 0x28
 800612a:	9809      	ldr	r0, [sp, #36]	; 0x24
 800612c:	f000 f9f4 	bl	8006518 <_printf_common>
 8006130:	1c43      	adds	r3, r0, #1
 8006132:	d000      	beq.n	8006136 <_printf_float+0xb6>
 8006134:	e093      	b.n	800625e <_printf_float+0x1de>
 8006136:	2001      	movs	r0, #1
 8006138:	4240      	negs	r0, r0
 800613a:	b015      	add	sp, #84	; 0x54
 800613c:	bdf0      	pop	{r4, r5, r6, r7, pc}
 800613e:	3307      	adds	r3, #7
 8006140:	e7b8      	b.n	80060b4 <_printf_float+0x34>
 8006142:	0032      	movs	r2, r6
 8006144:	002b      	movs	r3, r5
 8006146:	0030      	movs	r0, r6
 8006148:	0029      	movs	r1, r5
 800614a:	f7fb fec3 	bl	8001ed4 <__aeabi_dcmpun>
 800614e:	2800      	cmp	r0, #0
 8006150:	d004      	beq.n	800615c <_printf_float+0xdc>
 8006152:	4d8f      	ldr	r5, [pc, #572]	; (8006390 <_printf_float+0x310>)
 8006154:	2f47      	cmp	r7, #71	; 0x47
 8006156:	d8dc      	bhi.n	8006112 <_printf_float+0x92>
 8006158:	4d8e      	ldr	r5, [pc, #568]	; (8006394 <_printf_float+0x314>)
 800615a:	e7da      	b.n	8006112 <_printf_float+0x92>
 800615c:	2380      	movs	r3, #128	; 0x80
 800615e:	990d      	ldr	r1, [sp, #52]	; 0x34
 8006160:	6862      	ldr	r2, [r4, #4]
 8006162:	00db      	lsls	r3, r3, #3
 8006164:	430b      	orrs	r3, r1
 8006166:	1c51      	adds	r1, r2, #1
 8006168:	d143      	bne.n	80061f2 <_printf_float+0x172>
 800616a:	3207      	adds	r2, #7
 800616c:	6062      	str	r2, [r4, #4]
 800616e:	aa12      	add	r2, sp, #72	; 0x48
 8006170:	2100      	movs	r1, #0
 8006172:	9205      	str	r2, [sp, #20]
 8006174:	aa11      	add	r2, sp, #68	; 0x44
 8006176:	9203      	str	r2, [sp, #12]
 8006178:	2223      	movs	r2, #35	; 0x23
 800617a:	6023      	str	r3, [r4, #0]
 800617c:	9106      	str	r1, [sp, #24]
 800617e:	9301      	str	r3, [sp, #4]
 8006180:	a908      	add	r1, sp, #32
 8006182:	6863      	ldr	r3, [r4, #4]
 8006184:	1852      	adds	r2, r2, r1
 8006186:	9202      	str	r2, [sp, #8]
 8006188:	9300      	str	r3, [sp, #0]
 800618a:	0032      	movs	r2, r6
 800618c:	002b      	movs	r3, r5
 800618e:	9704      	str	r7, [sp, #16]
 8006190:	9809      	ldr	r0, [sp, #36]	; 0x24
 8006192:	f7ff fed9 	bl	8005f48 <__cvt>
 8006196:	2320      	movs	r3, #32
 8006198:	003a      	movs	r2, r7
 800619a:	0005      	movs	r5, r0
 800619c:	439a      	bics	r2, r3
 800619e:	2a47      	cmp	r2, #71	; 0x47
 80061a0:	d107      	bne.n	80061b2 <_printf_float+0x132>
 80061a2:	9b11      	ldr	r3, [sp, #68]	; 0x44
 80061a4:	1cda      	adds	r2, r3, #3
 80061a6:	db02      	blt.n	80061ae <_printf_float+0x12e>
 80061a8:	6862      	ldr	r2, [r4, #4]
 80061aa:	4293      	cmp	r3, r2
 80061ac:	dd45      	ble.n	800623a <_printf_float+0x1ba>
 80061ae:	3f02      	subs	r7, #2
 80061b0:	b2ff      	uxtb	r7, r7
 80061b2:	9911      	ldr	r1, [sp, #68]	; 0x44
 80061b4:	2f65      	cmp	r7, #101	; 0x65
 80061b6:	d825      	bhi.n	8006204 <_printf_float+0x184>
 80061b8:	0020      	movs	r0, r4
 80061ba:	3901      	subs	r1, #1
 80061bc:	003a      	movs	r2, r7
 80061be:	3050      	adds	r0, #80	; 0x50
 80061c0:	9111      	str	r1, [sp, #68]	; 0x44
 80061c2:	f7ff ff25 	bl	8006010 <__exponent>
 80061c6:	9a12      	ldr	r2, [sp, #72]	; 0x48
 80061c8:	0006      	movs	r6, r0
 80061ca:	1813      	adds	r3, r2, r0
 80061cc:	6123      	str	r3, [r4, #16]
 80061ce:	2a01      	cmp	r2, #1
 80061d0:	dc02      	bgt.n	80061d8 <_printf_float+0x158>
 80061d2:	6822      	ldr	r2, [r4, #0]
 80061d4:	07d2      	lsls	r2, r2, #31
 80061d6:	d501      	bpl.n	80061dc <_printf_float+0x15c>
 80061d8:	3301      	adds	r3, #1
 80061da:	6123      	str	r3, [r4, #16]
 80061dc:	2323      	movs	r3, #35	; 0x23
 80061de:	aa08      	add	r2, sp, #32
 80061e0:	189b      	adds	r3, r3, r2
 80061e2:	781b      	ldrb	r3, [r3, #0]
 80061e4:	2b00      	cmp	r3, #0
 80061e6:	d09b      	beq.n	8006120 <_printf_float+0xa0>
 80061e8:	0023      	movs	r3, r4
 80061ea:	222d      	movs	r2, #45	; 0x2d
 80061ec:	3343      	adds	r3, #67	; 0x43
 80061ee:	701a      	strb	r2, [r3, #0]
 80061f0:	e796      	b.n	8006120 <_printf_float+0xa0>
 80061f2:	2f67      	cmp	r7, #103	; 0x67
 80061f4:	d100      	bne.n	80061f8 <_printf_float+0x178>
 80061f6:	e176      	b.n	80064e6 <_printf_float+0x466>
 80061f8:	2f47      	cmp	r7, #71	; 0x47
 80061fa:	d1b8      	bne.n	800616e <_printf_float+0xee>
 80061fc:	2a00      	cmp	r2, #0
 80061fe:	d1b6      	bne.n	800616e <_printf_float+0xee>
 8006200:	2201      	movs	r2, #1
 8006202:	e7b3      	b.n	800616c <_printf_float+0xec>
 8006204:	2f66      	cmp	r7, #102	; 0x66
 8006206:	d119      	bne.n	800623c <_printf_float+0x1bc>
 8006208:	6863      	ldr	r3, [r4, #4]
 800620a:	2900      	cmp	r1, #0
 800620c:	dd0c      	ble.n	8006228 <_printf_float+0x1a8>
 800620e:	6121      	str	r1, [r4, #16]
 8006210:	2b00      	cmp	r3, #0
 8006212:	d102      	bne.n	800621a <_printf_float+0x19a>
 8006214:	6822      	ldr	r2, [r4, #0]
 8006216:	07d2      	lsls	r2, r2, #31
 8006218:	d502      	bpl.n	8006220 <_printf_float+0x1a0>
 800621a:	3301      	adds	r3, #1
 800621c:	185b      	adds	r3, r3, r1
 800621e:	6123      	str	r3, [r4, #16]
 8006220:	9b11      	ldr	r3, [sp, #68]	; 0x44
 8006222:	2600      	movs	r6, #0
 8006224:	65a3      	str	r3, [r4, #88]	; 0x58
 8006226:	e7d9      	b.n	80061dc <_printf_float+0x15c>
 8006228:	2b00      	cmp	r3, #0
 800622a:	d103      	bne.n	8006234 <_printf_float+0x1b4>
 800622c:	2201      	movs	r2, #1
 800622e:	6821      	ldr	r1, [r4, #0]
 8006230:	4211      	tst	r1, r2
 8006232:	d000      	beq.n	8006236 <_printf_float+0x1b6>
 8006234:	1c9a      	adds	r2, r3, #2
 8006236:	6122      	str	r2, [r4, #16]
 8006238:	e7f2      	b.n	8006220 <_printf_float+0x1a0>
 800623a:	2767      	movs	r7, #103	; 0x67
 800623c:	9b11      	ldr	r3, [sp, #68]	; 0x44
 800623e:	9a12      	ldr	r2, [sp, #72]	; 0x48
 8006240:	4293      	cmp	r3, r2
 8006242:	db05      	blt.n	8006250 <_printf_float+0x1d0>
 8006244:	6822      	ldr	r2, [r4, #0]
 8006246:	6123      	str	r3, [r4, #16]
 8006248:	07d2      	lsls	r2, r2, #31
 800624a:	d5e9      	bpl.n	8006220 <_printf_float+0x1a0>
 800624c:	3301      	adds	r3, #1
 800624e:	e7e6      	b.n	800621e <_printf_float+0x19e>
 8006250:	2101      	movs	r1, #1
 8006252:	2b00      	cmp	r3, #0
 8006254:	dc01      	bgt.n	800625a <_printf_float+0x1da>
 8006256:	1849      	adds	r1, r1, r1
 8006258:	1ac9      	subs	r1, r1, r3
 800625a:	1852      	adds	r2, r2, r1
 800625c:	e7eb      	b.n	8006236 <_printf_float+0x1b6>
 800625e:	6822      	ldr	r2, [r4, #0]
 8006260:	0553      	lsls	r3, r2, #21
 8006262:	d408      	bmi.n	8006276 <_printf_float+0x1f6>
 8006264:	6923      	ldr	r3, [r4, #16]
 8006266:	002a      	movs	r2, r5
 8006268:	990a      	ldr	r1, [sp, #40]	; 0x28
 800626a:	9809      	ldr	r0, [sp, #36]	; 0x24
 800626c:	9d0b      	ldr	r5, [sp, #44]	; 0x2c
 800626e:	47a8      	blx	r5
 8006270:	1c43      	adds	r3, r0, #1
 8006272:	d129      	bne.n	80062c8 <_printf_float+0x248>
 8006274:	e75f      	b.n	8006136 <_printf_float+0xb6>
 8006276:	2f65      	cmp	r7, #101	; 0x65
 8006278:	d800      	bhi.n	800627c <_printf_float+0x1fc>
 800627a:	e0e0      	b.n	800643e <_printf_float+0x3be>
 800627c:	6ca0      	ldr	r0, [r4, #72]	; 0x48
 800627e:	6ce1      	ldr	r1, [r4, #76]	; 0x4c
 8006280:	2200      	movs	r2, #0
 8006282:	2300      	movs	r3, #0
 8006284:	f7fa f8d8 	bl	8000438 <__aeabi_dcmpeq>
 8006288:	2800      	cmp	r0, #0
 800628a:	d034      	beq.n	80062f6 <_printf_float+0x276>
 800628c:	2301      	movs	r3, #1
 800628e:	4a42      	ldr	r2, [pc, #264]	; (8006398 <_printf_float+0x318>)
 8006290:	990a      	ldr	r1, [sp, #40]	; 0x28
 8006292:	9809      	ldr	r0, [sp, #36]	; 0x24
 8006294:	9d0b      	ldr	r5, [sp, #44]	; 0x2c
 8006296:	47a8      	blx	r5
 8006298:	1c43      	adds	r3, r0, #1
 800629a:	d100      	bne.n	800629e <_printf_float+0x21e>
 800629c:	e74b      	b.n	8006136 <_printf_float+0xb6>
 800629e:	9b11      	ldr	r3, [sp, #68]	; 0x44
 80062a0:	9a12      	ldr	r2, [sp, #72]	; 0x48
 80062a2:	4293      	cmp	r3, r2
 80062a4:	db02      	blt.n	80062ac <_printf_float+0x22c>
 80062a6:	6823      	ldr	r3, [r4, #0]
 80062a8:	07db      	lsls	r3, r3, #31
 80062aa:	d50d      	bpl.n	80062c8 <_printf_float+0x248>
 80062ac:	9d0b      	ldr	r5, [sp, #44]	; 0x2c
 80062ae:	9b0e      	ldr	r3, [sp, #56]	; 0x38
 80062b0:	9a0c      	ldr	r2, [sp, #48]	; 0x30
 80062b2:	990a      	ldr	r1, [sp, #40]	; 0x28
 80062b4:	9809      	ldr	r0, [sp, #36]	; 0x24
 80062b6:	47a8      	blx	r5
 80062b8:	2500      	movs	r5, #0
 80062ba:	1c43      	adds	r3, r0, #1
 80062bc:	d100      	bne.n	80062c0 <_printf_float+0x240>
 80062be:	e73a      	b.n	8006136 <_printf_float+0xb6>
 80062c0:	9b12      	ldr	r3, [sp, #72]	; 0x48
 80062c2:	3b01      	subs	r3, #1
 80062c4:	42ab      	cmp	r3, r5
 80062c6:	dc0a      	bgt.n	80062de <_printf_float+0x25e>
 80062c8:	6823      	ldr	r3, [r4, #0]
 80062ca:	079b      	lsls	r3, r3, #30
 80062cc:	d500      	bpl.n	80062d0 <_printf_float+0x250>
 80062ce:	e108      	b.n	80064e2 <_printf_float+0x462>
 80062d0:	9b13      	ldr	r3, [sp, #76]	; 0x4c
 80062d2:	68e0      	ldr	r0, [r4, #12]
 80062d4:	4298      	cmp	r0, r3
 80062d6:	db00      	blt.n	80062da <_printf_float+0x25a>
 80062d8:	e72f      	b.n	800613a <_printf_float+0xba>
 80062da:	0018      	movs	r0, r3
 80062dc:	e72d      	b.n	800613a <_printf_float+0xba>
 80062de:	0022      	movs	r2, r4
 80062e0:	2301      	movs	r3, #1
 80062e2:	321a      	adds	r2, #26
 80062e4:	990a      	ldr	r1, [sp, #40]	; 0x28
 80062e6:	9809      	ldr	r0, [sp, #36]	; 0x24
 80062e8:	9e0b      	ldr	r6, [sp, #44]	; 0x2c
 80062ea:	47b0      	blx	r6
 80062ec:	1c43      	adds	r3, r0, #1
 80062ee:	d100      	bne.n	80062f2 <_printf_float+0x272>
 80062f0:	e721      	b.n	8006136 <_printf_float+0xb6>
 80062f2:	3501      	adds	r5, #1
 80062f4:	e7e4      	b.n	80062c0 <_printf_float+0x240>
 80062f6:	9b11      	ldr	r3, [sp, #68]	; 0x44
 80062f8:	2b00      	cmp	r3, #0
 80062fa:	dc2d      	bgt.n	8006358 <_printf_float+0x2d8>
 80062fc:	2301      	movs	r3, #1
 80062fe:	4a26      	ldr	r2, [pc, #152]	; (8006398 <_printf_float+0x318>)
 8006300:	990a      	ldr	r1, [sp, #40]	; 0x28
 8006302:	9809      	ldr	r0, [sp, #36]	; 0x24
 8006304:	9e0b      	ldr	r6, [sp, #44]	; 0x2c
 8006306:	47b0      	blx	r6
 8006308:	1c43      	adds	r3, r0, #1
 800630a:	d100      	bne.n	800630e <_printf_float+0x28e>
 800630c:	e713      	b.n	8006136 <_printf_float+0xb6>
 800630e:	9b11      	ldr	r3, [sp, #68]	; 0x44
 8006310:	2b00      	cmp	r3, #0
 8006312:	d105      	bne.n	8006320 <_printf_float+0x2a0>
 8006314:	9b12      	ldr	r3, [sp, #72]	; 0x48
 8006316:	2b00      	cmp	r3, #0
 8006318:	d102      	bne.n	8006320 <_printf_float+0x2a0>
 800631a:	6823      	ldr	r3, [r4, #0]
 800631c:	07db      	lsls	r3, r3, #31
 800631e:	d5d3      	bpl.n	80062c8 <_printf_float+0x248>
 8006320:	9e0b      	ldr	r6, [sp, #44]	; 0x2c
 8006322:	9b0e      	ldr	r3, [sp, #56]	; 0x38
 8006324:	9a0c      	ldr	r2, [sp, #48]	; 0x30
 8006326:	990a      	ldr	r1, [sp, #40]	; 0x28
 8006328:	9809      	ldr	r0, [sp, #36]	; 0x24
 800632a:	47b0      	blx	r6
 800632c:	2600      	movs	r6, #0
 800632e:	1c43      	adds	r3, r0, #1
 8006330:	d100      	bne.n	8006334 <_printf_float+0x2b4>
 8006332:	e700      	b.n	8006136 <_printf_float+0xb6>
 8006334:	9b11      	ldr	r3, [sp, #68]	; 0x44
 8006336:	425b      	negs	r3, r3
 8006338:	42b3      	cmp	r3, r6
 800633a:	dc01      	bgt.n	8006340 <_printf_float+0x2c0>
 800633c:	9b12      	ldr	r3, [sp, #72]	; 0x48
 800633e:	e792      	b.n	8006266 <_printf_float+0x1e6>
 8006340:	0022      	movs	r2, r4
 8006342:	2301      	movs	r3, #1
 8006344:	321a      	adds	r2, #26
 8006346:	990a      	ldr	r1, [sp, #40]	; 0x28
 8006348:	9809      	ldr	r0, [sp, #36]	; 0x24
 800634a:	9f0b      	ldr	r7, [sp, #44]	; 0x2c
 800634c:	47b8      	blx	r7
 800634e:	1c43      	adds	r3, r0, #1
 8006350:	d100      	bne.n	8006354 <_printf_float+0x2d4>
 8006352:	e6f0      	b.n	8006136 <_printf_float+0xb6>
 8006354:	3601      	adds	r6, #1
 8006356:	e7ed      	b.n	8006334 <_printf_float+0x2b4>
 8006358:	6da3      	ldr	r3, [r4, #88]	; 0x58
 800635a:	9f12      	ldr	r7, [sp, #72]	; 0x48
 800635c:	429f      	cmp	r7, r3
 800635e:	dd00      	ble.n	8006362 <_printf_float+0x2e2>
 8006360:	001f      	movs	r7, r3
 8006362:	2f00      	cmp	r7, #0
 8006364:	dd08      	ble.n	8006378 <_printf_float+0x2f8>
 8006366:	003b      	movs	r3, r7
 8006368:	002a      	movs	r2, r5
 800636a:	990a      	ldr	r1, [sp, #40]	; 0x28
 800636c:	9809      	ldr	r0, [sp, #36]	; 0x24
 800636e:	9e0b      	ldr	r6, [sp, #44]	; 0x2c
 8006370:	47b0      	blx	r6
 8006372:	1c43      	adds	r3, r0, #1
 8006374:	d100      	bne.n	8006378 <_printf_float+0x2f8>
 8006376:	e6de      	b.n	8006136 <_printf_float+0xb6>
 8006378:	2300      	movs	r3, #0
 800637a:	930d      	str	r3, [sp, #52]	; 0x34
 800637c:	43fb      	mvns	r3, r7
 800637e:	17db      	asrs	r3, r3, #31
 8006380:	930f      	str	r3, [sp, #60]	; 0x3c
 8006382:	e018      	b.n	80063b6 <_printf_float+0x336>
 8006384:	7fefffff 	.word	0x7fefffff
 8006388:	08008410 	.word	0x08008410
 800638c:	0800840c 	.word	0x0800840c
 8006390:	08008418 	.word	0x08008418
 8006394:	08008414 	.word	0x08008414
 8006398:	0800841c 	.word	0x0800841c
 800639c:	0022      	movs	r2, r4
 800639e:	2301      	movs	r3, #1
 80063a0:	321a      	adds	r2, #26
 80063a2:	990a      	ldr	r1, [sp, #40]	; 0x28
 80063a4:	9809      	ldr	r0, [sp, #36]	; 0x24
 80063a6:	9e0b      	ldr	r6, [sp, #44]	; 0x2c
 80063a8:	47b0      	blx	r6
 80063aa:	1c43      	adds	r3, r0, #1
 80063ac:	d100      	bne.n	80063b0 <_printf_float+0x330>
 80063ae:	e6c2      	b.n	8006136 <_printf_float+0xb6>
 80063b0:	9b0d      	ldr	r3, [sp, #52]	; 0x34
 80063b2:	3301      	adds	r3, #1
 80063b4:	930d      	str	r3, [sp, #52]	; 0x34
 80063b6:	9b0f      	ldr	r3, [sp, #60]	; 0x3c
 80063b8:	6da6      	ldr	r6, [r4, #88]	; 0x58
 80063ba:	9a0d      	ldr	r2, [sp, #52]	; 0x34
 80063bc:	403b      	ands	r3, r7
 80063be:	1af3      	subs	r3, r6, r3
 80063c0:	4293      	cmp	r3, r2
 80063c2:	dceb      	bgt.n	800639c <_printf_float+0x31c>
 80063c4:	9b11      	ldr	r3, [sp, #68]	; 0x44
 80063c6:	9a12      	ldr	r2, [sp, #72]	; 0x48
 80063c8:	19ad      	adds	r5, r5, r6
 80063ca:	4293      	cmp	r3, r2
 80063cc:	db10      	blt.n	80063f0 <_printf_float+0x370>
 80063ce:	6823      	ldr	r3, [r4, #0]
 80063d0:	07db      	lsls	r3, r3, #31
 80063d2:	d40d      	bmi.n	80063f0 <_printf_float+0x370>
 80063d4:	9f12      	ldr	r7, [sp, #72]	; 0x48
 80063d6:	9b11      	ldr	r3, [sp, #68]	; 0x44
 80063d8:	1bbe      	subs	r6, r7, r6
 80063da:	1aff      	subs	r7, r7, r3
 80063dc:	42b7      	cmp	r7, r6
 80063de:	dd00      	ble.n	80063e2 <_printf_float+0x362>
 80063e0:	0037      	movs	r7, r6
 80063e2:	2f00      	cmp	r7, #0
 80063e4:	dc0d      	bgt.n	8006402 <_printf_float+0x382>
 80063e6:	43fe      	mvns	r6, r7
 80063e8:	17f3      	asrs	r3, r6, #31
 80063ea:	2500      	movs	r5, #0
 80063ec:	930c      	str	r3, [sp, #48]	; 0x30
 80063ee:	e01c      	b.n	800642a <_printf_float+0x3aa>
 80063f0:	9b0e      	ldr	r3, [sp, #56]	; 0x38
 80063f2:	9a0c      	ldr	r2, [sp, #48]	; 0x30
 80063f4:	990a      	ldr	r1, [sp, #40]	; 0x28
 80063f6:	9809      	ldr	r0, [sp, #36]	; 0x24
 80063f8:	9f0b      	ldr	r7, [sp, #44]	; 0x2c
 80063fa:	47b8      	blx	r7
 80063fc:	1c43      	adds	r3, r0, #1
 80063fe:	d1e9      	bne.n	80063d4 <_printf_float+0x354>
 8006400:	e699      	b.n	8006136 <_printf_float+0xb6>
 8006402:	003b      	movs	r3, r7
 8006404:	002a      	movs	r2, r5
 8006406:	990a      	ldr	r1, [sp, #40]	; 0x28
 8006408:	9809      	ldr	r0, [sp, #36]	; 0x24
 800640a:	9d0b      	ldr	r5, [sp, #44]	; 0x2c
 800640c:	47a8      	blx	r5
 800640e:	1c43      	adds	r3, r0, #1
 8006410:	d1e9      	bne.n	80063e6 <_printf_float+0x366>
 8006412:	e690      	b.n	8006136 <_printf_float+0xb6>
 8006414:	0022      	movs	r2, r4
 8006416:	2301      	movs	r3, #1
 8006418:	321a      	adds	r2, #26
 800641a:	990a      	ldr	r1, [sp, #40]	; 0x28
 800641c:	9809      	ldr	r0, [sp, #36]	; 0x24
 800641e:	9e0b      	ldr	r6, [sp, #44]	; 0x2c
 8006420:	47b0      	blx	r6
 8006422:	1c43      	adds	r3, r0, #1
 8006424:	d100      	bne.n	8006428 <_printf_float+0x3a8>
 8006426:	e686      	b.n	8006136 <_printf_float+0xb6>
 8006428:	3501      	adds	r5, #1
 800642a:	9a11      	ldr	r2, [sp, #68]	; 0x44
 800642c:	9b12      	ldr	r3, [sp, #72]	; 0x48
 800642e:	990c      	ldr	r1, [sp, #48]	; 0x30
 8006430:	1a9b      	subs	r3, r3, r2
 8006432:	003a      	movs	r2, r7
 8006434:	400a      	ands	r2, r1
 8006436:	1a9b      	subs	r3, r3, r2
 8006438:	42ab      	cmp	r3, r5
 800643a:	dceb      	bgt.n	8006414 <_printf_float+0x394>
 800643c:	e744      	b.n	80062c8 <_printf_float+0x248>
 800643e:	9b12      	ldr	r3, [sp, #72]	; 0x48
 8006440:	2b01      	cmp	r3, #1
 8006442:	dc02      	bgt.n	800644a <_printf_float+0x3ca>
 8006444:	2301      	movs	r3, #1
 8006446:	421a      	tst	r2, r3
 8006448:	d032      	beq.n	80064b0 <_printf_float+0x430>
 800644a:	2301      	movs	r3, #1
 800644c:	002a      	movs	r2, r5
 800644e:	990a      	ldr	r1, [sp, #40]	; 0x28
 8006450:	9809      	ldr	r0, [sp, #36]	; 0x24
 8006452:	9f0b      	ldr	r7, [sp, #44]	; 0x2c
 8006454:	47b8      	blx	r7
 8006456:	1c43      	adds	r3, r0, #1
 8006458:	d100      	bne.n	800645c <_printf_float+0x3dc>
 800645a:	e66c      	b.n	8006136 <_printf_float+0xb6>
 800645c:	9b0e      	ldr	r3, [sp, #56]	; 0x38
 800645e:	9a0c      	ldr	r2, [sp, #48]	; 0x30
 8006460:	990a      	ldr	r1, [sp, #40]	; 0x28
 8006462:	9809      	ldr	r0, [sp, #36]	; 0x24
 8006464:	9f0b      	ldr	r7, [sp, #44]	; 0x2c
 8006466:	3501      	adds	r5, #1
 8006468:	47b8      	blx	r7
 800646a:	1c43      	adds	r3, r0, #1
 800646c:	d100      	bne.n	8006470 <_printf_float+0x3f0>
 800646e:	e662      	b.n	8006136 <_printf_float+0xb6>
 8006470:	6ca0      	ldr	r0, [r4, #72]	; 0x48
 8006472:	6ce1      	ldr	r1, [r4, #76]	; 0x4c
 8006474:	9b12      	ldr	r3, [sp, #72]	; 0x48
 8006476:	2200      	movs	r2, #0
 8006478:	1e5f      	subs	r7, r3, #1
 800647a:	2300      	movs	r3, #0
 800647c:	f7f9 ffdc 	bl	8000438 <__aeabi_dcmpeq>
 8006480:	003b      	movs	r3, r7
 8006482:	2800      	cmp	r0, #0
 8006484:	d014      	beq.n	80064b0 <_printf_float+0x430>
 8006486:	2500      	movs	r5, #0
 8006488:	e00a      	b.n	80064a0 <_printf_float+0x420>
 800648a:	0022      	movs	r2, r4
 800648c:	2301      	movs	r3, #1
 800648e:	321a      	adds	r2, #26
 8006490:	990a      	ldr	r1, [sp, #40]	; 0x28
 8006492:	9809      	ldr	r0, [sp, #36]	; 0x24
 8006494:	9f0b      	ldr	r7, [sp, #44]	; 0x2c
 8006496:	47b8      	blx	r7
 8006498:	1c43      	adds	r3, r0, #1
 800649a:	d100      	bne.n	800649e <_printf_float+0x41e>
 800649c:	e64b      	b.n	8006136 <_printf_float+0xb6>
 800649e:	3501      	adds	r5, #1
 80064a0:	9b12      	ldr	r3, [sp, #72]	; 0x48
 80064a2:	3b01      	subs	r3, #1
 80064a4:	42ab      	cmp	r3, r5
 80064a6:	dcf0      	bgt.n	800648a <_printf_float+0x40a>
 80064a8:	0022      	movs	r2, r4
 80064aa:	0033      	movs	r3, r6
 80064ac:	3250      	adds	r2, #80	; 0x50
 80064ae:	e6db      	b.n	8006268 <_printf_float+0x1e8>
 80064b0:	002a      	movs	r2, r5
 80064b2:	990a      	ldr	r1, [sp, #40]	; 0x28
 80064b4:	9809      	ldr	r0, [sp, #36]	; 0x24
 80064b6:	9d0b      	ldr	r5, [sp, #44]	; 0x2c
 80064b8:	47a8      	blx	r5
 80064ba:	1c43      	adds	r3, r0, #1
 80064bc:	d1f4      	bne.n	80064a8 <_printf_float+0x428>
 80064be:	e63a      	b.n	8006136 <_printf_float+0xb6>
 80064c0:	0022      	movs	r2, r4
 80064c2:	2301      	movs	r3, #1
 80064c4:	3219      	adds	r2, #25
 80064c6:	990a      	ldr	r1, [sp, #40]	; 0x28
 80064c8:	9809      	ldr	r0, [sp, #36]	; 0x24
 80064ca:	9e0b      	ldr	r6, [sp, #44]	; 0x2c
 80064cc:	47b0      	blx	r6
 80064ce:	1c43      	adds	r3, r0, #1
 80064d0:	d100      	bne.n	80064d4 <_printf_float+0x454>
 80064d2:	e630      	b.n	8006136 <_printf_float+0xb6>
 80064d4:	3501      	adds	r5, #1
 80064d6:	68e3      	ldr	r3, [r4, #12]
 80064d8:	9a13      	ldr	r2, [sp, #76]	; 0x4c
 80064da:	1a9b      	subs	r3, r3, r2
 80064dc:	42ab      	cmp	r3, r5
 80064de:	dcef      	bgt.n	80064c0 <_printf_float+0x440>
 80064e0:	e6f6      	b.n	80062d0 <_printf_float+0x250>
 80064e2:	2500      	movs	r5, #0
 80064e4:	e7f7      	b.n	80064d6 <_printf_float+0x456>
 80064e6:	2a00      	cmp	r2, #0
 80064e8:	d100      	bne.n	80064ec <_printf_float+0x46c>
 80064ea:	e689      	b.n	8006200 <_printf_float+0x180>
 80064ec:	2100      	movs	r1, #0
 80064ee:	9106      	str	r1, [sp, #24]
 80064f0:	a912      	add	r1, sp, #72	; 0x48
 80064f2:	9105      	str	r1, [sp, #20]
 80064f4:	a911      	add	r1, sp, #68	; 0x44
 80064f6:	9103      	str	r1, [sp, #12]
 80064f8:	2123      	movs	r1, #35	; 0x23
 80064fa:	a808      	add	r0, sp, #32
 80064fc:	1809      	adds	r1, r1, r0
 80064fe:	6023      	str	r3, [r4, #0]
 8006500:	9301      	str	r3, [sp, #4]
 8006502:	9200      	str	r2, [sp, #0]
 8006504:	002b      	movs	r3, r5
 8006506:	9704      	str	r7, [sp, #16]
 8006508:	9102      	str	r1, [sp, #8]
 800650a:	0032      	movs	r2, r6
 800650c:	9809      	ldr	r0, [sp, #36]	; 0x24
 800650e:	f7ff fd1b 	bl	8005f48 <__cvt>
 8006512:	0005      	movs	r5, r0
 8006514:	e645      	b.n	80061a2 <_printf_float+0x122>
 8006516:	46c0      	nop			; (mov r8, r8)

08006518 <_printf_common>:
 8006518:	b5f7      	push	{r0, r1, r2, r4, r5, r6, r7, lr}
 800651a:	0015      	movs	r5, r2
 800651c:	9301      	str	r3, [sp, #4]
 800651e:	688a      	ldr	r2, [r1, #8]
 8006520:	690b      	ldr	r3, [r1, #16]
 8006522:	9000      	str	r0, [sp, #0]
 8006524:	000c      	movs	r4, r1
 8006526:	4293      	cmp	r3, r2
 8006528:	da00      	bge.n	800652c <_printf_common+0x14>
 800652a:	0013      	movs	r3, r2
 800652c:	0022      	movs	r2, r4
 800652e:	602b      	str	r3, [r5, #0]
 8006530:	3243      	adds	r2, #67	; 0x43
 8006532:	7812      	ldrb	r2, [r2, #0]
 8006534:	2a00      	cmp	r2, #0
 8006536:	d001      	beq.n	800653c <_printf_common+0x24>
 8006538:	3301      	adds	r3, #1
 800653a:	602b      	str	r3, [r5, #0]
 800653c:	6823      	ldr	r3, [r4, #0]
 800653e:	069b      	lsls	r3, r3, #26
 8006540:	d502      	bpl.n	8006548 <_printf_common+0x30>
 8006542:	682b      	ldr	r3, [r5, #0]
 8006544:	3302      	adds	r3, #2
 8006546:	602b      	str	r3, [r5, #0]
 8006548:	2706      	movs	r7, #6
 800654a:	6823      	ldr	r3, [r4, #0]
 800654c:	401f      	ands	r7, r3
 800654e:	d027      	beq.n	80065a0 <_printf_common+0x88>
 8006550:	0023      	movs	r3, r4
 8006552:	3343      	adds	r3, #67	; 0x43
 8006554:	781b      	ldrb	r3, [r3, #0]
 8006556:	1e5a      	subs	r2, r3, #1
 8006558:	4193      	sbcs	r3, r2
 800655a:	6822      	ldr	r2, [r4, #0]
 800655c:	0692      	lsls	r2, r2, #26
 800655e:	d430      	bmi.n	80065c2 <_printf_common+0xaa>
 8006560:	0022      	movs	r2, r4
 8006562:	9901      	ldr	r1, [sp, #4]
 8006564:	3243      	adds	r2, #67	; 0x43
 8006566:	9800      	ldr	r0, [sp, #0]
 8006568:	9e08      	ldr	r6, [sp, #32]
 800656a:	47b0      	blx	r6
 800656c:	1c43      	adds	r3, r0, #1
 800656e:	d025      	beq.n	80065bc <_printf_common+0xa4>
 8006570:	2306      	movs	r3, #6
 8006572:	6820      	ldr	r0, [r4, #0]
 8006574:	682a      	ldr	r2, [r5, #0]
 8006576:	68e1      	ldr	r1, [r4, #12]
 8006578:	4003      	ands	r3, r0
 800657a:	2500      	movs	r5, #0
 800657c:	2b04      	cmp	r3, #4
 800657e:	d103      	bne.n	8006588 <_printf_common+0x70>
 8006580:	1a8d      	subs	r5, r1, r2
 8006582:	43eb      	mvns	r3, r5
 8006584:	17db      	asrs	r3, r3, #31
 8006586:	401d      	ands	r5, r3
 8006588:	68a3      	ldr	r3, [r4, #8]
 800658a:	6922      	ldr	r2, [r4, #16]
 800658c:	4293      	cmp	r3, r2
 800658e:	dd01      	ble.n	8006594 <_printf_common+0x7c>
 8006590:	1a9b      	subs	r3, r3, r2
 8006592:	18ed      	adds	r5, r5, r3
 8006594:	2700      	movs	r7, #0
 8006596:	42bd      	cmp	r5, r7
 8006598:	d120      	bne.n	80065dc <_printf_common+0xc4>
 800659a:	2000      	movs	r0, #0
 800659c:	e010      	b.n	80065c0 <_printf_common+0xa8>
 800659e:	3701      	adds	r7, #1
 80065a0:	68e3      	ldr	r3, [r4, #12]
 80065a2:	682a      	ldr	r2, [r5, #0]
 80065a4:	1a9b      	subs	r3, r3, r2
 80065a6:	42bb      	cmp	r3, r7
 80065a8:	ddd2      	ble.n	8006550 <_printf_common+0x38>
 80065aa:	0022      	movs	r2, r4
 80065ac:	2301      	movs	r3, #1
 80065ae:	3219      	adds	r2, #25
 80065b0:	9901      	ldr	r1, [sp, #4]
 80065b2:	9800      	ldr	r0, [sp, #0]
 80065b4:	9e08      	ldr	r6, [sp, #32]
 80065b6:	47b0      	blx	r6
 80065b8:	1c43      	adds	r3, r0, #1
 80065ba:	d1f0      	bne.n	800659e <_printf_common+0x86>
 80065bc:	2001      	movs	r0, #1
 80065be:	4240      	negs	r0, r0
 80065c0:	bdfe      	pop	{r1, r2, r3, r4, r5, r6, r7, pc}
 80065c2:	2030      	movs	r0, #48	; 0x30
 80065c4:	18e1      	adds	r1, r4, r3
 80065c6:	3143      	adds	r1, #67	; 0x43
 80065c8:	7008      	strb	r0, [r1, #0]
 80065ca:	0021      	movs	r1, r4
 80065cc:	1c5a      	adds	r2, r3, #1
 80065ce:	3145      	adds	r1, #69	; 0x45
 80065d0:	7809      	ldrb	r1, [r1, #0]
 80065d2:	18a2      	adds	r2, r4, r2
 80065d4:	3243      	adds	r2, #67	; 0x43
 80065d6:	3302      	adds	r3, #2
 80065d8:	7011      	strb	r1, [r2, #0]
 80065da:	e7c1      	b.n	8006560 <_printf_common+0x48>
 80065dc:	0022      	movs	r2, r4
 80065de:	2301      	movs	r3, #1
 80065e0:	321a      	adds	r2, #26
 80065e2:	9901      	ldr	r1, [sp, #4]
 80065e4:	9800      	ldr	r0, [sp, #0]
 80065e6:	9e08      	ldr	r6, [sp, #32]
 80065e8:	47b0      	blx	r6
 80065ea:	1c43      	adds	r3, r0, #1
 80065ec:	d0e6      	beq.n	80065bc <_printf_common+0xa4>
 80065ee:	3701      	adds	r7, #1
 80065f0:	e7d1      	b.n	8006596 <_printf_common+0x7e>
	...

080065f4 <_printf_i>:
 80065f4:	b5f0      	push	{r4, r5, r6, r7, lr}
 80065f6:	b089      	sub	sp, #36	; 0x24
 80065f8:	9204      	str	r2, [sp, #16]
 80065fa:	000a      	movs	r2, r1
 80065fc:	3243      	adds	r2, #67	; 0x43
 80065fe:	9305      	str	r3, [sp, #20]
 8006600:	9003      	str	r0, [sp, #12]
 8006602:	9202      	str	r2, [sp, #8]
 8006604:	7e0a      	ldrb	r2, [r1, #24]
 8006606:	000c      	movs	r4, r1
 8006608:	9b0e      	ldr	r3, [sp, #56]	; 0x38
 800660a:	2a6e      	cmp	r2, #110	; 0x6e
 800660c:	d100      	bne.n	8006610 <_printf_i+0x1c>
 800660e:	e086      	b.n	800671e <_printf_i+0x12a>
 8006610:	d81f      	bhi.n	8006652 <_printf_i+0x5e>
 8006612:	2a63      	cmp	r2, #99	; 0x63
 8006614:	d033      	beq.n	800667e <_printf_i+0x8a>
 8006616:	d808      	bhi.n	800662a <_printf_i+0x36>
 8006618:	2a00      	cmp	r2, #0
 800661a:	d100      	bne.n	800661e <_printf_i+0x2a>
 800661c:	e08c      	b.n	8006738 <_printf_i+0x144>
 800661e:	2a58      	cmp	r2, #88	; 0x58
 8006620:	d04d      	beq.n	80066be <_printf_i+0xca>
 8006622:	0025      	movs	r5, r4
 8006624:	3542      	adds	r5, #66	; 0x42
 8006626:	702a      	strb	r2, [r5, #0]
 8006628:	e030      	b.n	800668c <_printf_i+0x98>
 800662a:	2a64      	cmp	r2, #100	; 0x64
 800662c:	d001      	beq.n	8006632 <_printf_i+0x3e>
 800662e:	2a69      	cmp	r2, #105	; 0x69
 8006630:	d1f7      	bne.n	8006622 <_printf_i+0x2e>
 8006632:	6819      	ldr	r1, [r3, #0]
 8006634:	6825      	ldr	r5, [r4, #0]
 8006636:	1d0a      	adds	r2, r1, #4
 8006638:	0628      	lsls	r0, r5, #24
 800663a:	d529      	bpl.n	8006690 <_printf_i+0x9c>
 800663c:	6808      	ldr	r0, [r1, #0]
 800663e:	601a      	str	r2, [r3, #0]
 8006640:	2800      	cmp	r0, #0
 8006642:	da03      	bge.n	800664c <_printf_i+0x58>
 8006644:	232d      	movs	r3, #45	; 0x2d
 8006646:	9a02      	ldr	r2, [sp, #8]
 8006648:	4240      	negs	r0, r0
 800664a:	7013      	strb	r3, [r2, #0]
 800664c:	4e6b      	ldr	r6, [pc, #428]	; (80067fc <_printf_i+0x208>)
 800664e:	270a      	movs	r7, #10
 8006650:	e04f      	b.n	80066f2 <_printf_i+0xfe>
 8006652:	2a73      	cmp	r2, #115	; 0x73
 8006654:	d074      	beq.n	8006740 <_printf_i+0x14c>
 8006656:	d808      	bhi.n	800666a <_printf_i+0x76>
 8006658:	2a6f      	cmp	r2, #111	; 0x6f
 800665a:	d01f      	beq.n	800669c <_printf_i+0xa8>
 800665c:	2a70      	cmp	r2, #112	; 0x70
 800665e:	d1e0      	bne.n	8006622 <_printf_i+0x2e>
 8006660:	2220      	movs	r2, #32
 8006662:	6809      	ldr	r1, [r1, #0]
 8006664:	430a      	orrs	r2, r1
 8006666:	6022      	str	r2, [r4, #0]
 8006668:	e003      	b.n	8006672 <_printf_i+0x7e>
 800666a:	2a75      	cmp	r2, #117	; 0x75
 800666c:	d016      	beq.n	800669c <_printf_i+0xa8>
 800666e:	2a78      	cmp	r2, #120	; 0x78
 8006670:	d1d7      	bne.n	8006622 <_printf_i+0x2e>
 8006672:	0022      	movs	r2, r4
 8006674:	2178      	movs	r1, #120	; 0x78
 8006676:	3245      	adds	r2, #69	; 0x45
 8006678:	7011      	strb	r1, [r2, #0]
 800667a:	4e61      	ldr	r6, [pc, #388]	; (8006800 <_printf_i+0x20c>)
 800667c:	e022      	b.n	80066c4 <_printf_i+0xd0>
 800667e:	0025      	movs	r5, r4
 8006680:	681a      	ldr	r2, [r3, #0]
 8006682:	3542      	adds	r5, #66	; 0x42
 8006684:	1d11      	adds	r1, r2, #4
 8006686:	6019      	str	r1, [r3, #0]
 8006688:	6813      	ldr	r3, [r2, #0]
 800668a:	702b      	strb	r3, [r5, #0]
 800668c:	2301      	movs	r3, #1
 800668e:	e065      	b.n	800675c <_printf_i+0x168>
 8006690:	6808      	ldr	r0, [r1, #0]
 8006692:	601a      	str	r2, [r3, #0]
 8006694:	0669      	lsls	r1, r5, #25
 8006696:	d5d3      	bpl.n	8006640 <_printf_i+0x4c>
 8006698:	b200      	sxth	r0, r0
 800669a:	e7d1      	b.n	8006640 <_printf_i+0x4c>
 800669c:	6819      	ldr	r1, [r3, #0]
 800669e:	6825      	ldr	r5, [r4, #0]
 80066a0:	1d08      	adds	r0, r1, #4
 80066a2:	6018      	str	r0, [r3, #0]
 80066a4:	6808      	ldr	r0, [r1, #0]
 80066a6:	062e      	lsls	r6, r5, #24
 80066a8:	d505      	bpl.n	80066b6 <_printf_i+0xc2>
 80066aa:	4e54      	ldr	r6, [pc, #336]	; (80067fc <_printf_i+0x208>)
 80066ac:	2708      	movs	r7, #8
 80066ae:	2a6f      	cmp	r2, #111	; 0x6f
 80066b0:	d01b      	beq.n	80066ea <_printf_i+0xf6>
 80066b2:	270a      	movs	r7, #10
 80066b4:	e019      	b.n	80066ea <_printf_i+0xf6>
 80066b6:	066d      	lsls	r5, r5, #25
 80066b8:	d5f7      	bpl.n	80066aa <_printf_i+0xb6>
 80066ba:	b280      	uxth	r0, r0
 80066bc:	e7f5      	b.n	80066aa <_printf_i+0xb6>
 80066be:	3145      	adds	r1, #69	; 0x45
 80066c0:	4e4e      	ldr	r6, [pc, #312]	; (80067fc <_printf_i+0x208>)
 80066c2:	700a      	strb	r2, [r1, #0]
 80066c4:	6818      	ldr	r0, [r3, #0]
 80066c6:	6822      	ldr	r2, [r4, #0]
 80066c8:	1d01      	adds	r1, r0, #4
 80066ca:	6800      	ldr	r0, [r0, #0]
 80066cc:	6019      	str	r1, [r3, #0]
 80066ce:	0615      	lsls	r5, r2, #24
 80066d0:	d521      	bpl.n	8006716 <_printf_i+0x122>
 80066d2:	07d3      	lsls	r3, r2, #31
 80066d4:	d502      	bpl.n	80066dc <_printf_i+0xe8>
 80066d6:	2320      	movs	r3, #32
 80066d8:	431a      	orrs	r2, r3
 80066da:	6022      	str	r2, [r4, #0]
 80066dc:	2710      	movs	r7, #16
 80066de:	2800      	cmp	r0, #0
 80066e0:	d103      	bne.n	80066ea <_printf_i+0xf6>
 80066e2:	2320      	movs	r3, #32
 80066e4:	6822      	ldr	r2, [r4, #0]
 80066e6:	439a      	bics	r2, r3
 80066e8:	6022      	str	r2, [r4, #0]
 80066ea:	0023      	movs	r3, r4
 80066ec:	2200      	movs	r2, #0
 80066ee:	3343      	adds	r3, #67	; 0x43
 80066f0:	701a      	strb	r2, [r3, #0]
 80066f2:	6863      	ldr	r3, [r4, #4]
 80066f4:	60a3      	str	r3, [r4, #8]
 80066f6:	2b00      	cmp	r3, #0
 80066f8:	db58      	blt.n	80067ac <_printf_i+0x1b8>
 80066fa:	2204      	movs	r2, #4
 80066fc:	6821      	ldr	r1, [r4, #0]
 80066fe:	4391      	bics	r1, r2
 8006700:	6021      	str	r1, [r4, #0]
 8006702:	2800      	cmp	r0, #0
 8006704:	d154      	bne.n	80067b0 <_printf_i+0x1bc>
 8006706:	9d02      	ldr	r5, [sp, #8]
 8006708:	2b00      	cmp	r3, #0
 800670a:	d05a      	beq.n	80067c2 <_printf_i+0x1ce>
 800670c:	0025      	movs	r5, r4
 800670e:	7833      	ldrb	r3, [r6, #0]
 8006710:	3542      	adds	r5, #66	; 0x42
 8006712:	702b      	strb	r3, [r5, #0]
 8006714:	e055      	b.n	80067c2 <_printf_i+0x1ce>
 8006716:	0655      	lsls	r5, r2, #25
 8006718:	d5db      	bpl.n	80066d2 <_printf_i+0xde>
 800671a:	b280      	uxth	r0, r0
 800671c:	e7d9      	b.n	80066d2 <_printf_i+0xde>
 800671e:	681a      	ldr	r2, [r3, #0]
 8006720:	680d      	ldr	r5, [r1, #0]
 8006722:	1d10      	adds	r0, r2, #4
 8006724:	6949      	ldr	r1, [r1, #20]
 8006726:	6018      	str	r0, [r3, #0]
 8006728:	6813      	ldr	r3, [r2, #0]
 800672a:	062e      	lsls	r6, r5, #24
 800672c:	d501      	bpl.n	8006732 <_printf_i+0x13e>
 800672e:	6019      	str	r1, [r3, #0]
 8006730:	e002      	b.n	8006738 <_printf_i+0x144>
 8006732:	066d      	lsls	r5, r5, #25
 8006734:	d5fb      	bpl.n	800672e <_printf_i+0x13a>
 8006736:	8019      	strh	r1, [r3, #0]
 8006738:	2300      	movs	r3, #0
 800673a:	9d02      	ldr	r5, [sp, #8]
 800673c:	6123      	str	r3, [r4, #16]
 800673e:	e04f      	b.n	80067e0 <_printf_i+0x1ec>
 8006740:	681a      	ldr	r2, [r3, #0]
 8006742:	1d11      	adds	r1, r2, #4
 8006744:	6019      	str	r1, [r3, #0]
 8006746:	6815      	ldr	r5, [r2, #0]
 8006748:	2100      	movs	r1, #0
 800674a:	6862      	ldr	r2, [r4, #4]
 800674c:	0028      	movs	r0, r5
 800674e:	f000 ff27 	bl	80075a0 <memchr>
 8006752:	2800      	cmp	r0, #0
 8006754:	d001      	beq.n	800675a <_printf_i+0x166>
 8006756:	1b40      	subs	r0, r0, r5
 8006758:	6060      	str	r0, [r4, #4]
 800675a:	6863      	ldr	r3, [r4, #4]
 800675c:	6123      	str	r3, [r4, #16]
 800675e:	2300      	movs	r3, #0
 8006760:	9a02      	ldr	r2, [sp, #8]
 8006762:	7013      	strb	r3, [r2, #0]
 8006764:	e03c      	b.n	80067e0 <_printf_i+0x1ec>
 8006766:	6923      	ldr	r3, [r4, #16]
 8006768:	002a      	movs	r2, r5
 800676a:	9904      	ldr	r1, [sp, #16]
 800676c:	9803      	ldr	r0, [sp, #12]
 800676e:	9d05      	ldr	r5, [sp, #20]
 8006770:	47a8      	blx	r5
 8006772:	1c43      	adds	r3, r0, #1
 8006774:	d03e      	beq.n	80067f4 <_printf_i+0x200>
 8006776:	6823      	ldr	r3, [r4, #0]
 8006778:	079b      	lsls	r3, r3, #30
 800677a:	d415      	bmi.n	80067a8 <_printf_i+0x1b4>
 800677c:	9b07      	ldr	r3, [sp, #28]
 800677e:	68e0      	ldr	r0, [r4, #12]
 8006780:	4298      	cmp	r0, r3
 8006782:	da39      	bge.n	80067f8 <_printf_i+0x204>
 8006784:	0018      	movs	r0, r3
 8006786:	e037      	b.n	80067f8 <_printf_i+0x204>
 8006788:	0022      	movs	r2, r4
 800678a:	2301      	movs	r3, #1
 800678c:	3219      	adds	r2, #25
 800678e:	9904      	ldr	r1, [sp, #16]
 8006790:	9803      	ldr	r0, [sp, #12]
 8006792:	9e05      	ldr	r6, [sp, #20]
 8006794:	47b0      	blx	r6
 8006796:	1c43      	adds	r3, r0, #1
 8006798:	d02c      	beq.n	80067f4 <_printf_i+0x200>
 800679a:	3501      	adds	r5, #1
 800679c:	68e3      	ldr	r3, [r4, #12]
 800679e:	9a07      	ldr	r2, [sp, #28]
 80067a0:	1a9b      	subs	r3, r3, r2
 80067a2:	42ab      	cmp	r3, r5
 80067a4:	dcf0      	bgt.n	8006788 <_printf_i+0x194>
 80067a6:	e7e9      	b.n	800677c <_printf_i+0x188>
 80067a8:	2500      	movs	r5, #0
 80067aa:	e7f7      	b.n	800679c <_printf_i+0x1a8>
 80067ac:	2800      	cmp	r0, #0
 80067ae:	d0ad      	beq.n	800670c <_printf_i+0x118>
 80067b0:	9d02      	ldr	r5, [sp, #8]
 80067b2:	0039      	movs	r1, r7
 80067b4:	f7f9 fd40 	bl	8000238 <__aeabi_uidivmod>
 80067b8:	5c73      	ldrb	r3, [r6, r1]
 80067ba:	3d01      	subs	r5, #1
 80067bc:	702b      	strb	r3, [r5, #0]
 80067be:	2800      	cmp	r0, #0
 80067c0:	d1f7      	bne.n	80067b2 <_printf_i+0x1be>
 80067c2:	2f08      	cmp	r7, #8
 80067c4:	d109      	bne.n	80067da <_printf_i+0x1e6>
 80067c6:	6823      	ldr	r3, [r4, #0]
 80067c8:	07db      	lsls	r3, r3, #31
 80067ca:	d506      	bpl.n	80067da <_printf_i+0x1e6>
 80067cc:	6863      	ldr	r3, [r4, #4]
 80067ce:	6922      	ldr	r2, [r4, #16]
 80067d0:	4293      	cmp	r3, r2
 80067d2:	dc02      	bgt.n	80067da <_printf_i+0x1e6>
 80067d4:	2330      	movs	r3, #48	; 0x30
 80067d6:	3d01      	subs	r5, #1
 80067d8:	702b      	strb	r3, [r5, #0]
 80067da:	9b02      	ldr	r3, [sp, #8]
 80067dc:	1b5b      	subs	r3, r3, r5
 80067de:	6123      	str	r3, [r4, #16]
 80067e0:	9b05      	ldr	r3, [sp, #20]
 80067e2:	aa07      	add	r2, sp, #28
 80067e4:	9300      	str	r3, [sp, #0]
 80067e6:	0021      	movs	r1, r4
 80067e8:	9b04      	ldr	r3, [sp, #16]
 80067ea:	9803      	ldr	r0, [sp, #12]
 80067ec:	f7ff fe94 	bl	8006518 <_printf_common>
 80067f0:	1c43      	adds	r3, r0, #1
 80067f2:	d1b8      	bne.n	8006766 <_printf_i+0x172>
 80067f4:	2001      	movs	r0, #1
 80067f6:	4240      	negs	r0, r0
 80067f8:	b009      	add	sp, #36	; 0x24
 80067fa:	bdf0      	pop	{r4, r5, r6, r7, pc}
 80067fc:	0800841e 	.word	0x0800841e
 8006800:	0800842f 	.word	0x0800842f

08006804 <sniprintf>:
 8006804:	b40c      	push	{r2, r3}
 8006806:	b530      	push	{r4, r5, lr}
 8006808:	4b16      	ldr	r3, [pc, #88]	; (8006864 <sniprintf+0x60>)
 800680a:	b09d      	sub	sp, #116	; 0x74
 800680c:	1e0c      	subs	r4, r1, #0
 800680e:	681d      	ldr	r5, [r3, #0]
 8006810:	da08      	bge.n	8006824 <sniprintf+0x20>
 8006812:	238b      	movs	r3, #139	; 0x8b
 8006814:	2001      	movs	r0, #1
 8006816:	602b      	str	r3, [r5, #0]
 8006818:	4240      	negs	r0, r0
 800681a:	b01d      	add	sp, #116	; 0x74
 800681c:	bc30      	pop	{r4, r5}
 800681e:	bc08      	pop	{r3}
 8006820:	b002      	add	sp, #8
 8006822:	4718      	bx	r3
 8006824:	2382      	movs	r3, #130	; 0x82
 8006826:	a902      	add	r1, sp, #8
 8006828:	009b      	lsls	r3, r3, #2
 800682a:	818b      	strh	r3, [r1, #12]
 800682c:	2300      	movs	r3, #0
 800682e:	9002      	str	r0, [sp, #8]
 8006830:	6108      	str	r0, [r1, #16]
 8006832:	429c      	cmp	r4, r3
 8006834:	d000      	beq.n	8006838 <sniprintf+0x34>
 8006836:	1e63      	subs	r3, r4, #1
 8006838:	608b      	str	r3, [r1, #8]
 800683a:	614b      	str	r3, [r1, #20]
 800683c:	2301      	movs	r3, #1
 800683e:	425b      	negs	r3, r3
 8006840:	81cb      	strh	r3, [r1, #14]
 8006842:	9a20      	ldr	r2, [sp, #128]	; 0x80
 8006844:	ab21      	add	r3, sp, #132	; 0x84
 8006846:	0028      	movs	r0, r5
 8006848:	9301      	str	r3, [sp, #4]
 800684a:	f001 fabb 	bl	8007dc4 <_svfiprintf_r>
 800684e:	1c43      	adds	r3, r0, #1
 8006850:	da01      	bge.n	8006856 <sniprintf+0x52>
 8006852:	238b      	movs	r3, #139	; 0x8b
 8006854:	602b      	str	r3, [r5, #0]
 8006856:	2c00      	cmp	r4, #0
 8006858:	d0df      	beq.n	800681a <sniprintf+0x16>
 800685a:	2300      	movs	r3, #0
 800685c:	9a02      	ldr	r2, [sp, #8]
 800685e:	7013      	strb	r3, [r2, #0]
 8006860:	e7db      	b.n	800681a <sniprintf+0x16>
 8006862:	46c0      	nop			; (mov r8, r8)
 8006864:	20000010 	.word	0x20000010

08006868 <siprintf>:
 8006868:	b40e      	push	{r1, r2, r3}
 800686a:	b500      	push	{lr}
 800686c:	490b      	ldr	r1, [pc, #44]	; (800689c <siprintf+0x34>)
 800686e:	b09c      	sub	sp, #112	; 0x70
 8006870:	ab1d      	add	r3, sp, #116	; 0x74
 8006872:	9002      	str	r0, [sp, #8]
 8006874:	9006      	str	r0, [sp, #24]
 8006876:	9107      	str	r1, [sp, #28]
 8006878:	9104      	str	r1, [sp, #16]
 800687a:	4809      	ldr	r0, [pc, #36]	; (80068a0 <siprintf+0x38>)
 800687c:	4909      	ldr	r1, [pc, #36]	; (80068a4 <siprintf+0x3c>)
 800687e:	cb04      	ldmia	r3!, {r2}
 8006880:	9105      	str	r1, [sp, #20]
 8006882:	6800      	ldr	r0, [r0, #0]
 8006884:	a902      	add	r1, sp, #8
 8006886:	9301      	str	r3, [sp, #4]
 8006888:	f001 fa9c 	bl	8007dc4 <_svfiprintf_r>
 800688c:	2300      	movs	r3, #0
 800688e:	9a02      	ldr	r2, [sp, #8]
 8006890:	7013      	strb	r3, [r2, #0]
 8006892:	b01c      	add	sp, #112	; 0x70
 8006894:	bc08      	pop	{r3}
 8006896:	b003      	add	sp, #12
 8006898:	4718      	bx	r3
 800689a:	46c0      	nop			; (mov r8, r8)
 800689c:	7fffffff 	.word	0x7fffffff
 80068a0:	20000010 	.word	0x20000010
 80068a4:	ffff0208 	.word	0xffff0208

080068a8 <quorem>:
 80068a8:	b5f0      	push	{r4, r5, r6, r7, lr}
 80068aa:	6903      	ldr	r3, [r0, #16]
 80068ac:	690c      	ldr	r4, [r1, #16]
 80068ae:	b089      	sub	sp, #36	; 0x24
 80068b0:	0007      	movs	r7, r0
 80068b2:	9105      	str	r1, [sp, #20]
 80068b4:	2600      	movs	r6, #0
 80068b6:	42a3      	cmp	r3, r4
 80068b8:	db65      	blt.n	8006986 <quorem+0xde>
 80068ba:	000b      	movs	r3, r1
 80068bc:	3c01      	subs	r4, #1
 80068be:	3314      	adds	r3, #20
 80068c0:	00a5      	lsls	r5, r4, #2
 80068c2:	9303      	str	r3, [sp, #12]
 80068c4:	195b      	adds	r3, r3, r5
 80068c6:	9304      	str	r3, [sp, #16]
 80068c8:	0003      	movs	r3, r0
 80068ca:	3314      	adds	r3, #20
 80068cc:	9302      	str	r3, [sp, #8]
 80068ce:	195d      	adds	r5, r3, r5
 80068d0:	9b04      	ldr	r3, [sp, #16]
 80068d2:	6828      	ldr	r0, [r5, #0]
 80068d4:	681b      	ldr	r3, [r3, #0]
 80068d6:	1c59      	adds	r1, r3, #1
 80068d8:	9301      	str	r3, [sp, #4]
 80068da:	f7f9 fc27 	bl	800012c <__udivsi3>
 80068de:	9001      	str	r0, [sp, #4]
 80068e0:	42b0      	cmp	r0, r6
 80068e2:	d029      	beq.n	8006938 <quorem+0x90>
 80068e4:	9b03      	ldr	r3, [sp, #12]
 80068e6:	9802      	ldr	r0, [sp, #8]
 80068e8:	469c      	mov	ip, r3
 80068ea:	9606      	str	r6, [sp, #24]
 80068ec:	4662      	mov	r2, ip
 80068ee:	ca08      	ldmia	r2!, {r3}
 80068f0:	4694      	mov	ip, r2
 80068f2:	9a01      	ldr	r2, [sp, #4]
 80068f4:	b299      	uxth	r1, r3
 80068f6:	4351      	muls	r1, r2
 80068f8:	0c1b      	lsrs	r3, r3, #16
 80068fa:	4353      	muls	r3, r2
 80068fc:	1989      	adds	r1, r1, r6
 80068fe:	0c0a      	lsrs	r2, r1, #16
 8006900:	189b      	adds	r3, r3, r2
 8006902:	9307      	str	r3, [sp, #28]
 8006904:	0c1e      	lsrs	r6, r3, #16
 8006906:	6803      	ldr	r3, [r0, #0]
 8006908:	b289      	uxth	r1, r1
 800690a:	b29a      	uxth	r2, r3
 800690c:	9b06      	ldr	r3, [sp, #24]
 800690e:	18d2      	adds	r2, r2, r3
 8006910:	6803      	ldr	r3, [r0, #0]
 8006912:	1a52      	subs	r2, r2, r1
 8006914:	0c19      	lsrs	r1, r3, #16
 8006916:	466b      	mov	r3, sp
 8006918:	8b9b      	ldrh	r3, [r3, #28]
 800691a:	1acb      	subs	r3, r1, r3
 800691c:	1411      	asrs	r1, r2, #16
 800691e:	185b      	adds	r3, r3, r1
 8006920:	1419      	asrs	r1, r3, #16
 8006922:	b292      	uxth	r2, r2
 8006924:	041b      	lsls	r3, r3, #16
 8006926:	431a      	orrs	r2, r3
 8006928:	9b04      	ldr	r3, [sp, #16]
 800692a:	9106      	str	r1, [sp, #24]
 800692c:	c004      	stmia	r0!, {r2}
 800692e:	4563      	cmp	r3, ip
 8006930:	d2dc      	bcs.n	80068ec <quorem+0x44>
 8006932:	682b      	ldr	r3, [r5, #0]
 8006934:	2b00      	cmp	r3, #0
 8006936:	d02d      	beq.n	8006994 <quorem+0xec>
 8006938:	9905      	ldr	r1, [sp, #20]
 800693a:	0038      	movs	r0, r7
 800693c:	f001 f858 	bl	80079f0 <__mcmp>
 8006940:	2800      	cmp	r0, #0
 8006942:	db1f      	blt.n	8006984 <quorem+0xdc>
 8006944:	2500      	movs	r5, #0
 8006946:	9b01      	ldr	r3, [sp, #4]
 8006948:	9802      	ldr	r0, [sp, #8]
 800694a:	3301      	adds	r3, #1
 800694c:	9903      	ldr	r1, [sp, #12]
 800694e:	9301      	str	r3, [sp, #4]
 8006950:	6802      	ldr	r2, [r0, #0]
 8006952:	c908      	ldmia	r1!, {r3}
 8006954:	b292      	uxth	r2, r2
 8006956:	1955      	adds	r5, r2, r5
 8006958:	b29a      	uxth	r2, r3
 800695a:	1aaa      	subs	r2, r5, r2
 800695c:	6805      	ldr	r5, [r0, #0]
 800695e:	0c1b      	lsrs	r3, r3, #16
 8006960:	0c2d      	lsrs	r5, r5, #16
 8006962:	1aeb      	subs	r3, r5, r3
 8006964:	1415      	asrs	r5, r2, #16
 8006966:	195b      	adds	r3, r3, r5
 8006968:	141d      	asrs	r5, r3, #16
 800696a:	b292      	uxth	r2, r2
 800696c:	041b      	lsls	r3, r3, #16
 800696e:	4313      	orrs	r3, r2
 8006970:	c008      	stmia	r0!, {r3}
 8006972:	9b04      	ldr	r3, [sp, #16]
 8006974:	428b      	cmp	r3, r1
 8006976:	d2eb      	bcs.n	8006950 <quorem+0xa8>
 8006978:	9a02      	ldr	r2, [sp, #8]
 800697a:	00a3      	lsls	r3, r4, #2
 800697c:	18d3      	adds	r3, r2, r3
 800697e:	681a      	ldr	r2, [r3, #0]
 8006980:	2a00      	cmp	r2, #0
 8006982:	d011      	beq.n	80069a8 <quorem+0x100>
 8006984:	9e01      	ldr	r6, [sp, #4]
 8006986:	0030      	movs	r0, r6
 8006988:	b009      	add	sp, #36	; 0x24
 800698a:	bdf0      	pop	{r4, r5, r6, r7, pc}
 800698c:	682b      	ldr	r3, [r5, #0]
 800698e:	2b00      	cmp	r3, #0
 8006990:	d104      	bne.n	800699c <quorem+0xf4>
 8006992:	3c01      	subs	r4, #1
 8006994:	9b02      	ldr	r3, [sp, #8]
 8006996:	3d04      	subs	r5, #4
 8006998:	42ab      	cmp	r3, r5
 800699a:	d3f7      	bcc.n	800698c <quorem+0xe4>
 800699c:	613c      	str	r4, [r7, #16]
 800699e:	e7cb      	b.n	8006938 <quorem+0x90>
 80069a0:	681a      	ldr	r2, [r3, #0]
 80069a2:	2a00      	cmp	r2, #0
 80069a4:	d104      	bne.n	80069b0 <quorem+0x108>
 80069a6:	3c01      	subs	r4, #1
 80069a8:	9a02      	ldr	r2, [sp, #8]
 80069aa:	3b04      	subs	r3, #4
 80069ac:	429a      	cmp	r2, r3
 80069ae:	d3f7      	bcc.n	80069a0 <quorem+0xf8>
 80069b0:	613c      	str	r4, [r7, #16]
 80069b2:	e7e7      	b.n	8006984 <quorem+0xdc>

080069b4 <_dtoa_r>:
 80069b4:	b5f0      	push	{r4, r5, r6, r7, lr}
 80069b6:	0016      	movs	r6, r2
 80069b8:	001f      	movs	r7, r3
 80069ba:	6a44      	ldr	r4, [r0, #36]	; 0x24
 80069bc:	b09b      	sub	sp, #108	; 0x6c
 80069be:	9002      	str	r0, [sp, #8]
 80069c0:	9d23      	ldr	r5, [sp, #140]	; 0x8c
 80069c2:	9606      	str	r6, [sp, #24]
 80069c4:	9707      	str	r7, [sp, #28]
 80069c6:	2c00      	cmp	r4, #0
 80069c8:	d108      	bne.n	80069dc <_dtoa_r+0x28>
 80069ca:	2010      	movs	r0, #16
 80069cc:	f000 fdde 	bl	800758c <malloc>
 80069d0:	9b02      	ldr	r3, [sp, #8]
 80069d2:	6258      	str	r0, [r3, #36]	; 0x24
 80069d4:	6044      	str	r4, [r0, #4]
 80069d6:	6084      	str	r4, [r0, #8]
 80069d8:	6004      	str	r4, [r0, #0]
 80069da:	60c4      	str	r4, [r0, #12]
 80069dc:	9b02      	ldr	r3, [sp, #8]
 80069de:	6a5b      	ldr	r3, [r3, #36]	; 0x24
 80069e0:	6819      	ldr	r1, [r3, #0]
 80069e2:	2900      	cmp	r1, #0
 80069e4:	d00b      	beq.n	80069fe <_dtoa_r+0x4a>
 80069e6:	685a      	ldr	r2, [r3, #4]
 80069e8:	2301      	movs	r3, #1
 80069ea:	4093      	lsls	r3, r2
 80069ec:	604a      	str	r2, [r1, #4]
 80069ee:	608b      	str	r3, [r1, #8]
 80069f0:	9802      	ldr	r0, [sp, #8]
 80069f2:	f000 fe21 	bl	8007638 <_Bfree>
 80069f6:	2200      	movs	r2, #0
 80069f8:	9b02      	ldr	r3, [sp, #8]
 80069fa:	6a5b      	ldr	r3, [r3, #36]	; 0x24
 80069fc:	601a      	str	r2, [r3, #0]
 80069fe:	2f00      	cmp	r7, #0
 8006a00:	da20      	bge.n	8006a44 <_dtoa_r+0x90>
 8006a02:	2301      	movs	r3, #1
 8006a04:	602b      	str	r3, [r5, #0]
 8006a06:	007b      	lsls	r3, r7, #1
 8006a08:	085b      	lsrs	r3, r3, #1
 8006a0a:	9307      	str	r3, [sp, #28]
 8006a0c:	9c07      	ldr	r4, [sp, #28]
 8006a0e:	4bb2      	ldr	r3, [pc, #712]	; (8006cd8 <_dtoa_r+0x324>)
 8006a10:	0022      	movs	r2, r4
 8006a12:	9317      	str	r3, [sp, #92]	; 0x5c
 8006a14:	401a      	ands	r2, r3
 8006a16:	429a      	cmp	r2, r3
 8006a18:	d117      	bne.n	8006a4a <_dtoa_r+0x96>
 8006a1a:	4bb0      	ldr	r3, [pc, #704]	; (8006cdc <_dtoa_r+0x328>)
 8006a1c:	9a22      	ldr	r2, [sp, #136]	; 0x88
 8006a1e:	6013      	str	r3, [r2, #0]
 8006a20:	9b06      	ldr	r3, [sp, #24]
 8006a22:	2b00      	cmp	r3, #0
 8006a24:	d103      	bne.n	8006a2e <_dtoa_r+0x7a>
 8006a26:	0324      	lsls	r4, r4, #12
 8006a28:	d101      	bne.n	8006a2e <_dtoa_r+0x7a>
 8006a2a:	f000 fd87 	bl	800753c <_dtoa_r+0xb88>
 8006a2e:	4bac      	ldr	r3, [pc, #688]	; (8006ce0 <_dtoa_r+0x32c>)
 8006a30:	9a24      	ldr	r2, [sp, #144]	; 0x90
 8006a32:	9308      	str	r3, [sp, #32]
 8006a34:	2a00      	cmp	r2, #0
 8006a36:	d002      	beq.n	8006a3e <_dtoa_r+0x8a>
 8006a38:	4baa      	ldr	r3, [pc, #680]	; (8006ce4 <_dtoa_r+0x330>)
 8006a3a:	9a24      	ldr	r2, [sp, #144]	; 0x90
 8006a3c:	6013      	str	r3, [r2, #0]
 8006a3e:	9808      	ldr	r0, [sp, #32]
 8006a40:	b01b      	add	sp, #108	; 0x6c
 8006a42:	bdf0      	pop	{r4, r5, r6, r7, pc}
 8006a44:	2300      	movs	r3, #0
 8006a46:	602b      	str	r3, [r5, #0]
 8006a48:	e7e0      	b.n	8006a0c <_dtoa_r+0x58>
 8006a4a:	9e06      	ldr	r6, [sp, #24]
 8006a4c:	9f07      	ldr	r7, [sp, #28]
 8006a4e:	2200      	movs	r2, #0
 8006a50:	2300      	movs	r3, #0
 8006a52:	0030      	movs	r0, r6
 8006a54:	0039      	movs	r1, r7
 8006a56:	f7f9 fcef 	bl	8000438 <__aeabi_dcmpeq>
 8006a5a:	1e05      	subs	r5, r0, #0
 8006a5c:	d00b      	beq.n	8006a76 <_dtoa_r+0xc2>
 8006a5e:	2301      	movs	r3, #1
 8006a60:	9a22      	ldr	r2, [sp, #136]	; 0x88
 8006a62:	6013      	str	r3, [r2, #0]
 8006a64:	4ba0      	ldr	r3, [pc, #640]	; (8006ce8 <_dtoa_r+0x334>)
 8006a66:	9a24      	ldr	r2, [sp, #144]	; 0x90
 8006a68:	9308      	str	r3, [sp, #32]
 8006a6a:	2a00      	cmp	r2, #0
 8006a6c:	d0e7      	beq.n	8006a3e <_dtoa_r+0x8a>
 8006a6e:	4a9f      	ldr	r2, [pc, #636]	; (8006cec <_dtoa_r+0x338>)
 8006a70:	9924      	ldr	r1, [sp, #144]	; 0x90
 8006a72:	600a      	str	r2, [r1, #0]
 8006a74:	e7e3      	b.n	8006a3e <_dtoa_r+0x8a>
 8006a76:	ab18      	add	r3, sp, #96	; 0x60
 8006a78:	9301      	str	r3, [sp, #4]
 8006a7a:	ab19      	add	r3, sp, #100	; 0x64
 8006a7c:	9300      	str	r3, [sp, #0]
 8006a7e:	0032      	movs	r2, r6
 8006a80:	003b      	movs	r3, r7
 8006a82:	9802      	ldr	r0, [sp, #8]
 8006a84:	f001 f832 	bl	8007aec <__d2b>
 8006a88:	0063      	lsls	r3, r4, #1
 8006a8a:	9003      	str	r0, [sp, #12]
 8006a8c:	0d5b      	lsrs	r3, r3, #21
 8006a8e:	d074      	beq.n	8006b7a <_dtoa_r+0x1c6>
 8006a90:	033a      	lsls	r2, r7, #12
 8006a92:	4c97      	ldr	r4, [pc, #604]	; (8006cf0 <_dtoa_r+0x33c>)
 8006a94:	0b12      	lsrs	r2, r2, #12
 8006a96:	4314      	orrs	r4, r2
 8006a98:	0021      	movs	r1, r4
 8006a9a:	4a96      	ldr	r2, [pc, #600]	; (8006cf4 <_dtoa_r+0x340>)
 8006a9c:	0030      	movs	r0, r6
 8006a9e:	9516      	str	r5, [sp, #88]	; 0x58
 8006aa0:	189e      	adds	r6, r3, r2
 8006aa2:	2200      	movs	r2, #0
 8006aa4:	4b94      	ldr	r3, [pc, #592]	; (8006cf8 <_dtoa_r+0x344>)
 8006aa6:	f7fa fecd 	bl	8001844 <__aeabi_dsub>
 8006aaa:	4a94      	ldr	r2, [pc, #592]	; (8006cfc <_dtoa_r+0x348>)
 8006aac:	4b94      	ldr	r3, [pc, #592]	; (8006d00 <_dtoa_r+0x34c>)
 8006aae:	f7fa fc57 	bl	8001360 <__aeabi_dmul>
 8006ab2:	4a94      	ldr	r2, [pc, #592]	; (8006d04 <_dtoa_r+0x350>)
 8006ab4:	4b94      	ldr	r3, [pc, #592]	; (8006d08 <_dtoa_r+0x354>)
 8006ab6:	f7f9 fd2d 	bl	8000514 <__aeabi_dadd>
 8006aba:	0004      	movs	r4, r0
 8006abc:	0030      	movs	r0, r6
 8006abe:	000d      	movs	r5, r1
 8006ac0:	f7fb fa5a 	bl	8001f78 <__aeabi_i2d>
 8006ac4:	4a91      	ldr	r2, [pc, #580]	; (8006d0c <_dtoa_r+0x358>)
 8006ac6:	4b92      	ldr	r3, [pc, #584]	; (8006d10 <_dtoa_r+0x35c>)
 8006ac8:	f7fa fc4a 	bl	8001360 <__aeabi_dmul>
 8006acc:	0002      	movs	r2, r0
 8006ace:	000b      	movs	r3, r1
 8006ad0:	0020      	movs	r0, r4
 8006ad2:	0029      	movs	r1, r5
 8006ad4:	f7f9 fd1e 	bl	8000514 <__aeabi_dadd>
 8006ad8:	0004      	movs	r4, r0
 8006ada:	000d      	movs	r5, r1
 8006adc:	f7fb fa16 	bl	8001f0c <__aeabi_d2iz>
 8006ae0:	2200      	movs	r2, #0
 8006ae2:	0007      	movs	r7, r0
 8006ae4:	2300      	movs	r3, #0
 8006ae6:	0020      	movs	r0, r4
 8006ae8:	0029      	movs	r1, r5
 8006aea:	f7f9 fcab 	bl	8000444 <__aeabi_dcmplt>
 8006aee:	2800      	cmp	r0, #0
 8006af0:	d009      	beq.n	8006b06 <_dtoa_r+0x152>
 8006af2:	0038      	movs	r0, r7
 8006af4:	f7fb fa40 	bl	8001f78 <__aeabi_i2d>
 8006af8:	002b      	movs	r3, r5
 8006afa:	0022      	movs	r2, r4
 8006afc:	f7f9 fc9c 	bl	8000438 <__aeabi_dcmpeq>
 8006b00:	4243      	negs	r3, r0
 8006b02:	4158      	adcs	r0, r3
 8006b04:	1a3f      	subs	r7, r7, r0
 8006b06:	2301      	movs	r3, #1
 8006b08:	9314      	str	r3, [sp, #80]	; 0x50
 8006b0a:	2f16      	cmp	r7, #22
 8006b0c:	d80d      	bhi.n	8006b2a <_dtoa_r+0x176>
 8006b0e:	4981      	ldr	r1, [pc, #516]	; (8006d14 <_dtoa_r+0x360>)
 8006b10:	00fb      	lsls	r3, r7, #3
 8006b12:	18c9      	adds	r1, r1, r3
 8006b14:	6808      	ldr	r0, [r1, #0]
 8006b16:	6849      	ldr	r1, [r1, #4]
 8006b18:	9a06      	ldr	r2, [sp, #24]
 8006b1a:	9b07      	ldr	r3, [sp, #28]
 8006b1c:	f7f9 fca6 	bl	800046c <__aeabi_dcmpgt>
 8006b20:	2800      	cmp	r0, #0
 8006b22:	d046      	beq.n	8006bb2 <_dtoa_r+0x1fe>
 8006b24:	2300      	movs	r3, #0
 8006b26:	3f01      	subs	r7, #1
 8006b28:	9314      	str	r3, [sp, #80]	; 0x50
 8006b2a:	9b18      	ldr	r3, [sp, #96]	; 0x60
 8006b2c:	1b9e      	subs	r6, r3, r6
 8006b2e:	2300      	movs	r3, #0
 8006b30:	930a      	str	r3, [sp, #40]	; 0x28
 8006b32:	0033      	movs	r3, r6
 8006b34:	3b01      	subs	r3, #1
 8006b36:	930b      	str	r3, [sp, #44]	; 0x2c
 8006b38:	d504      	bpl.n	8006b44 <_dtoa_r+0x190>
 8006b3a:	2301      	movs	r3, #1
 8006b3c:	1b9b      	subs	r3, r3, r6
 8006b3e:	930a      	str	r3, [sp, #40]	; 0x28
 8006b40:	2300      	movs	r3, #0
 8006b42:	930b      	str	r3, [sp, #44]	; 0x2c
 8006b44:	2f00      	cmp	r7, #0
 8006b46:	db36      	blt.n	8006bb6 <_dtoa_r+0x202>
 8006b48:	9b0b      	ldr	r3, [sp, #44]	; 0x2c
 8006b4a:	9711      	str	r7, [sp, #68]	; 0x44
 8006b4c:	19db      	adds	r3, r3, r7
 8006b4e:	930b      	str	r3, [sp, #44]	; 0x2c
 8006b50:	2300      	movs	r3, #0
 8006b52:	9304      	str	r3, [sp, #16]
 8006b54:	9b20      	ldr	r3, [sp, #128]	; 0x80
 8006b56:	2401      	movs	r4, #1
 8006b58:	2b09      	cmp	r3, #9
 8006b5a:	d900      	bls.n	8006b5e <_dtoa_r+0x1aa>
 8006b5c:	e084      	b.n	8006c68 <_dtoa_r+0x2b4>
 8006b5e:	2b05      	cmp	r3, #5
 8006b60:	dd02      	ble.n	8006b68 <_dtoa_r+0x1b4>
 8006b62:	2400      	movs	r4, #0
 8006b64:	3b04      	subs	r3, #4
 8006b66:	9320      	str	r3, [sp, #128]	; 0x80
 8006b68:	9b20      	ldr	r3, [sp, #128]	; 0x80
 8006b6a:	1e98      	subs	r0, r3, #2
 8006b6c:	2803      	cmp	r0, #3
 8006b6e:	d900      	bls.n	8006b72 <_dtoa_r+0x1be>
 8006b70:	e084      	b.n	8006c7c <_dtoa_r+0x2c8>
 8006b72:	f7f9 fad1 	bl	8000118 <__gnu_thumb1_case_uqi>
 8006b76:	7775      	.short	0x7775
 8006b78:	6a28      	.short	0x6a28
 8006b7a:	9b18      	ldr	r3, [sp, #96]	; 0x60
 8006b7c:	9a19      	ldr	r2, [sp, #100]	; 0x64
 8006b7e:	189e      	adds	r6, r3, r2
 8006b80:	4b65      	ldr	r3, [pc, #404]	; (8006d18 <_dtoa_r+0x364>)
 8006b82:	18f2      	adds	r2, r6, r3
 8006b84:	2a20      	cmp	r2, #32
 8006b86:	dd0f      	ble.n	8006ba8 <_dtoa_r+0x1f4>
 8006b88:	2340      	movs	r3, #64	; 0x40
 8006b8a:	1a9b      	subs	r3, r3, r2
 8006b8c:	409c      	lsls	r4, r3
 8006b8e:	4b63      	ldr	r3, [pc, #396]	; (8006d1c <_dtoa_r+0x368>)
 8006b90:	9806      	ldr	r0, [sp, #24]
 8006b92:	18f3      	adds	r3, r6, r3
 8006b94:	40d8      	lsrs	r0, r3
 8006b96:	4320      	orrs	r0, r4
 8006b98:	f7fb fa28 	bl	8001fec <__aeabi_ui2d>
 8006b9c:	2301      	movs	r3, #1
 8006b9e:	4c60      	ldr	r4, [pc, #384]	; (8006d20 <_dtoa_r+0x36c>)
 8006ba0:	3e01      	subs	r6, #1
 8006ba2:	1909      	adds	r1, r1, r4
 8006ba4:	9316      	str	r3, [sp, #88]	; 0x58
 8006ba6:	e77c      	b.n	8006aa2 <_dtoa_r+0xee>
 8006ba8:	2320      	movs	r3, #32
 8006baa:	9806      	ldr	r0, [sp, #24]
 8006bac:	1a9b      	subs	r3, r3, r2
 8006bae:	4098      	lsls	r0, r3
 8006bb0:	e7f2      	b.n	8006b98 <_dtoa_r+0x1e4>
 8006bb2:	9014      	str	r0, [sp, #80]	; 0x50
 8006bb4:	e7b9      	b.n	8006b2a <_dtoa_r+0x176>
 8006bb6:	9b0a      	ldr	r3, [sp, #40]	; 0x28
 8006bb8:	1bdb      	subs	r3, r3, r7
 8006bba:	930a      	str	r3, [sp, #40]	; 0x28
 8006bbc:	427b      	negs	r3, r7
 8006bbe:	9304      	str	r3, [sp, #16]
 8006bc0:	2300      	movs	r3, #0
 8006bc2:	9311      	str	r3, [sp, #68]	; 0x44
 8006bc4:	e7c6      	b.n	8006b54 <_dtoa_r+0x1a0>
 8006bc6:	2301      	movs	r3, #1
 8006bc8:	930d      	str	r3, [sp, #52]	; 0x34
 8006bca:	9b21      	ldr	r3, [sp, #132]	; 0x84
 8006bcc:	2b00      	cmp	r3, #0
 8006bce:	dd59      	ble.n	8006c84 <_dtoa_r+0x2d0>
 8006bd0:	930c      	str	r3, [sp, #48]	; 0x30
 8006bd2:	9309      	str	r3, [sp, #36]	; 0x24
 8006bd4:	9a02      	ldr	r2, [sp, #8]
 8006bd6:	6a55      	ldr	r5, [r2, #36]	; 0x24
 8006bd8:	2200      	movs	r2, #0
 8006bda:	606a      	str	r2, [r5, #4]
 8006bdc:	3204      	adds	r2, #4
 8006bde:	0010      	movs	r0, r2
 8006be0:	3014      	adds	r0, #20
 8006be2:	6869      	ldr	r1, [r5, #4]
 8006be4:	4298      	cmp	r0, r3
 8006be6:	d952      	bls.n	8006c8e <_dtoa_r+0x2da>
 8006be8:	9802      	ldr	r0, [sp, #8]
 8006bea:	f000 fced 	bl	80075c8 <_Balloc>
 8006bee:	9b02      	ldr	r3, [sp, #8]
 8006bf0:	6028      	str	r0, [r5, #0]
 8006bf2:	6a5b      	ldr	r3, [r3, #36]	; 0x24
 8006bf4:	681b      	ldr	r3, [r3, #0]
 8006bf6:	9308      	str	r3, [sp, #32]
 8006bf8:	9b09      	ldr	r3, [sp, #36]	; 0x24
 8006bfa:	2b0e      	cmp	r3, #14
 8006bfc:	d900      	bls.n	8006c00 <_dtoa_r+0x24c>
 8006bfe:	e10a      	b.n	8006e16 <_dtoa_r+0x462>
 8006c00:	2c00      	cmp	r4, #0
 8006c02:	d100      	bne.n	8006c06 <_dtoa_r+0x252>
 8006c04:	e107      	b.n	8006e16 <_dtoa_r+0x462>
 8006c06:	9b06      	ldr	r3, [sp, #24]
 8006c08:	9c07      	ldr	r4, [sp, #28]
 8006c0a:	9312      	str	r3, [sp, #72]	; 0x48
 8006c0c:	9413      	str	r4, [sp, #76]	; 0x4c
 8006c0e:	2f00      	cmp	r7, #0
 8006c10:	dc00      	bgt.n	8006c14 <_dtoa_r+0x260>
 8006c12:	e089      	b.n	8006d28 <_dtoa_r+0x374>
 8006c14:	210f      	movs	r1, #15
 8006c16:	003a      	movs	r2, r7
 8006c18:	4b3e      	ldr	r3, [pc, #248]	; (8006d14 <_dtoa_r+0x360>)
 8006c1a:	400a      	ands	r2, r1
 8006c1c:	00d2      	lsls	r2, r2, #3
 8006c1e:	189b      	adds	r3, r3, r2
 8006c20:	681d      	ldr	r5, [r3, #0]
 8006c22:	685e      	ldr	r6, [r3, #4]
 8006c24:	2302      	movs	r3, #2
 8006c26:	113c      	asrs	r4, r7, #4
 8006c28:	930e      	str	r3, [sp, #56]	; 0x38
 8006c2a:	06e3      	lsls	r3, r4, #27
 8006c2c:	d50b      	bpl.n	8006c46 <_dtoa_r+0x292>
 8006c2e:	4b3d      	ldr	r3, [pc, #244]	; (8006d24 <_dtoa_r+0x370>)
 8006c30:	400c      	ands	r4, r1
 8006c32:	6a1a      	ldr	r2, [r3, #32]
 8006c34:	6a5b      	ldr	r3, [r3, #36]	; 0x24
 8006c36:	9812      	ldr	r0, [sp, #72]	; 0x48
 8006c38:	9913      	ldr	r1, [sp, #76]	; 0x4c
 8006c3a:	f7f9 ff87 	bl	8000b4c <__aeabi_ddiv>
 8006c3e:	2303      	movs	r3, #3
 8006c40:	9006      	str	r0, [sp, #24]
 8006c42:	9107      	str	r1, [sp, #28]
 8006c44:	930e      	str	r3, [sp, #56]	; 0x38
 8006c46:	2300      	movs	r3, #0
 8006c48:	e03a      	b.n	8006cc0 <_dtoa_r+0x30c>
 8006c4a:	2301      	movs	r3, #1
 8006c4c:	930d      	str	r3, [sp, #52]	; 0x34
 8006c4e:	9b21      	ldr	r3, [sp, #132]	; 0x84
 8006c50:	18fb      	adds	r3, r7, r3
 8006c52:	930c      	str	r3, [sp, #48]	; 0x30
 8006c54:	3301      	adds	r3, #1
 8006c56:	9309      	str	r3, [sp, #36]	; 0x24
 8006c58:	2b00      	cmp	r3, #0
 8006c5a:	dcbb      	bgt.n	8006bd4 <_dtoa_r+0x220>
 8006c5c:	2301      	movs	r3, #1
 8006c5e:	e7b9      	b.n	8006bd4 <_dtoa_r+0x220>
 8006c60:	2300      	movs	r3, #0
 8006c62:	e7b1      	b.n	8006bc8 <_dtoa_r+0x214>
 8006c64:	2300      	movs	r3, #0
 8006c66:	e7f1      	b.n	8006c4c <_dtoa_r+0x298>
 8006c68:	2300      	movs	r3, #0
 8006c6a:	940d      	str	r4, [sp, #52]	; 0x34
 8006c6c:	9320      	str	r3, [sp, #128]	; 0x80
 8006c6e:	3b01      	subs	r3, #1
 8006c70:	2200      	movs	r2, #0
 8006c72:	930c      	str	r3, [sp, #48]	; 0x30
 8006c74:	9309      	str	r3, [sp, #36]	; 0x24
 8006c76:	3313      	adds	r3, #19
 8006c78:	9221      	str	r2, [sp, #132]	; 0x84
 8006c7a:	e7ab      	b.n	8006bd4 <_dtoa_r+0x220>
 8006c7c:	2301      	movs	r3, #1
 8006c7e:	930d      	str	r3, [sp, #52]	; 0x34
 8006c80:	3b02      	subs	r3, #2
 8006c82:	e7f5      	b.n	8006c70 <_dtoa_r+0x2bc>
 8006c84:	2301      	movs	r3, #1
 8006c86:	930c      	str	r3, [sp, #48]	; 0x30
 8006c88:	9309      	str	r3, [sp, #36]	; 0x24
 8006c8a:	001a      	movs	r2, r3
 8006c8c:	e7f4      	b.n	8006c78 <_dtoa_r+0x2c4>
 8006c8e:	3101      	adds	r1, #1
 8006c90:	6069      	str	r1, [r5, #4]
 8006c92:	0052      	lsls	r2, r2, #1
 8006c94:	e7a3      	b.n	8006bde <_dtoa_r+0x22a>
 8006c96:	2301      	movs	r3, #1
 8006c98:	421c      	tst	r4, r3
 8006c9a:	d00e      	beq.n	8006cba <_dtoa_r+0x306>
 8006c9c:	9b0e      	ldr	r3, [sp, #56]	; 0x38
 8006c9e:	4a21      	ldr	r2, [pc, #132]	; (8006d24 <_dtoa_r+0x370>)
 8006ca0:	3301      	adds	r3, #1
 8006ca2:	930e      	str	r3, [sp, #56]	; 0x38
 8006ca4:	9b10      	ldr	r3, [sp, #64]	; 0x40
 8006ca6:	0028      	movs	r0, r5
 8006ca8:	00db      	lsls	r3, r3, #3
 8006caa:	189b      	adds	r3, r3, r2
 8006cac:	0031      	movs	r1, r6
 8006cae:	681a      	ldr	r2, [r3, #0]
 8006cb0:	685b      	ldr	r3, [r3, #4]
 8006cb2:	f7fa fb55 	bl	8001360 <__aeabi_dmul>
 8006cb6:	0005      	movs	r5, r0
 8006cb8:	000e      	movs	r6, r1
 8006cba:	9b10      	ldr	r3, [sp, #64]	; 0x40
 8006cbc:	1064      	asrs	r4, r4, #1
 8006cbe:	3301      	adds	r3, #1
 8006cc0:	9310      	str	r3, [sp, #64]	; 0x40
 8006cc2:	2c00      	cmp	r4, #0
 8006cc4:	d1e7      	bne.n	8006c96 <_dtoa_r+0x2e2>
 8006cc6:	9806      	ldr	r0, [sp, #24]
 8006cc8:	9907      	ldr	r1, [sp, #28]
 8006cca:	002a      	movs	r2, r5
 8006ccc:	0033      	movs	r3, r6
 8006cce:	f7f9 ff3d 	bl	8000b4c <__aeabi_ddiv>
 8006cd2:	9006      	str	r0, [sp, #24]
 8006cd4:	9107      	str	r1, [sp, #28]
 8006cd6:	e042      	b.n	8006d5e <_dtoa_r+0x3aa>
 8006cd8:	7ff00000 	.word	0x7ff00000
 8006cdc:	0000270f 	.word	0x0000270f
 8006ce0:	08008449 	.word	0x08008449
 8006ce4:	0800844c 	.word	0x0800844c
 8006ce8:	0800841c 	.word	0x0800841c
 8006cec:	0800841d 	.word	0x0800841d
 8006cf0:	3ff00000 	.word	0x3ff00000
 8006cf4:	fffffc01 	.word	0xfffffc01
 8006cf8:	3ff80000 	.word	0x3ff80000
 8006cfc:	636f4361 	.word	0x636f4361
 8006d00:	3fd287a7 	.word	0x3fd287a7
 8006d04:	8b60c8b3 	.word	0x8b60c8b3
 8006d08:	3fc68a28 	.word	0x3fc68a28
 8006d0c:	509f79fb 	.word	0x509f79fb
 8006d10:	3fd34413 	.word	0x3fd34413
 8006d14:	08008478 	.word	0x08008478
 8006d18:	00000432 	.word	0x00000432
 8006d1c:	00000412 	.word	0x00000412
 8006d20:	fe100000 	.word	0xfe100000
 8006d24:	08008450 	.word	0x08008450
 8006d28:	2302      	movs	r3, #2
 8006d2a:	930e      	str	r3, [sp, #56]	; 0x38
 8006d2c:	2f00      	cmp	r7, #0
 8006d2e:	d016      	beq.n	8006d5e <_dtoa_r+0x3aa>
 8006d30:	9812      	ldr	r0, [sp, #72]	; 0x48
 8006d32:	9913      	ldr	r1, [sp, #76]	; 0x4c
 8006d34:	427c      	negs	r4, r7
 8006d36:	330d      	adds	r3, #13
 8006d38:	4023      	ands	r3, r4
 8006d3a:	4ace      	ldr	r2, [pc, #824]	; (8007074 <_dtoa_r+0x6c0>)
 8006d3c:	00db      	lsls	r3, r3, #3
 8006d3e:	18d3      	adds	r3, r2, r3
 8006d40:	681a      	ldr	r2, [r3, #0]
 8006d42:	685b      	ldr	r3, [r3, #4]
 8006d44:	f7fa fb0c 	bl	8001360 <__aeabi_dmul>
 8006d48:	2300      	movs	r3, #0
 8006d4a:	2601      	movs	r6, #1
 8006d4c:	001d      	movs	r5, r3
 8006d4e:	9006      	str	r0, [sp, #24]
 8006d50:	9107      	str	r1, [sp, #28]
 8006d52:	1124      	asrs	r4, r4, #4
 8006d54:	2c00      	cmp	r4, #0
 8006d56:	d000      	beq.n	8006d5a <_dtoa_r+0x3a6>
 8006d58:	e08c      	b.n	8006e74 <_dtoa_r+0x4c0>
 8006d5a:	2b00      	cmp	r3, #0
 8006d5c:	d1b9      	bne.n	8006cd2 <_dtoa_r+0x31e>
 8006d5e:	9b14      	ldr	r3, [sp, #80]	; 0x50
 8006d60:	2b00      	cmp	r3, #0
 8006d62:	d100      	bne.n	8006d66 <_dtoa_r+0x3b2>
 8006d64:	e096      	b.n	8006e94 <_dtoa_r+0x4e0>
 8006d66:	9c06      	ldr	r4, [sp, #24]
 8006d68:	9d07      	ldr	r5, [sp, #28]
 8006d6a:	2200      	movs	r2, #0
 8006d6c:	4bc2      	ldr	r3, [pc, #776]	; (8007078 <_dtoa_r+0x6c4>)
 8006d6e:	0020      	movs	r0, r4
 8006d70:	0029      	movs	r1, r5
 8006d72:	f7f9 fb67 	bl	8000444 <__aeabi_dcmplt>
 8006d76:	2800      	cmp	r0, #0
 8006d78:	d100      	bne.n	8006d7c <_dtoa_r+0x3c8>
 8006d7a:	e08b      	b.n	8006e94 <_dtoa_r+0x4e0>
 8006d7c:	9b09      	ldr	r3, [sp, #36]	; 0x24
 8006d7e:	2b00      	cmp	r3, #0
 8006d80:	d100      	bne.n	8006d84 <_dtoa_r+0x3d0>
 8006d82:	e087      	b.n	8006e94 <_dtoa_r+0x4e0>
 8006d84:	9b0c      	ldr	r3, [sp, #48]	; 0x30
 8006d86:	2b00      	cmp	r3, #0
 8006d88:	dd41      	ble.n	8006e0e <_dtoa_r+0x45a>
 8006d8a:	4bbc      	ldr	r3, [pc, #752]	; (800707c <_dtoa_r+0x6c8>)
 8006d8c:	2200      	movs	r2, #0
 8006d8e:	0020      	movs	r0, r4
 8006d90:	0029      	movs	r1, r5
 8006d92:	f7fa fae5 	bl	8001360 <__aeabi_dmul>
 8006d96:	9b0e      	ldr	r3, [sp, #56]	; 0x38
 8006d98:	9006      	str	r0, [sp, #24]
 8006d9a:	9107      	str	r1, [sp, #28]
 8006d9c:	3301      	adds	r3, #1
 8006d9e:	930e      	str	r3, [sp, #56]	; 0x38
 8006da0:	9b0c      	ldr	r3, [sp, #48]	; 0x30
 8006da2:	1e7e      	subs	r6, r7, #1
 8006da4:	980e      	ldr	r0, [sp, #56]	; 0x38
 8006da6:	9310      	str	r3, [sp, #64]	; 0x40
 8006da8:	f7fb f8e6 	bl	8001f78 <__aeabi_i2d>
 8006dac:	9a06      	ldr	r2, [sp, #24]
 8006dae:	9b07      	ldr	r3, [sp, #28]
 8006db0:	f7fa fad6 	bl	8001360 <__aeabi_dmul>
 8006db4:	2200      	movs	r2, #0
 8006db6:	4bb2      	ldr	r3, [pc, #712]	; (8007080 <_dtoa_r+0x6cc>)
 8006db8:	f7f9 fbac 	bl	8000514 <__aeabi_dadd>
 8006dbc:	4ab1      	ldr	r2, [pc, #708]	; (8007084 <_dtoa_r+0x6d0>)
 8006dbe:	900e      	str	r0, [sp, #56]	; 0x38
 8006dc0:	910f      	str	r1, [sp, #60]	; 0x3c
 8006dc2:	9c0e      	ldr	r4, [sp, #56]	; 0x38
 8006dc4:	9d0f      	ldr	r5, [sp, #60]	; 0x3c
 8006dc6:	4694      	mov	ip, r2
 8006dc8:	9b0f      	ldr	r3, [sp, #60]	; 0x3c
 8006dca:	4463      	add	r3, ip
 8006dcc:	9315      	str	r3, [sp, #84]	; 0x54
 8006dce:	001d      	movs	r5, r3
 8006dd0:	9b10      	ldr	r3, [sp, #64]	; 0x40
 8006dd2:	2b00      	cmp	r3, #0
 8006dd4:	d161      	bne.n	8006e9a <_dtoa_r+0x4e6>
 8006dd6:	9806      	ldr	r0, [sp, #24]
 8006dd8:	9907      	ldr	r1, [sp, #28]
 8006dda:	2200      	movs	r2, #0
 8006ddc:	4baa      	ldr	r3, [pc, #680]	; (8007088 <_dtoa_r+0x6d4>)
 8006dde:	f7fa fd31 	bl	8001844 <__aeabi_dsub>
 8006de2:	0022      	movs	r2, r4
 8006de4:	9b15      	ldr	r3, [sp, #84]	; 0x54
 8006de6:	9006      	str	r0, [sp, #24]
 8006de8:	9107      	str	r1, [sp, #28]
 8006dea:	f7f9 fb3f 	bl	800046c <__aeabi_dcmpgt>
 8006dee:	2800      	cmp	r0, #0
 8006df0:	d000      	beq.n	8006df4 <_dtoa_r+0x440>
 8006df2:	e2a8      	b.n	8007346 <_dtoa_r+0x992>
 8006df4:	48a5      	ldr	r0, [pc, #660]	; (800708c <_dtoa_r+0x6d8>)
 8006df6:	990f      	ldr	r1, [sp, #60]	; 0x3c
 8006df8:	4684      	mov	ip, r0
 8006dfa:	4461      	add	r1, ip
 8006dfc:	000b      	movs	r3, r1
 8006dfe:	9806      	ldr	r0, [sp, #24]
 8006e00:	9907      	ldr	r1, [sp, #28]
 8006e02:	0022      	movs	r2, r4
 8006e04:	f7f9 fb1e 	bl	8000444 <__aeabi_dcmplt>
 8006e08:	2800      	cmp	r0, #0
 8006e0a:	d000      	beq.n	8006e0e <_dtoa_r+0x45a>
 8006e0c:	e295      	b.n	800733a <_dtoa_r+0x986>
 8006e0e:	9b12      	ldr	r3, [sp, #72]	; 0x48
 8006e10:	9c13      	ldr	r4, [sp, #76]	; 0x4c
 8006e12:	9306      	str	r3, [sp, #24]
 8006e14:	9407      	str	r4, [sp, #28]
 8006e16:	9b19      	ldr	r3, [sp, #100]	; 0x64
 8006e18:	2b00      	cmp	r3, #0
 8006e1a:	da00      	bge.n	8006e1e <_dtoa_r+0x46a>
 8006e1c:	e15c      	b.n	80070d8 <_dtoa_r+0x724>
 8006e1e:	2f0e      	cmp	r7, #14
 8006e20:	dd00      	ble.n	8006e24 <_dtoa_r+0x470>
 8006e22:	e159      	b.n	80070d8 <_dtoa_r+0x724>
 8006e24:	4b93      	ldr	r3, [pc, #588]	; (8007074 <_dtoa_r+0x6c0>)
 8006e26:	00fa      	lsls	r2, r7, #3
 8006e28:	189b      	adds	r3, r3, r2
 8006e2a:	685c      	ldr	r4, [r3, #4]
 8006e2c:	681b      	ldr	r3, [r3, #0]
 8006e2e:	9304      	str	r3, [sp, #16]
 8006e30:	9405      	str	r4, [sp, #20]
 8006e32:	9b21      	ldr	r3, [sp, #132]	; 0x84
 8006e34:	2b00      	cmp	r3, #0
 8006e36:	db00      	blt.n	8006e3a <_dtoa_r+0x486>
 8006e38:	e0d8      	b.n	8006fec <_dtoa_r+0x638>
 8006e3a:	9b09      	ldr	r3, [sp, #36]	; 0x24
 8006e3c:	2b00      	cmp	r3, #0
 8006e3e:	dd00      	ble.n	8006e42 <_dtoa_r+0x48e>
 8006e40:	e0d4      	b.n	8006fec <_dtoa_r+0x638>
 8006e42:	d000      	beq.n	8006e46 <_dtoa_r+0x492>
 8006e44:	e27d      	b.n	8007342 <_dtoa_r+0x98e>
 8006e46:	9804      	ldr	r0, [sp, #16]
 8006e48:	9905      	ldr	r1, [sp, #20]
 8006e4a:	2200      	movs	r2, #0
 8006e4c:	4b8e      	ldr	r3, [pc, #568]	; (8007088 <_dtoa_r+0x6d4>)
 8006e4e:	f7fa fa87 	bl	8001360 <__aeabi_dmul>
 8006e52:	9a06      	ldr	r2, [sp, #24]
 8006e54:	9b07      	ldr	r3, [sp, #28]
 8006e56:	f7f9 fb13 	bl	8000480 <__aeabi_dcmpge>
 8006e5a:	9b09      	ldr	r3, [sp, #36]	; 0x24
 8006e5c:	9304      	str	r3, [sp, #16]
 8006e5e:	001e      	movs	r6, r3
 8006e60:	2800      	cmp	r0, #0
 8006e62:	d000      	beq.n	8006e66 <_dtoa_r+0x4b2>
 8006e64:	e24f      	b.n	8007306 <_dtoa_r+0x952>
 8006e66:	9b08      	ldr	r3, [sp, #32]
 8006e68:	9a08      	ldr	r2, [sp, #32]
 8006e6a:	1c5d      	adds	r5, r3, #1
 8006e6c:	2331      	movs	r3, #49	; 0x31
 8006e6e:	3701      	adds	r7, #1
 8006e70:	7013      	strb	r3, [r2, #0]
 8006e72:	e24b      	b.n	800730c <_dtoa_r+0x958>
 8006e74:	4234      	tst	r4, r6
 8006e76:	d00a      	beq.n	8006e8e <_dtoa_r+0x4da>
 8006e78:	9b0e      	ldr	r3, [sp, #56]	; 0x38
 8006e7a:	4a85      	ldr	r2, [pc, #532]	; (8007090 <_dtoa_r+0x6dc>)
 8006e7c:	3301      	adds	r3, #1
 8006e7e:	930e      	str	r3, [sp, #56]	; 0x38
 8006e80:	00eb      	lsls	r3, r5, #3
 8006e82:	189b      	adds	r3, r3, r2
 8006e84:	681a      	ldr	r2, [r3, #0]
 8006e86:	685b      	ldr	r3, [r3, #4]
 8006e88:	f7fa fa6a 	bl	8001360 <__aeabi_dmul>
 8006e8c:	0033      	movs	r3, r6
 8006e8e:	1064      	asrs	r4, r4, #1
 8006e90:	3501      	adds	r5, #1
 8006e92:	e75f      	b.n	8006d54 <_dtoa_r+0x3a0>
 8006e94:	003e      	movs	r6, r7
 8006e96:	9b09      	ldr	r3, [sp, #36]	; 0x24
 8006e98:	e784      	b.n	8006da4 <_dtoa_r+0x3f0>
 8006e9a:	9b10      	ldr	r3, [sp, #64]	; 0x40
 8006e9c:	990d      	ldr	r1, [sp, #52]	; 0x34
 8006e9e:	1e5a      	subs	r2, r3, #1
 8006ea0:	4b74      	ldr	r3, [pc, #464]	; (8007074 <_dtoa_r+0x6c0>)
 8006ea2:	00d2      	lsls	r2, r2, #3
 8006ea4:	189b      	adds	r3, r3, r2
 8006ea6:	681a      	ldr	r2, [r3, #0]
 8006ea8:	685b      	ldr	r3, [r3, #4]
 8006eaa:	2900      	cmp	r1, #0
 8006eac:	d049      	beq.n	8006f42 <_dtoa_r+0x58e>
 8006eae:	2000      	movs	r0, #0
 8006eb0:	4978      	ldr	r1, [pc, #480]	; (8007094 <_dtoa_r+0x6e0>)
 8006eb2:	f7f9 fe4b 	bl	8000b4c <__aeabi_ddiv>
 8006eb6:	002b      	movs	r3, r5
 8006eb8:	0022      	movs	r2, r4
 8006eba:	f7fa fcc3 	bl	8001844 <__aeabi_dsub>
 8006ebe:	9b08      	ldr	r3, [sp, #32]
 8006ec0:	900e      	str	r0, [sp, #56]	; 0x38
 8006ec2:	910f      	str	r1, [sp, #60]	; 0x3c
 8006ec4:	9315      	str	r3, [sp, #84]	; 0x54
 8006ec6:	9806      	ldr	r0, [sp, #24]
 8006ec8:	9907      	ldr	r1, [sp, #28]
 8006eca:	f7fb f81f 	bl	8001f0c <__aeabi_d2iz>
 8006ece:	0004      	movs	r4, r0
 8006ed0:	f7fb f852 	bl	8001f78 <__aeabi_i2d>
 8006ed4:	0002      	movs	r2, r0
 8006ed6:	000b      	movs	r3, r1
 8006ed8:	9806      	ldr	r0, [sp, #24]
 8006eda:	9907      	ldr	r1, [sp, #28]
 8006edc:	f7fa fcb2 	bl	8001844 <__aeabi_dsub>
 8006ee0:	9b15      	ldr	r3, [sp, #84]	; 0x54
 8006ee2:	3430      	adds	r4, #48	; 0x30
 8006ee4:	1c5d      	adds	r5, r3, #1
 8006ee6:	701c      	strb	r4, [r3, #0]
 8006ee8:	9a0e      	ldr	r2, [sp, #56]	; 0x38
 8006eea:	9b0f      	ldr	r3, [sp, #60]	; 0x3c
 8006eec:	9006      	str	r0, [sp, #24]
 8006eee:	9107      	str	r1, [sp, #28]
 8006ef0:	f7f9 faa8 	bl	8000444 <__aeabi_dcmplt>
 8006ef4:	2800      	cmp	r0, #0
 8006ef6:	d16c      	bne.n	8006fd2 <_dtoa_r+0x61e>
 8006ef8:	9a06      	ldr	r2, [sp, #24]
 8006efa:	9b07      	ldr	r3, [sp, #28]
 8006efc:	2000      	movs	r0, #0
 8006efe:	495e      	ldr	r1, [pc, #376]	; (8007078 <_dtoa_r+0x6c4>)
 8006f00:	f7fa fca0 	bl	8001844 <__aeabi_dsub>
 8006f04:	9a0e      	ldr	r2, [sp, #56]	; 0x38
 8006f06:	9b0f      	ldr	r3, [sp, #60]	; 0x3c
 8006f08:	f7f9 fa9c 	bl	8000444 <__aeabi_dcmplt>
 8006f0c:	2800      	cmp	r0, #0
 8006f0e:	d000      	beq.n	8006f12 <_dtoa_r+0x55e>
 8006f10:	e0c3      	b.n	800709a <_dtoa_r+0x6e6>
 8006f12:	9b08      	ldr	r3, [sp, #32]
 8006f14:	9a10      	ldr	r2, [sp, #64]	; 0x40
 8006f16:	1aeb      	subs	r3, r5, r3
 8006f18:	429a      	cmp	r2, r3
 8006f1a:	dc00      	bgt.n	8006f1e <_dtoa_r+0x56a>
 8006f1c:	e777      	b.n	8006e0e <_dtoa_r+0x45a>
 8006f1e:	980e      	ldr	r0, [sp, #56]	; 0x38
 8006f20:	990f      	ldr	r1, [sp, #60]	; 0x3c
 8006f22:	2200      	movs	r2, #0
 8006f24:	4b55      	ldr	r3, [pc, #340]	; (800707c <_dtoa_r+0x6c8>)
 8006f26:	f7fa fa1b 	bl	8001360 <__aeabi_dmul>
 8006f2a:	2200      	movs	r2, #0
 8006f2c:	900e      	str	r0, [sp, #56]	; 0x38
 8006f2e:	910f      	str	r1, [sp, #60]	; 0x3c
 8006f30:	9806      	ldr	r0, [sp, #24]
 8006f32:	9907      	ldr	r1, [sp, #28]
 8006f34:	4b51      	ldr	r3, [pc, #324]	; (800707c <_dtoa_r+0x6c8>)
 8006f36:	f7fa fa13 	bl	8001360 <__aeabi_dmul>
 8006f3a:	9515      	str	r5, [sp, #84]	; 0x54
 8006f3c:	9006      	str	r0, [sp, #24]
 8006f3e:	9107      	str	r1, [sp, #28]
 8006f40:	e7c1      	b.n	8006ec6 <_dtoa_r+0x512>
 8006f42:	0020      	movs	r0, r4
 8006f44:	0029      	movs	r1, r5
 8006f46:	f7fa fa0b 	bl	8001360 <__aeabi_dmul>
 8006f4a:	9c08      	ldr	r4, [sp, #32]
 8006f4c:	9a10      	ldr	r2, [sp, #64]	; 0x40
 8006f4e:	0023      	movs	r3, r4
 8006f50:	4694      	mov	ip, r2
 8006f52:	900e      	str	r0, [sp, #56]	; 0x38
 8006f54:	910f      	str	r1, [sp, #60]	; 0x3c
 8006f56:	4463      	add	r3, ip
 8006f58:	9315      	str	r3, [sp, #84]	; 0x54
 8006f5a:	9806      	ldr	r0, [sp, #24]
 8006f5c:	9907      	ldr	r1, [sp, #28]
 8006f5e:	f7fa ffd5 	bl	8001f0c <__aeabi_d2iz>
 8006f62:	0005      	movs	r5, r0
 8006f64:	f7fb f808 	bl	8001f78 <__aeabi_i2d>
 8006f68:	000b      	movs	r3, r1
 8006f6a:	0002      	movs	r2, r0
 8006f6c:	9806      	ldr	r0, [sp, #24]
 8006f6e:	9907      	ldr	r1, [sp, #28]
 8006f70:	f7fa fc68 	bl	8001844 <__aeabi_dsub>
 8006f74:	3530      	adds	r5, #48	; 0x30
 8006f76:	9b15      	ldr	r3, [sp, #84]	; 0x54
 8006f78:	7025      	strb	r5, [r4, #0]
 8006f7a:	3401      	adds	r4, #1
 8006f7c:	9006      	str	r0, [sp, #24]
 8006f7e:	9107      	str	r1, [sp, #28]
 8006f80:	42a3      	cmp	r3, r4
 8006f82:	d12a      	bne.n	8006fda <_dtoa_r+0x626>
 8006f84:	980e      	ldr	r0, [sp, #56]	; 0x38
 8006f86:	990f      	ldr	r1, [sp, #60]	; 0x3c
 8006f88:	9a08      	ldr	r2, [sp, #32]
 8006f8a:	9b10      	ldr	r3, [sp, #64]	; 0x40
 8006f8c:	4694      	mov	ip, r2
 8006f8e:	4463      	add	r3, ip
 8006f90:	2200      	movs	r2, #0
 8006f92:	001d      	movs	r5, r3
 8006f94:	4b3f      	ldr	r3, [pc, #252]	; (8007094 <_dtoa_r+0x6e0>)
 8006f96:	f7f9 fabd 	bl	8000514 <__aeabi_dadd>
 8006f9a:	0002      	movs	r2, r0
 8006f9c:	000b      	movs	r3, r1
 8006f9e:	9806      	ldr	r0, [sp, #24]
 8006fa0:	9907      	ldr	r1, [sp, #28]
 8006fa2:	f7f9 fa63 	bl	800046c <__aeabi_dcmpgt>
 8006fa6:	2800      	cmp	r0, #0
 8006fa8:	d000      	beq.n	8006fac <_dtoa_r+0x5f8>
 8006faa:	e076      	b.n	800709a <_dtoa_r+0x6e6>
 8006fac:	9a0e      	ldr	r2, [sp, #56]	; 0x38
 8006fae:	9b0f      	ldr	r3, [sp, #60]	; 0x3c
 8006fb0:	2000      	movs	r0, #0
 8006fb2:	4938      	ldr	r1, [pc, #224]	; (8007094 <_dtoa_r+0x6e0>)
 8006fb4:	f7fa fc46 	bl	8001844 <__aeabi_dsub>
 8006fb8:	0002      	movs	r2, r0
 8006fba:	000b      	movs	r3, r1
 8006fbc:	9806      	ldr	r0, [sp, #24]
 8006fbe:	9907      	ldr	r1, [sp, #28]
 8006fc0:	f7f9 fa40 	bl	8000444 <__aeabi_dcmplt>
 8006fc4:	2800      	cmp	r0, #0
 8006fc6:	d100      	bne.n	8006fca <_dtoa_r+0x616>
 8006fc8:	e721      	b.n	8006e0e <_dtoa_r+0x45a>
 8006fca:	1e6b      	subs	r3, r5, #1
 8006fcc:	781a      	ldrb	r2, [r3, #0]
 8006fce:	2a30      	cmp	r2, #48	; 0x30
 8006fd0:	d001      	beq.n	8006fd6 <_dtoa_r+0x622>
 8006fd2:	0037      	movs	r7, r6
 8006fd4:	e03f      	b.n	8007056 <_dtoa_r+0x6a2>
 8006fd6:	001d      	movs	r5, r3
 8006fd8:	e7f7      	b.n	8006fca <_dtoa_r+0x616>
 8006fda:	9806      	ldr	r0, [sp, #24]
 8006fdc:	9907      	ldr	r1, [sp, #28]
 8006fde:	2200      	movs	r2, #0
 8006fe0:	4b26      	ldr	r3, [pc, #152]	; (800707c <_dtoa_r+0x6c8>)
 8006fe2:	f7fa f9bd 	bl	8001360 <__aeabi_dmul>
 8006fe6:	9006      	str	r0, [sp, #24]
 8006fe8:	9107      	str	r1, [sp, #28]
 8006fea:	e7b6      	b.n	8006f5a <_dtoa_r+0x5a6>
 8006fec:	9e08      	ldr	r6, [sp, #32]
 8006fee:	9a04      	ldr	r2, [sp, #16]
 8006ff0:	9b05      	ldr	r3, [sp, #20]
 8006ff2:	9806      	ldr	r0, [sp, #24]
 8006ff4:	9907      	ldr	r1, [sp, #28]
 8006ff6:	f7f9 fda9 	bl	8000b4c <__aeabi_ddiv>
 8006ffa:	f7fa ff87 	bl	8001f0c <__aeabi_d2iz>
 8006ffe:	0004      	movs	r4, r0
 8007000:	f7fa ffba 	bl	8001f78 <__aeabi_i2d>
 8007004:	9a04      	ldr	r2, [sp, #16]
 8007006:	9b05      	ldr	r3, [sp, #20]
 8007008:	f7fa f9aa 	bl	8001360 <__aeabi_dmul>
 800700c:	0002      	movs	r2, r0
 800700e:	000b      	movs	r3, r1
 8007010:	9806      	ldr	r0, [sp, #24]
 8007012:	9907      	ldr	r1, [sp, #28]
 8007014:	f7fa fc16 	bl	8001844 <__aeabi_dsub>
 8007018:	0023      	movs	r3, r4
 800701a:	3330      	adds	r3, #48	; 0x30
 800701c:	7033      	strb	r3, [r6, #0]
 800701e:	9a09      	ldr	r2, [sp, #36]	; 0x24
 8007020:	9b08      	ldr	r3, [sp, #32]
 8007022:	1c75      	adds	r5, r6, #1
 8007024:	1aeb      	subs	r3, r5, r3
 8007026:	429a      	cmp	r2, r3
 8007028:	d148      	bne.n	80070bc <_dtoa_r+0x708>
 800702a:	0002      	movs	r2, r0
 800702c:	000b      	movs	r3, r1
 800702e:	f7f9 fa71 	bl	8000514 <__aeabi_dadd>
 8007032:	9a04      	ldr	r2, [sp, #16]
 8007034:	9b05      	ldr	r3, [sp, #20]
 8007036:	9006      	str	r0, [sp, #24]
 8007038:	9107      	str	r1, [sp, #28]
 800703a:	f7f9 fa17 	bl	800046c <__aeabi_dcmpgt>
 800703e:	2800      	cmp	r0, #0
 8007040:	d12a      	bne.n	8007098 <_dtoa_r+0x6e4>
 8007042:	9a04      	ldr	r2, [sp, #16]
 8007044:	9b05      	ldr	r3, [sp, #20]
 8007046:	9806      	ldr	r0, [sp, #24]
 8007048:	9907      	ldr	r1, [sp, #28]
 800704a:	f7f9 f9f5 	bl	8000438 <__aeabi_dcmpeq>
 800704e:	2800      	cmp	r0, #0
 8007050:	d001      	beq.n	8007056 <_dtoa_r+0x6a2>
 8007052:	07e3      	lsls	r3, r4, #31
 8007054:	d420      	bmi.n	8007098 <_dtoa_r+0x6e4>
 8007056:	9903      	ldr	r1, [sp, #12]
 8007058:	9802      	ldr	r0, [sp, #8]
 800705a:	f000 faed 	bl	8007638 <_Bfree>
 800705e:	2300      	movs	r3, #0
 8007060:	702b      	strb	r3, [r5, #0]
 8007062:	9b22      	ldr	r3, [sp, #136]	; 0x88
 8007064:	3701      	adds	r7, #1
 8007066:	601f      	str	r7, [r3, #0]
 8007068:	9b24      	ldr	r3, [sp, #144]	; 0x90
 800706a:	2b00      	cmp	r3, #0
 800706c:	d100      	bne.n	8007070 <_dtoa_r+0x6bc>
 800706e:	e4e6      	b.n	8006a3e <_dtoa_r+0x8a>
 8007070:	601d      	str	r5, [r3, #0]
 8007072:	e4e4      	b.n	8006a3e <_dtoa_r+0x8a>
 8007074:	08008478 	.word	0x08008478
 8007078:	3ff00000 	.word	0x3ff00000
 800707c:	40240000 	.word	0x40240000
 8007080:	401c0000 	.word	0x401c0000
 8007084:	fcc00000 	.word	0xfcc00000
 8007088:	40140000 	.word	0x40140000
 800708c:	7cc00000 	.word	0x7cc00000
 8007090:	08008450 	.word	0x08008450
 8007094:	3fe00000 	.word	0x3fe00000
 8007098:	003e      	movs	r6, r7
 800709a:	1e6b      	subs	r3, r5, #1
 800709c:	781a      	ldrb	r2, [r3, #0]
 800709e:	2a39      	cmp	r2, #57	; 0x39
 80070a0:	d106      	bne.n	80070b0 <_dtoa_r+0x6fc>
 80070a2:	9a08      	ldr	r2, [sp, #32]
 80070a4:	429a      	cmp	r2, r3
 80070a6:	d107      	bne.n	80070b8 <_dtoa_r+0x704>
 80070a8:	2330      	movs	r3, #48	; 0x30
 80070aa:	7013      	strb	r3, [r2, #0]
 80070ac:	0013      	movs	r3, r2
 80070ae:	3601      	adds	r6, #1
 80070b0:	781a      	ldrb	r2, [r3, #0]
 80070b2:	3201      	adds	r2, #1
 80070b4:	701a      	strb	r2, [r3, #0]
 80070b6:	e78c      	b.n	8006fd2 <_dtoa_r+0x61e>
 80070b8:	001d      	movs	r5, r3
 80070ba:	e7ee      	b.n	800709a <_dtoa_r+0x6e6>
 80070bc:	2200      	movs	r2, #0
 80070be:	4ba4      	ldr	r3, [pc, #656]	; (8007350 <_dtoa_r+0x99c>)
 80070c0:	f7fa f94e 	bl	8001360 <__aeabi_dmul>
 80070c4:	2200      	movs	r2, #0
 80070c6:	2300      	movs	r3, #0
 80070c8:	9006      	str	r0, [sp, #24]
 80070ca:	9107      	str	r1, [sp, #28]
 80070cc:	002e      	movs	r6, r5
 80070ce:	f7f9 f9b3 	bl	8000438 <__aeabi_dcmpeq>
 80070d2:	2800      	cmp	r0, #0
 80070d4:	d08b      	beq.n	8006fee <_dtoa_r+0x63a>
 80070d6:	e7be      	b.n	8007056 <_dtoa_r+0x6a2>
 80070d8:	9a0d      	ldr	r2, [sp, #52]	; 0x34
 80070da:	2a00      	cmp	r2, #0
 80070dc:	d100      	bne.n	80070e0 <_dtoa_r+0x72c>
 80070de:	e0da      	b.n	8007296 <_dtoa_r+0x8e2>
 80070e0:	9a20      	ldr	r2, [sp, #128]	; 0x80
 80070e2:	2a01      	cmp	r2, #1
 80070e4:	dd00      	ble.n	80070e8 <_dtoa_r+0x734>
 80070e6:	e0bd      	b.n	8007264 <_dtoa_r+0x8b0>
 80070e8:	9a16      	ldr	r2, [sp, #88]	; 0x58
 80070ea:	2a00      	cmp	r2, #0
 80070ec:	d100      	bne.n	80070f0 <_dtoa_r+0x73c>
 80070ee:	e0b5      	b.n	800725c <_dtoa_r+0x8a8>
 80070f0:	4a98      	ldr	r2, [pc, #608]	; (8007354 <_dtoa_r+0x9a0>)
 80070f2:	189b      	adds	r3, r3, r2
 80070f4:	9d04      	ldr	r5, [sp, #16]
 80070f6:	9c0a      	ldr	r4, [sp, #40]	; 0x28
 80070f8:	9a0a      	ldr	r2, [sp, #40]	; 0x28
 80070fa:	2101      	movs	r1, #1
 80070fc:	18d2      	adds	r2, r2, r3
 80070fe:	920a      	str	r2, [sp, #40]	; 0x28
 8007100:	9a0b      	ldr	r2, [sp, #44]	; 0x2c
 8007102:	9802      	ldr	r0, [sp, #8]
 8007104:	18d3      	adds	r3, r2, r3
 8007106:	930b      	str	r3, [sp, #44]	; 0x2c
 8007108:	f000 fb36 	bl	8007778 <__i2b>
 800710c:	0006      	movs	r6, r0
 800710e:	2c00      	cmp	r4, #0
 8007110:	dd0e      	ble.n	8007130 <_dtoa_r+0x77c>
 8007112:	9b0b      	ldr	r3, [sp, #44]	; 0x2c
 8007114:	2b00      	cmp	r3, #0
 8007116:	dd0b      	ble.n	8007130 <_dtoa_r+0x77c>
 8007118:	9a0b      	ldr	r2, [sp, #44]	; 0x2c
 800711a:	0023      	movs	r3, r4
 800711c:	4294      	cmp	r4, r2
 800711e:	dd00      	ble.n	8007122 <_dtoa_r+0x76e>
 8007120:	0013      	movs	r3, r2
 8007122:	9a0a      	ldr	r2, [sp, #40]	; 0x28
 8007124:	1ae4      	subs	r4, r4, r3
 8007126:	1ad2      	subs	r2, r2, r3
 8007128:	920a      	str	r2, [sp, #40]	; 0x28
 800712a:	9a0b      	ldr	r2, [sp, #44]	; 0x2c
 800712c:	1ad3      	subs	r3, r2, r3
 800712e:	930b      	str	r3, [sp, #44]	; 0x2c
 8007130:	9b04      	ldr	r3, [sp, #16]
 8007132:	2b00      	cmp	r3, #0
 8007134:	d01f      	beq.n	8007176 <_dtoa_r+0x7c2>
 8007136:	9b0d      	ldr	r3, [sp, #52]	; 0x34
 8007138:	2b00      	cmp	r3, #0
 800713a:	d100      	bne.n	800713e <_dtoa_r+0x78a>
 800713c:	e0af      	b.n	800729e <_dtoa_r+0x8ea>
 800713e:	2d00      	cmp	r5, #0
 8007140:	d011      	beq.n	8007166 <_dtoa_r+0x7b2>
 8007142:	0031      	movs	r1, r6
 8007144:	002a      	movs	r2, r5
 8007146:	9802      	ldr	r0, [sp, #8]
 8007148:	f000 fbae 	bl	80078a8 <__pow5mult>
 800714c:	9a03      	ldr	r2, [sp, #12]
 800714e:	0001      	movs	r1, r0
 8007150:	0006      	movs	r6, r0
 8007152:	9802      	ldr	r0, [sp, #8]
 8007154:	f000 fb19 	bl	800778a <__multiply>
 8007158:	9903      	ldr	r1, [sp, #12]
 800715a:	9010      	str	r0, [sp, #64]	; 0x40
 800715c:	9802      	ldr	r0, [sp, #8]
 800715e:	f000 fa6b 	bl	8007638 <_Bfree>
 8007162:	9b10      	ldr	r3, [sp, #64]	; 0x40
 8007164:	9303      	str	r3, [sp, #12]
 8007166:	9b04      	ldr	r3, [sp, #16]
 8007168:	1b5a      	subs	r2, r3, r5
 800716a:	d004      	beq.n	8007176 <_dtoa_r+0x7c2>
 800716c:	9903      	ldr	r1, [sp, #12]
 800716e:	9802      	ldr	r0, [sp, #8]
 8007170:	f000 fb9a 	bl	80078a8 <__pow5mult>
 8007174:	9003      	str	r0, [sp, #12]
 8007176:	2101      	movs	r1, #1
 8007178:	9802      	ldr	r0, [sp, #8]
 800717a:	f000 fafd 	bl	8007778 <__i2b>
 800717e:	9b11      	ldr	r3, [sp, #68]	; 0x44
 8007180:	9004      	str	r0, [sp, #16]
 8007182:	2b00      	cmp	r3, #0
 8007184:	d100      	bne.n	8007188 <_dtoa_r+0x7d4>
 8007186:	e1e3      	b.n	8007550 <_dtoa_r+0xb9c>
 8007188:	001a      	movs	r2, r3
 800718a:	0001      	movs	r1, r0
 800718c:	9802      	ldr	r0, [sp, #8]
 800718e:	f000 fb8b 	bl	80078a8 <__pow5mult>
 8007192:	9b20      	ldr	r3, [sp, #128]	; 0x80
 8007194:	9004      	str	r0, [sp, #16]
 8007196:	2b01      	cmp	r3, #1
 8007198:	dd00      	ble.n	800719c <_dtoa_r+0x7e8>
 800719a:	e082      	b.n	80072a2 <_dtoa_r+0x8ee>
 800719c:	2500      	movs	r5, #0
 800719e:	9b06      	ldr	r3, [sp, #24]
 80071a0:	42ab      	cmp	r3, r5
 80071a2:	d10e      	bne.n	80071c2 <_dtoa_r+0x80e>
 80071a4:	9b07      	ldr	r3, [sp, #28]
 80071a6:	031b      	lsls	r3, r3, #12
 80071a8:	42ab      	cmp	r3, r5
 80071aa:	d10a      	bne.n	80071c2 <_dtoa_r+0x80e>
 80071ac:	9b17      	ldr	r3, [sp, #92]	; 0x5c
 80071ae:	9a07      	ldr	r2, [sp, #28]
 80071b0:	4213      	tst	r3, r2
 80071b2:	d006      	beq.n	80071c2 <_dtoa_r+0x80e>
 80071b4:	9b0a      	ldr	r3, [sp, #40]	; 0x28
 80071b6:	3501      	adds	r5, #1
 80071b8:	3301      	adds	r3, #1
 80071ba:	930a      	str	r3, [sp, #40]	; 0x28
 80071bc:	9b0b      	ldr	r3, [sp, #44]	; 0x2c
 80071be:	3301      	adds	r3, #1
 80071c0:	930b      	str	r3, [sp, #44]	; 0x2c
 80071c2:	9b11      	ldr	r3, [sp, #68]	; 0x44
 80071c4:	2001      	movs	r0, #1
 80071c6:	2b00      	cmp	r3, #0
 80071c8:	d16c      	bne.n	80072a4 <_dtoa_r+0x8f0>
 80071ca:	9b0b      	ldr	r3, [sp, #44]	; 0x2c
 80071cc:	1818      	adds	r0, r3, r0
 80071ce:	231f      	movs	r3, #31
 80071d0:	4018      	ands	r0, r3
 80071d2:	d07e      	beq.n	80072d2 <_dtoa_r+0x91e>
 80071d4:	3301      	adds	r3, #1
 80071d6:	1a1b      	subs	r3, r3, r0
 80071d8:	2b04      	cmp	r3, #4
 80071da:	dd70      	ble.n	80072be <_dtoa_r+0x90a>
 80071dc:	231c      	movs	r3, #28
 80071de:	1a18      	subs	r0, r3, r0
 80071e0:	9b0a      	ldr	r3, [sp, #40]	; 0x28
 80071e2:	1824      	adds	r4, r4, r0
 80071e4:	181b      	adds	r3, r3, r0
 80071e6:	930a      	str	r3, [sp, #40]	; 0x28
 80071e8:	9b0b      	ldr	r3, [sp, #44]	; 0x2c
 80071ea:	181b      	adds	r3, r3, r0
 80071ec:	930b      	str	r3, [sp, #44]	; 0x2c
 80071ee:	9b0a      	ldr	r3, [sp, #40]	; 0x28
 80071f0:	2b00      	cmp	r3, #0
 80071f2:	dd05      	ble.n	8007200 <_dtoa_r+0x84c>
 80071f4:	001a      	movs	r2, r3
 80071f6:	9903      	ldr	r1, [sp, #12]
 80071f8:	9802      	ldr	r0, [sp, #8]
 80071fa:	f000 fba7 	bl	800794c <__lshift>
 80071fe:	9003      	str	r0, [sp, #12]
 8007200:	9b0b      	ldr	r3, [sp, #44]	; 0x2c
 8007202:	2b00      	cmp	r3, #0
 8007204:	dd05      	ble.n	8007212 <_dtoa_r+0x85e>
 8007206:	001a      	movs	r2, r3
 8007208:	9904      	ldr	r1, [sp, #16]
 800720a:	9802      	ldr	r0, [sp, #8]
 800720c:	f000 fb9e 	bl	800794c <__lshift>
 8007210:	9004      	str	r0, [sp, #16]
 8007212:	9b14      	ldr	r3, [sp, #80]	; 0x50
 8007214:	2b00      	cmp	r3, #0
 8007216:	d05e      	beq.n	80072d6 <_dtoa_r+0x922>
 8007218:	9904      	ldr	r1, [sp, #16]
 800721a:	9803      	ldr	r0, [sp, #12]
 800721c:	f000 fbe8 	bl	80079f0 <__mcmp>
 8007220:	2800      	cmp	r0, #0
 8007222:	da58      	bge.n	80072d6 <_dtoa_r+0x922>
 8007224:	2300      	movs	r3, #0
 8007226:	220a      	movs	r2, #10
 8007228:	9903      	ldr	r1, [sp, #12]
 800722a:	9802      	ldr	r0, [sp, #8]
 800722c:	f000 fa1d 	bl	800766a <__multadd>
 8007230:	9b0d      	ldr	r3, [sp, #52]	; 0x34
 8007232:	3f01      	subs	r7, #1
 8007234:	9003      	str	r0, [sp, #12]
 8007236:	2b00      	cmp	r3, #0
 8007238:	d100      	bne.n	800723c <_dtoa_r+0x888>
 800723a:	e190      	b.n	800755e <_dtoa_r+0xbaa>
 800723c:	2300      	movs	r3, #0
 800723e:	0031      	movs	r1, r6
 8007240:	220a      	movs	r2, #10
 8007242:	9802      	ldr	r0, [sp, #8]
 8007244:	f000 fa11 	bl	800766a <__multadd>
 8007248:	9b0c      	ldr	r3, [sp, #48]	; 0x30
 800724a:	0006      	movs	r6, r0
 800724c:	2b00      	cmp	r3, #0
 800724e:	dd00      	ble.n	8007252 <_dtoa_r+0x89e>
 8007250:	e088      	b.n	8007364 <_dtoa_r+0x9b0>
 8007252:	9b20      	ldr	r3, [sp, #128]	; 0x80
 8007254:	2b02      	cmp	r3, #2
 8007256:	dc00      	bgt.n	800725a <_dtoa_r+0x8a6>
 8007258:	e084      	b.n	8007364 <_dtoa_r+0x9b0>
 800725a:	e044      	b.n	80072e6 <_dtoa_r+0x932>
 800725c:	2336      	movs	r3, #54	; 0x36
 800725e:	9a18      	ldr	r2, [sp, #96]	; 0x60
 8007260:	1a9b      	subs	r3, r3, r2
 8007262:	e747      	b.n	80070f4 <_dtoa_r+0x740>
 8007264:	9b09      	ldr	r3, [sp, #36]	; 0x24
 8007266:	1e5d      	subs	r5, r3, #1
 8007268:	9b04      	ldr	r3, [sp, #16]
 800726a:	42ab      	cmp	r3, r5
 800726c:	db08      	blt.n	8007280 <_dtoa_r+0x8cc>
 800726e:	1b5d      	subs	r5, r3, r5
 8007270:	9b09      	ldr	r3, [sp, #36]	; 0x24
 8007272:	2b00      	cmp	r3, #0
 8007274:	da0c      	bge.n	8007290 <_dtoa_r+0x8dc>
 8007276:	9b0a      	ldr	r3, [sp, #40]	; 0x28
 8007278:	9a09      	ldr	r2, [sp, #36]	; 0x24
 800727a:	1a9c      	subs	r4, r3, r2
 800727c:	2300      	movs	r3, #0
 800727e:	e73b      	b.n	80070f8 <_dtoa_r+0x744>
 8007280:	9b04      	ldr	r3, [sp, #16]
 8007282:	9504      	str	r5, [sp, #16]
 8007284:	1aea      	subs	r2, r5, r3
 8007286:	9b11      	ldr	r3, [sp, #68]	; 0x44
 8007288:	2500      	movs	r5, #0
 800728a:	189b      	adds	r3, r3, r2
 800728c:	9311      	str	r3, [sp, #68]	; 0x44
 800728e:	e7ef      	b.n	8007270 <_dtoa_r+0x8bc>
 8007290:	9c0a      	ldr	r4, [sp, #40]	; 0x28
 8007292:	9b09      	ldr	r3, [sp, #36]	; 0x24
 8007294:	e730      	b.n	80070f8 <_dtoa_r+0x744>
 8007296:	9d04      	ldr	r5, [sp, #16]
 8007298:	9c0a      	ldr	r4, [sp, #40]	; 0x28
 800729a:	9e0d      	ldr	r6, [sp, #52]	; 0x34
 800729c:	e737      	b.n	800710e <_dtoa_r+0x75a>
 800729e:	9a04      	ldr	r2, [sp, #16]
 80072a0:	e764      	b.n	800716c <_dtoa_r+0x7b8>
 80072a2:	2500      	movs	r5, #0
 80072a4:	9b04      	ldr	r3, [sp, #16]
 80072a6:	9a04      	ldr	r2, [sp, #16]
 80072a8:	691b      	ldr	r3, [r3, #16]
 80072aa:	9310      	str	r3, [sp, #64]	; 0x40
 80072ac:	3303      	adds	r3, #3
 80072ae:	009b      	lsls	r3, r3, #2
 80072b0:	18d3      	adds	r3, r2, r3
 80072b2:	6858      	ldr	r0, [r3, #4]
 80072b4:	f000 fa17 	bl	80076e6 <__hi0bits>
 80072b8:	2320      	movs	r3, #32
 80072ba:	1a18      	subs	r0, r3, r0
 80072bc:	e785      	b.n	80071ca <_dtoa_r+0x816>
 80072be:	2b04      	cmp	r3, #4
 80072c0:	d095      	beq.n	80071ee <_dtoa_r+0x83a>
 80072c2:	9a0a      	ldr	r2, [sp, #40]	; 0x28
 80072c4:	331c      	adds	r3, #28
 80072c6:	18d2      	adds	r2, r2, r3
 80072c8:	920a      	str	r2, [sp, #40]	; 0x28
 80072ca:	9a0b      	ldr	r2, [sp, #44]	; 0x2c
 80072cc:	18e4      	adds	r4, r4, r3
 80072ce:	18d3      	adds	r3, r2, r3
 80072d0:	e78c      	b.n	80071ec <_dtoa_r+0x838>
 80072d2:	0003      	movs	r3, r0
 80072d4:	e7f5      	b.n	80072c2 <_dtoa_r+0x90e>
 80072d6:	9b09      	ldr	r3, [sp, #36]	; 0x24
 80072d8:	2b00      	cmp	r3, #0
 80072da:	dc3d      	bgt.n	8007358 <_dtoa_r+0x9a4>
 80072dc:	9b20      	ldr	r3, [sp, #128]	; 0x80
 80072de:	2b02      	cmp	r3, #2
 80072e0:	dd3a      	ble.n	8007358 <_dtoa_r+0x9a4>
 80072e2:	9b09      	ldr	r3, [sp, #36]	; 0x24
 80072e4:	930c      	str	r3, [sp, #48]	; 0x30
 80072e6:	9b0c      	ldr	r3, [sp, #48]	; 0x30
 80072e8:	2b00      	cmp	r3, #0
 80072ea:	d10c      	bne.n	8007306 <_dtoa_r+0x952>
 80072ec:	9904      	ldr	r1, [sp, #16]
 80072ee:	2205      	movs	r2, #5
 80072f0:	9802      	ldr	r0, [sp, #8]
 80072f2:	f000 f9ba 	bl	800766a <__multadd>
 80072f6:	9004      	str	r0, [sp, #16]
 80072f8:	0001      	movs	r1, r0
 80072fa:	9803      	ldr	r0, [sp, #12]
 80072fc:	f000 fb78 	bl	80079f0 <__mcmp>
 8007300:	2800      	cmp	r0, #0
 8007302:	dd00      	ble.n	8007306 <_dtoa_r+0x952>
 8007304:	e5af      	b.n	8006e66 <_dtoa_r+0x4b2>
 8007306:	9b21      	ldr	r3, [sp, #132]	; 0x84
 8007308:	9d08      	ldr	r5, [sp, #32]
 800730a:	43df      	mvns	r7, r3
 800730c:	2300      	movs	r3, #0
 800730e:	9309      	str	r3, [sp, #36]	; 0x24
 8007310:	9904      	ldr	r1, [sp, #16]
 8007312:	9802      	ldr	r0, [sp, #8]
 8007314:	f000 f990 	bl	8007638 <_Bfree>
 8007318:	2e00      	cmp	r6, #0
 800731a:	d100      	bne.n	800731e <_dtoa_r+0x96a>
 800731c:	e69b      	b.n	8007056 <_dtoa_r+0x6a2>
 800731e:	9b09      	ldr	r3, [sp, #36]	; 0x24
 8007320:	2b00      	cmp	r3, #0
 8007322:	d005      	beq.n	8007330 <_dtoa_r+0x97c>
 8007324:	42b3      	cmp	r3, r6
 8007326:	d003      	beq.n	8007330 <_dtoa_r+0x97c>
 8007328:	0019      	movs	r1, r3
 800732a:	9802      	ldr	r0, [sp, #8]
 800732c:	f000 f984 	bl	8007638 <_Bfree>
 8007330:	0031      	movs	r1, r6
 8007332:	9802      	ldr	r0, [sp, #8]
 8007334:	f000 f980 	bl	8007638 <_Bfree>
 8007338:	e68d      	b.n	8007056 <_dtoa_r+0x6a2>
 800733a:	9b10      	ldr	r3, [sp, #64]	; 0x40
 800733c:	9304      	str	r3, [sp, #16]
 800733e:	001e      	movs	r6, r3
 8007340:	e7e1      	b.n	8007306 <_dtoa_r+0x952>
 8007342:	2300      	movs	r3, #0
 8007344:	e7fa      	b.n	800733c <_dtoa_r+0x988>
 8007346:	9b10      	ldr	r3, [sp, #64]	; 0x40
 8007348:	0037      	movs	r7, r6
 800734a:	9304      	str	r3, [sp, #16]
 800734c:	001e      	movs	r6, r3
 800734e:	e58a      	b.n	8006e66 <_dtoa_r+0x4b2>
 8007350:	40240000 	.word	0x40240000
 8007354:	00000433 	.word	0x00000433
 8007358:	9b0d      	ldr	r3, [sp, #52]	; 0x34
 800735a:	2b00      	cmp	r3, #0
 800735c:	d100      	bne.n	8007360 <_dtoa_r+0x9ac>
 800735e:	e0b2      	b.n	80074c6 <_dtoa_r+0xb12>
 8007360:	9b09      	ldr	r3, [sp, #36]	; 0x24
 8007362:	930c      	str	r3, [sp, #48]	; 0x30
 8007364:	2c00      	cmp	r4, #0
 8007366:	dd05      	ble.n	8007374 <_dtoa_r+0x9c0>
 8007368:	0031      	movs	r1, r6
 800736a:	0022      	movs	r2, r4
 800736c:	9802      	ldr	r0, [sp, #8]
 800736e:	f000 faed 	bl	800794c <__lshift>
 8007372:	0006      	movs	r6, r0
 8007374:	0030      	movs	r0, r6
 8007376:	2d00      	cmp	r5, #0
 8007378:	d011      	beq.n	800739e <_dtoa_r+0x9ea>
 800737a:	6871      	ldr	r1, [r6, #4]
 800737c:	9802      	ldr	r0, [sp, #8]
 800737e:	f000 f923 	bl	80075c8 <_Balloc>
 8007382:	0031      	movs	r1, r6
 8007384:	0004      	movs	r4, r0
 8007386:	6933      	ldr	r3, [r6, #16]
 8007388:	310c      	adds	r1, #12
 800738a:	1c9a      	adds	r2, r3, #2
 800738c:	0092      	lsls	r2, r2, #2
 800738e:	300c      	adds	r0, #12
 8007390:	f000 f911 	bl	80075b6 <memcpy>
 8007394:	2201      	movs	r2, #1
 8007396:	0021      	movs	r1, r4
 8007398:	9802      	ldr	r0, [sp, #8]
 800739a:	f000 fad7 	bl	800794c <__lshift>
 800739e:	9609      	str	r6, [sp, #36]	; 0x24
 80073a0:	0006      	movs	r6, r0
 80073a2:	9b08      	ldr	r3, [sp, #32]
 80073a4:	930a      	str	r3, [sp, #40]	; 0x28
 80073a6:	9904      	ldr	r1, [sp, #16]
 80073a8:	9803      	ldr	r0, [sp, #12]
 80073aa:	f7ff fa7d 	bl	80068a8 <quorem>
 80073ae:	9909      	ldr	r1, [sp, #36]	; 0x24
 80073b0:	900d      	str	r0, [sp, #52]	; 0x34
 80073b2:	0004      	movs	r4, r0
 80073b4:	9803      	ldr	r0, [sp, #12]
 80073b6:	f000 fb1b 	bl	80079f0 <__mcmp>
 80073ba:	0032      	movs	r2, r6
 80073bc:	9010      	str	r0, [sp, #64]	; 0x40
 80073be:	9904      	ldr	r1, [sp, #16]
 80073c0:	9802      	ldr	r0, [sp, #8]
 80073c2:	f000 fb2f 	bl	8007a24 <__mdiff>
 80073c6:	2301      	movs	r3, #1
 80073c8:	930b      	str	r3, [sp, #44]	; 0x2c
 80073ca:	68c3      	ldr	r3, [r0, #12]
 80073cc:	3430      	adds	r4, #48	; 0x30
 80073ce:	0005      	movs	r5, r0
 80073d0:	2b00      	cmp	r3, #0
 80073d2:	d104      	bne.n	80073de <_dtoa_r+0xa2a>
 80073d4:	0001      	movs	r1, r0
 80073d6:	9803      	ldr	r0, [sp, #12]
 80073d8:	f000 fb0a 	bl	80079f0 <__mcmp>
 80073dc:	900b      	str	r0, [sp, #44]	; 0x2c
 80073de:	0029      	movs	r1, r5
 80073e0:	9802      	ldr	r0, [sp, #8]
 80073e2:	f000 f929 	bl	8007638 <_Bfree>
 80073e6:	9b0b      	ldr	r3, [sp, #44]	; 0x2c
 80073e8:	9a20      	ldr	r2, [sp, #128]	; 0x80
 80073ea:	4313      	orrs	r3, r2
 80073ec:	d10e      	bne.n	800740c <_dtoa_r+0xa58>
 80073ee:	9a06      	ldr	r2, [sp, #24]
 80073f0:	3301      	adds	r3, #1
 80073f2:	4213      	tst	r3, r2
 80073f4:	d10a      	bne.n	800740c <_dtoa_r+0xa58>
 80073f6:	2c39      	cmp	r4, #57	; 0x39
 80073f8:	d026      	beq.n	8007448 <_dtoa_r+0xa94>
 80073fa:	9b10      	ldr	r3, [sp, #64]	; 0x40
 80073fc:	2b00      	cmp	r3, #0
 80073fe:	dd01      	ble.n	8007404 <_dtoa_r+0xa50>
 8007400:	9c0d      	ldr	r4, [sp, #52]	; 0x34
 8007402:	3431      	adds	r4, #49	; 0x31
 8007404:	9b0a      	ldr	r3, [sp, #40]	; 0x28
 8007406:	1c5d      	adds	r5, r3, #1
 8007408:	701c      	strb	r4, [r3, #0]
 800740a:	e781      	b.n	8007310 <_dtoa_r+0x95c>
 800740c:	9b10      	ldr	r3, [sp, #64]	; 0x40
 800740e:	2b00      	cmp	r3, #0
 8007410:	db07      	blt.n	8007422 <_dtoa_r+0xa6e>
 8007412:	001d      	movs	r5, r3
 8007414:	9b20      	ldr	r3, [sp, #128]	; 0x80
 8007416:	431d      	orrs	r5, r3
 8007418:	d122      	bne.n	8007460 <_dtoa_r+0xaac>
 800741a:	2301      	movs	r3, #1
 800741c:	9a06      	ldr	r2, [sp, #24]
 800741e:	4213      	tst	r3, r2
 8007420:	d11e      	bne.n	8007460 <_dtoa_r+0xaac>
 8007422:	9b0b      	ldr	r3, [sp, #44]	; 0x2c
 8007424:	2b00      	cmp	r3, #0
 8007426:	dded      	ble.n	8007404 <_dtoa_r+0xa50>
 8007428:	9903      	ldr	r1, [sp, #12]
 800742a:	2201      	movs	r2, #1
 800742c:	9802      	ldr	r0, [sp, #8]
 800742e:	f000 fa8d 	bl	800794c <__lshift>
 8007432:	9904      	ldr	r1, [sp, #16]
 8007434:	9003      	str	r0, [sp, #12]
 8007436:	f000 fadb 	bl	80079f0 <__mcmp>
 800743a:	2800      	cmp	r0, #0
 800743c:	dc02      	bgt.n	8007444 <_dtoa_r+0xa90>
 800743e:	d1e1      	bne.n	8007404 <_dtoa_r+0xa50>
 8007440:	07e3      	lsls	r3, r4, #31
 8007442:	d5df      	bpl.n	8007404 <_dtoa_r+0xa50>
 8007444:	2c39      	cmp	r4, #57	; 0x39
 8007446:	d1db      	bne.n	8007400 <_dtoa_r+0xa4c>
 8007448:	9b0a      	ldr	r3, [sp, #40]	; 0x28
 800744a:	9a0a      	ldr	r2, [sp, #40]	; 0x28
 800744c:	1c5d      	adds	r5, r3, #1
 800744e:	2339      	movs	r3, #57	; 0x39
 8007450:	7013      	strb	r3, [r2, #0]
 8007452:	1e6b      	subs	r3, r5, #1
 8007454:	781a      	ldrb	r2, [r3, #0]
 8007456:	2a39      	cmp	r2, #57	; 0x39
 8007458:	d067      	beq.n	800752a <_dtoa_r+0xb76>
 800745a:	3201      	adds	r2, #1
 800745c:	701a      	strb	r2, [r3, #0]
 800745e:	e757      	b.n	8007310 <_dtoa_r+0x95c>
 8007460:	9b0a      	ldr	r3, [sp, #40]	; 0x28
 8007462:	1c5d      	adds	r5, r3, #1
 8007464:	9b0b      	ldr	r3, [sp, #44]	; 0x2c
 8007466:	2b00      	cmp	r3, #0
 8007468:	dd04      	ble.n	8007474 <_dtoa_r+0xac0>
 800746a:	2c39      	cmp	r4, #57	; 0x39
 800746c:	d0ec      	beq.n	8007448 <_dtoa_r+0xa94>
 800746e:	3401      	adds	r4, #1
 8007470:	9b0a      	ldr	r3, [sp, #40]	; 0x28
 8007472:	e7c9      	b.n	8007408 <_dtoa_r+0xa54>
 8007474:	9b0a      	ldr	r3, [sp, #40]	; 0x28
 8007476:	9a0c      	ldr	r2, [sp, #48]	; 0x30
 8007478:	701c      	strb	r4, [r3, #0]
 800747a:	9b08      	ldr	r3, [sp, #32]
 800747c:	1aeb      	subs	r3, r5, r3
 800747e:	4293      	cmp	r3, r2
 8007480:	d03e      	beq.n	8007500 <_dtoa_r+0xb4c>
 8007482:	2300      	movs	r3, #0
 8007484:	220a      	movs	r2, #10
 8007486:	9903      	ldr	r1, [sp, #12]
 8007488:	9802      	ldr	r0, [sp, #8]
 800748a:	f000 f8ee 	bl	800766a <__multadd>
 800748e:	9b09      	ldr	r3, [sp, #36]	; 0x24
 8007490:	9003      	str	r0, [sp, #12]
 8007492:	42b3      	cmp	r3, r6
 8007494:	d109      	bne.n	80074aa <_dtoa_r+0xaf6>
 8007496:	2300      	movs	r3, #0
 8007498:	220a      	movs	r2, #10
 800749a:	9909      	ldr	r1, [sp, #36]	; 0x24
 800749c:	9802      	ldr	r0, [sp, #8]
 800749e:	f000 f8e4 	bl	800766a <__multadd>
 80074a2:	9009      	str	r0, [sp, #36]	; 0x24
 80074a4:	0006      	movs	r6, r0
 80074a6:	950a      	str	r5, [sp, #40]	; 0x28
 80074a8:	e77d      	b.n	80073a6 <_dtoa_r+0x9f2>
 80074aa:	9909      	ldr	r1, [sp, #36]	; 0x24
 80074ac:	2300      	movs	r3, #0
 80074ae:	220a      	movs	r2, #10
 80074b0:	9802      	ldr	r0, [sp, #8]
 80074b2:	f000 f8da 	bl	800766a <__multadd>
 80074b6:	2300      	movs	r3, #0
 80074b8:	9009      	str	r0, [sp, #36]	; 0x24
 80074ba:	220a      	movs	r2, #10
 80074bc:	0031      	movs	r1, r6
 80074be:	9802      	ldr	r0, [sp, #8]
 80074c0:	f000 f8d3 	bl	800766a <__multadd>
 80074c4:	e7ee      	b.n	80074a4 <_dtoa_r+0xaf0>
 80074c6:	9b09      	ldr	r3, [sp, #36]	; 0x24
 80074c8:	930c      	str	r3, [sp, #48]	; 0x30
 80074ca:	9b08      	ldr	r3, [sp, #32]
 80074cc:	9306      	str	r3, [sp, #24]
 80074ce:	9904      	ldr	r1, [sp, #16]
 80074d0:	9803      	ldr	r0, [sp, #12]
 80074d2:	f7ff f9e9 	bl	80068a8 <quorem>
 80074d6:	9b06      	ldr	r3, [sp, #24]
 80074d8:	3030      	adds	r0, #48	; 0x30
 80074da:	1c5d      	adds	r5, r3, #1
 80074dc:	7018      	strb	r0, [r3, #0]
 80074de:	9a0c      	ldr	r2, [sp, #48]	; 0x30
 80074e0:	9b08      	ldr	r3, [sp, #32]
 80074e2:	0004      	movs	r4, r0
 80074e4:	1aeb      	subs	r3, r5, r3
 80074e6:	429a      	cmp	r2, r3
 80074e8:	dd08      	ble.n	80074fc <_dtoa_r+0xb48>
 80074ea:	2300      	movs	r3, #0
 80074ec:	220a      	movs	r2, #10
 80074ee:	9903      	ldr	r1, [sp, #12]
 80074f0:	9802      	ldr	r0, [sp, #8]
 80074f2:	f000 f8ba 	bl	800766a <__multadd>
 80074f6:	9506      	str	r5, [sp, #24]
 80074f8:	9003      	str	r0, [sp, #12]
 80074fa:	e7e8      	b.n	80074ce <_dtoa_r+0xb1a>
 80074fc:	2300      	movs	r3, #0
 80074fe:	9309      	str	r3, [sp, #36]	; 0x24
 8007500:	9903      	ldr	r1, [sp, #12]
 8007502:	2201      	movs	r2, #1
 8007504:	9802      	ldr	r0, [sp, #8]
 8007506:	f000 fa21 	bl	800794c <__lshift>
 800750a:	9904      	ldr	r1, [sp, #16]
 800750c:	9003      	str	r0, [sp, #12]
 800750e:	f000 fa6f 	bl	80079f0 <__mcmp>
 8007512:	2800      	cmp	r0, #0
 8007514:	dc9d      	bgt.n	8007452 <_dtoa_r+0xa9e>
 8007516:	d101      	bne.n	800751c <_dtoa_r+0xb68>
 8007518:	07e3      	lsls	r3, r4, #31
 800751a:	d49a      	bmi.n	8007452 <_dtoa_r+0xa9e>
 800751c:	1e6b      	subs	r3, r5, #1
 800751e:	781a      	ldrb	r2, [r3, #0]
 8007520:	2a30      	cmp	r2, #48	; 0x30
 8007522:	d000      	beq.n	8007526 <_dtoa_r+0xb72>
 8007524:	e6f4      	b.n	8007310 <_dtoa_r+0x95c>
 8007526:	001d      	movs	r5, r3
 8007528:	e7f8      	b.n	800751c <_dtoa_r+0xb68>
 800752a:	9a08      	ldr	r2, [sp, #32]
 800752c:	429a      	cmp	r2, r3
 800752e:	d103      	bne.n	8007538 <_dtoa_r+0xb84>
 8007530:	2331      	movs	r3, #49	; 0x31
 8007532:	3701      	adds	r7, #1
 8007534:	7013      	strb	r3, [r2, #0]
 8007536:	e6eb      	b.n	8007310 <_dtoa_r+0x95c>
 8007538:	001d      	movs	r5, r3
 800753a:	e78a      	b.n	8007452 <_dtoa_r+0xa9e>
 800753c:	4b0b      	ldr	r3, [pc, #44]	; (800756c <_dtoa_r+0xbb8>)
 800753e:	9a24      	ldr	r2, [sp, #144]	; 0x90
 8007540:	9308      	str	r3, [sp, #32]
 8007542:	4b0b      	ldr	r3, [pc, #44]	; (8007570 <_dtoa_r+0xbbc>)
 8007544:	2a00      	cmp	r2, #0
 8007546:	d001      	beq.n	800754c <_dtoa_r+0xb98>
 8007548:	f7ff fa77 	bl	8006a3a <_dtoa_r+0x86>
 800754c:	f7ff fa77 	bl	8006a3e <_dtoa_r+0x8a>
 8007550:	9b20      	ldr	r3, [sp, #128]	; 0x80
 8007552:	2b01      	cmp	r3, #1
 8007554:	dc00      	bgt.n	8007558 <_dtoa_r+0xba4>
 8007556:	e621      	b.n	800719c <_dtoa_r+0x7e8>
 8007558:	9d11      	ldr	r5, [sp, #68]	; 0x44
 800755a:	2001      	movs	r0, #1
 800755c:	e635      	b.n	80071ca <_dtoa_r+0x816>
 800755e:	9b0c      	ldr	r3, [sp, #48]	; 0x30
 8007560:	2b00      	cmp	r3, #0
 8007562:	dcb2      	bgt.n	80074ca <_dtoa_r+0xb16>
 8007564:	9b20      	ldr	r3, [sp, #128]	; 0x80
 8007566:	2b02      	cmp	r3, #2
 8007568:	ddaf      	ble.n	80074ca <_dtoa_r+0xb16>
 800756a:	e6bc      	b.n	80072e6 <_dtoa_r+0x932>
 800756c:	08008440 	.word	0x08008440
 8007570:	08008448 	.word	0x08008448

08007574 <_localeconv_r>:
 8007574:	4b03      	ldr	r3, [pc, #12]	; (8007584 <_localeconv_r+0x10>)
 8007576:	681b      	ldr	r3, [r3, #0]
 8007578:	6a18      	ldr	r0, [r3, #32]
 800757a:	2800      	cmp	r0, #0
 800757c:	d100      	bne.n	8007580 <_localeconv_r+0xc>
 800757e:	4802      	ldr	r0, [pc, #8]	; (8007588 <_localeconv_r+0x14>)
 8007580:	30f0      	adds	r0, #240	; 0xf0
 8007582:	4770      	bx	lr
 8007584:	20000010 	.word	0x20000010
 8007588:	20000074 	.word	0x20000074

0800758c <malloc>:
 800758c:	b510      	push	{r4, lr}
 800758e:	4b03      	ldr	r3, [pc, #12]	; (800759c <malloc+0x10>)
 8007590:	0001      	movs	r1, r0
 8007592:	6818      	ldr	r0, [r3, #0]
 8007594:	f000 fb56 	bl	8007c44 <_malloc_r>
 8007598:	bd10      	pop	{r4, pc}
 800759a:	46c0      	nop			; (mov r8, r8)
 800759c:	20000010 	.word	0x20000010

080075a0 <memchr>:
 80075a0:	b2c9      	uxtb	r1, r1
 80075a2:	1882      	adds	r2, r0, r2
 80075a4:	4290      	cmp	r0, r2
 80075a6:	d101      	bne.n	80075ac <memchr+0xc>
 80075a8:	2000      	movs	r0, #0
 80075aa:	4770      	bx	lr
 80075ac:	7803      	ldrb	r3, [r0, #0]
 80075ae:	428b      	cmp	r3, r1
 80075b0:	d0fb      	beq.n	80075aa <memchr+0xa>
 80075b2:	3001      	adds	r0, #1
 80075b4:	e7f6      	b.n	80075a4 <memchr+0x4>

080075b6 <memcpy>:
 80075b6:	2300      	movs	r3, #0
 80075b8:	b510      	push	{r4, lr}
 80075ba:	429a      	cmp	r2, r3
 80075bc:	d100      	bne.n	80075c0 <memcpy+0xa>
 80075be:	bd10      	pop	{r4, pc}
 80075c0:	5ccc      	ldrb	r4, [r1, r3]
 80075c2:	54c4      	strb	r4, [r0, r3]
 80075c4:	3301      	adds	r3, #1
 80075c6:	e7f8      	b.n	80075ba <memcpy+0x4>

080075c8 <_Balloc>:
 80075c8:	b570      	push	{r4, r5, r6, lr}
 80075ca:	6a46      	ldr	r6, [r0, #36]	; 0x24
 80075cc:	0004      	movs	r4, r0
 80075ce:	000d      	movs	r5, r1
 80075d0:	2e00      	cmp	r6, #0
 80075d2:	d107      	bne.n	80075e4 <_Balloc+0x1c>
 80075d4:	2010      	movs	r0, #16
 80075d6:	f7ff ffd9 	bl	800758c <malloc>
 80075da:	6260      	str	r0, [r4, #36]	; 0x24
 80075dc:	6046      	str	r6, [r0, #4]
 80075de:	6086      	str	r6, [r0, #8]
 80075e0:	6006      	str	r6, [r0, #0]
 80075e2:	60c6      	str	r6, [r0, #12]
 80075e4:	6a66      	ldr	r6, [r4, #36]	; 0x24
 80075e6:	68f3      	ldr	r3, [r6, #12]
 80075e8:	2b00      	cmp	r3, #0
 80075ea:	d013      	beq.n	8007614 <_Balloc+0x4c>
 80075ec:	6a63      	ldr	r3, [r4, #36]	; 0x24
 80075ee:	00aa      	lsls	r2, r5, #2
 80075f0:	68db      	ldr	r3, [r3, #12]
 80075f2:	189b      	adds	r3, r3, r2
 80075f4:	6818      	ldr	r0, [r3, #0]
 80075f6:	2800      	cmp	r0, #0
 80075f8:	d118      	bne.n	800762c <_Balloc+0x64>
 80075fa:	2101      	movs	r1, #1
 80075fc:	000e      	movs	r6, r1
 80075fe:	40ae      	lsls	r6, r5
 8007600:	1d72      	adds	r2, r6, #5
 8007602:	0092      	lsls	r2, r2, #2
 8007604:	0020      	movs	r0, r4
 8007606:	f000 fac5 	bl	8007b94 <_calloc_r>
 800760a:	2800      	cmp	r0, #0
 800760c:	d00c      	beq.n	8007628 <_Balloc+0x60>
 800760e:	6045      	str	r5, [r0, #4]
 8007610:	6086      	str	r6, [r0, #8]
 8007612:	e00d      	b.n	8007630 <_Balloc+0x68>
 8007614:	2221      	movs	r2, #33	; 0x21
 8007616:	2104      	movs	r1, #4
 8007618:	0020      	movs	r0, r4
 800761a:	f000 fabb 	bl	8007b94 <_calloc_r>
 800761e:	6a63      	ldr	r3, [r4, #36]	; 0x24
 8007620:	60f0      	str	r0, [r6, #12]
 8007622:	68db      	ldr	r3, [r3, #12]
 8007624:	2b00      	cmp	r3, #0
 8007626:	d1e1      	bne.n	80075ec <_Balloc+0x24>
 8007628:	2000      	movs	r0, #0
 800762a:	bd70      	pop	{r4, r5, r6, pc}
 800762c:	6802      	ldr	r2, [r0, #0]
 800762e:	601a      	str	r2, [r3, #0]
 8007630:	2300      	movs	r3, #0
 8007632:	6103      	str	r3, [r0, #16]
 8007634:	60c3      	str	r3, [r0, #12]
 8007636:	e7f8      	b.n	800762a <_Balloc+0x62>

08007638 <_Bfree>:
 8007638:	b570      	push	{r4, r5, r6, lr}
 800763a:	6a44      	ldr	r4, [r0, #36]	; 0x24
 800763c:	0006      	movs	r6, r0
 800763e:	000d      	movs	r5, r1
 8007640:	2c00      	cmp	r4, #0
 8007642:	d107      	bne.n	8007654 <_Bfree+0x1c>
 8007644:	2010      	movs	r0, #16
 8007646:	f7ff ffa1 	bl	800758c <malloc>
 800764a:	6270      	str	r0, [r6, #36]	; 0x24
 800764c:	6044      	str	r4, [r0, #4]
 800764e:	6084      	str	r4, [r0, #8]
 8007650:	6004      	str	r4, [r0, #0]
 8007652:	60c4      	str	r4, [r0, #12]
 8007654:	2d00      	cmp	r5, #0
 8007656:	d007      	beq.n	8007668 <_Bfree+0x30>
 8007658:	6a73      	ldr	r3, [r6, #36]	; 0x24
 800765a:	686a      	ldr	r2, [r5, #4]
 800765c:	68db      	ldr	r3, [r3, #12]
 800765e:	0092      	lsls	r2, r2, #2
 8007660:	189b      	adds	r3, r3, r2
 8007662:	681a      	ldr	r2, [r3, #0]
 8007664:	602a      	str	r2, [r5, #0]
 8007666:	601d      	str	r5, [r3, #0]
 8007668:	bd70      	pop	{r4, r5, r6, pc}

0800766a <__multadd>:
 800766a:	b5f7      	push	{r0, r1, r2, r4, r5, r6, r7, lr}
 800766c:	001e      	movs	r6, r3
 800766e:	2314      	movs	r3, #20
 8007670:	469c      	mov	ip, r3
 8007672:	0007      	movs	r7, r0
 8007674:	000c      	movs	r4, r1
 8007676:	2000      	movs	r0, #0
 8007678:	690d      	ldr	r5, [r1, #16]
 800767a:	448c      	add	ip, r1
 800767c:	4663      	mov	r3, ip
 800767e:	681b      	ldr	r3, [r3, #0]
 8007680:	3001      	adds	r0, #1
 8007682:	b299      	uxth	r1, r3
 8007684:	4663      	mov	r3, ip
 8007686:	681b      	ldr	r3, [r3, #0]
 8007688:	4351      	muls	r1, r2
 800768a:	0c1b      	lsrs	r3, r3, #16
 800768c:	4353      	muls	r3, r2
 800768e:	1989      	adds	r1, r1, r6
 8007690:	0c0e      	lsrs	r6, r1, #16
 8007692:	199b      	adds	r3, r3, r6
 8007694:	b289      	uxth	r1, r1
 8007696:	0c1e      	lsrs	r6, r3, #16
 8007698:	041b      	lsls	r3, r3, #16
 800769a:	185b      	adds	r3, r3, r1
 800769c:	4661      	mov	r1, ip
 800769e:	c108      	stmia	r1!, {r3}
 80076a0:	468c      	mov	ip, r1
 80076a2:	4285      	cmp	r5, r0
 80076a4:	dcea      	bgt.n	800767c <__multadd+0x12>
 80076a6:	2e00      	cmp	r6, #0
 80076a8:	d01b      	beq.n	80076e2 <__multadd+0x78>
 80076aa:	68a3      	ldr	r3, [r4, #8]
 80076ac:	42ab      	cmp	r3, r5
 80076ae:	dc12      	bgt.n	80076d6 <__multadd+0x6c>
 80076b0:	6863      	ldr	r3, [r4, #4]
 80076b2:	0038      	movs	r0, r7
 80076b4:	1c59      	adds	r1, r3, #1
 80076b6:	f7ff ff87 	bl	80075c8 <_Balloc>
 80076ba:	0021      	movs	r1, r4
 80076bc:	6923      	ldr	r3, [r4, #16]
 80076be:	9001      	str	r0, [sp, #4]
 80076c0:	1c9a      	adds	r2, r3, #2
 80076c2:	0092      	lsls	r2, r2, #2
 80076c4:	310c      	adds	r1, #12
 80076c6:	300c      	adds	r0, #12
 80076c8:	f7ff ff75 	bl	80075b6 <memcpy>
 80076cc:	0021      	movs	r1, r4
 80076ce:	0038      	movs	r0, r7
 80076d0:	f7ff ffb2 	bl	8007638 <_Bfree>
 80076d4:	9c01      	ldr	r4, [sp, #4]
 80076d6:	1d2b      	adds	r3, r5, #4
 80076d8:	009b      	lsls	r3, r3, #2
 80076da:	18e3      	adds	r3, r4, r3
 80076dc:	3501      	adds	r5, #1
 80076de:	605e      	str	r6, [r3, #4]
 80076e0:	6125      	str	r5, [r4, #16]
 80076e2:	0020      	movs	r0, r4
 80076e4:	bdfe      	pop	{r1, r2, r3, r4, r5, r6, r7, pc}

080076e6 <__hi0bits>:
 80076e6:	0003      	movs	r3, r0
 80076e8:	0c02      	lsrs	r2, r0, #16
 80076ea:	2000      	movs	r0, #0
 80076ec:	4282      	cmp	r2, r0
 80076ee:	d101      	bne.n	80076f4 <__hi0bits+0xe>
 80076f0:	041b      	lsls	r3, r3, #16
 80076f2:	3010      	adds	r0, #16
 80076f4:	0e1a      	lsrs	r2, r3, #24
 80076f6:	d101      	bne.n	80076fc <__hi0bits+0x16>
 80076f8:	3008      	adds	r0, #8
 80076fa:	021b      	lsls	r3, r3, #8
 80076fc:	0f1a      	lsrs	r2, r3, #28
 80076fe:	d101      	bne.n	8007704 <__hi0bits+0x1e>
 8007700:	3004      	adds	r0, #4
 8007702:	011b      	lsls	r3, r3, #4
 8007704:	0f9a      	lsrs	r2, r3, #30
 8007706:	d101      	bne.n	800770c <__hi0bits+0x26>
 8007708:	3002      	adds	r0, #2
 800770a:	009b      	lsls	r3, r3, #2
 800770c:	2b00      	cmp	r3, #0
 800770e:	db03      	blt.n	8007718 <__hi0bits+0x32>
 8007710:	3001      	adds	r0, #1
 8007712:	005b      	lsls	r3, r3, #1
 8007714:	d400      	bmi.n	8007718 <__hi0bits+0x32>
 8007716:	2020      	movs	r0, #32
 8007718:	4770      	bx	lr

0800771a <__lo0bits>:
 800771a:	2207      	movs	r2, #7
 800771c:	6803      	ldr	r3, [r0, #0]
 800771e:	b510      	push	{r4, lr}
 8007720:	0001      	movs	r1, r0
 8007722:	401a      	ands	r2, r3
 8007724:	d00d      	beq.n	8007742 <__lo0bits+0x28>
 8007726:	2401      	movs	r4, #1
 8007728:	2000      	movs	r0, #0
 800772a:	4223      	tst	r3, r4
 800772c:	d105      	bne.n	800773a <__lo0bits+0x20>
 800772e:	3002      	adds	r0, #2
 8007730:	4203      	tst	r3, r0
 8007732:	d003      	beq.n	800773c <__lo0bits+0x22>
 8007734:	40e3      	lsrs	r3, r4
 8007736:	0020      	movs	r0, r4
 8007738:	600b      	str	r3, [r1, #0]
 800773a:	bd10      	pop	{r4, pc}
 800773c:	089b      	lsrs	r3, r3, #2
 800773e:	600b      	str	r3, [r1, #0]
 8007740:	e7fb      	b.n	800773a <__lo0bits+0x20>
 8007742:	b29c      	uxth	r4, r3
 8007744:	0010      	movs	r0, r2
 8007746:	2c00      	cmp	r4, #0
 8007748:	d101      	bne.n	800774e <__lo0bits+0x34>
 800774a:	2010      	movs	r0, #16
 800774c:	0c1b      	lsrs	r3, r3, #16
 800774e:	b2da      	uxtb	r2, r3
 8007750:	2a00      	cmp	r2, #0
 8007752:	d101      	bne.n	8007758 <__lo0bits+0x3e>
 8007754:	3008      	adds	r0, #8
 8007756:	0a1b      	lsrs	r3, r3, #8
 8007758:	071a      	lsls	r2, r3, #28
 800775a:	d101      	bne.n	8007760 <__lo0bits+0x46>
 800775c:	3004      	adds	r0, #4
 800775e:	091b      	lsrs	r3, r3, #4
 8007760:	079a      	lsls	r2, r3, #30
 8007762:	d101      	bne.n	8007768 <__lo0bits+0x4e>
 8007764:	3002      	adds	r0, #2
 8007766:	089b      	lsrs	r3, r3, #2
 8007768:	07da      	lsls	r2, r3, #31
 800776a:	d4e8      	bmi.n	800773e <__lo0bits+0x24>
 800776c:	085b      	lsrs	r3, r3, #1
 800776e:	d001      	beq.n	8007774 <__lo0bits+0x5a>
 8007770:	3001      	adds	r0, #1
 8007772:	e7e4      	b.n	800773e <__lo0bits+0x24>
 8007774:	2020      	movs	r0, #32
 8007776:	e7e0      	b.n	800773a <__lo0bits+0x20>

08007778 <__i2b>:
 8007778:	b510      	push	{r4, lr}
 800777a:	000c      	movs	r4, r1
 800777c:	2101      	movs	r1, #1
 800777e:	f7ff ff23 	bl	80075c8 <_Balloc>
 8007782:	2301      	movs	r3, #1
 8007784:	6144      	str	r4, [r0, #20]
 8007786:	6103      	str	r3, [r0, #16]
 8007788:	bd10      	pop	{r4, pc}

0800778a <__multiply>:
 800778a:	b5f0      	push	{r4, r5, r6, r7, lr}
 800778c:	690b      	ldr	r3, [r1, #16]
 800778e:	0014      	movs	r4, r2
 8007790:	6912      	ldr	r2, [r2, #16]
 8007792:	b089      	sub	sp, #36	; 0x24
 8007794:	000d      	movs	r5, r1
 8007796:	4293      	cmp	r3, r2
 8007798:	da01      	bge.n	800779e <__multiply+0x14>
 800779a:	0025      	movs	r5, r4
 800779c:	000c      	movs	r4, r1
 800779e:	692f      	ldr	r7, [r5, #16]
 80077a0:	6926      	ldr	r6, [r4, #16]
 80077a2:	6869      	ldr	r1, [r5, #4]
 80077a4:	19bb      	adds	r3, r7, r6
 80077a6:	9302      	str	r3, [sp, #8]
 80077a8:	68ab      	ldr	r3, [r5, #8]
 80077aa:	19ba      	adds	r2, r7, r6
 80077ac:	4293      	cmp	r3, r2
 80077ae:	da00      	bge.n	80077b2 <__multiply+0x28>
 80077b0:	3101      	adds	r1, #1
 80077b2:	f7ff ff09 	bl	80075c8 <_Balloc>
 80077b6:	0002      	movs	r2, r0
 80077b8:	19bb      	adds	r3, r7, r6
 80077ba:	3214      	adds	r2, #20
 80077bc:	009b      	lsls	r3, r3, #2
 80077be:	18d3      	adds	r3, r2, r3
 80077c0:	469c      	mov	ip, r3
 80077c2:	2100      	movs	r1, #0
 80077c4:	0013      	movs	r3, r2
 80077c6:	9004      	str	r0, [sp, #16]
 80077c8:	4563      	cmp	r3, ip
 80077ca:	d31d      	bcc.n	8007808 <__multiply+0x7e>
 80077cc:	3514      	adds	r5, #20
 80077ce:	00bf      	lsls	r7, r7, #2
 80077d0:	19eb      	adds	r3, r5, r7
 80077d2:	3414      	adds	r4, #20
 80077d4:	00b6      	lsls	r6, r6, #2
 80077d6:	9305      	str	r3, [sp, #20]
 80077d8:	19a3      	adds	r3, r4, r6
 80077da:	9503      	str	r5, [sp, #12]
 80077dc:	9401      	str	r4, [sp, #4]
 80077de:	9307      	str	r3, [sp, #28]
 80077e0:	9b07      	ldr	r3, [sp, #28]
 80077e2:	9901      	ldr	r1, [sp, #4]
 80077e4:	4299      	cmp	r1, r3
 80077e6:	d311      	bcc.n	800780c <__multiply+0x82>
 80077e8:	9b02      	ldr	r3, [sp, #8]
 80077ea:	2b00      	cmp	r3, #0
 80077ec:	dd06      	ble.n	80077fc <__multiply+0x72>
 80077ee:	2304      	movs	r3, #4
 80077f0:	425b      	negs	r3, r3
 80077f2:	449c      	add	ip, r3
 80077f4:	4663      	mov	r3, ip
 80077f6:	681b      	ldr	r3, [r3, #0]
 80077f8:	2b00      	cmp	r3, #0
 80077fa:	d051      	beq.n	80078a0 <__multiply+0x116>
 80077fc:	9b04      	ldr	r3, [sp, #16]
 80077fe:	9a02      	ldr	r2, [sp, #8]
 8007800:	0018      	movs	r0, r3
 8007802:	611a      	str	r2, [r3, #16]
 8007804:	b009      	add	sp, #36	; 0x24
 8007806:	bdf0      	pop	{r4, r5, r6, r7, pc}
 8007808:	c302      	stmia	r3!, {r1}
 800780a:	e7dd      	b.n	80077c8 <__multiply+0x3e>
 800780c:	9b01      	ldr	r3, [sp, #4]
 800780e:	681b      	ldr	r3, [r3, #0]
 8007810:	b298      	uxth	r0, r3
 8007812:	2800      	cmp	r0, #0
 8007814:	d01c      	beq.n	8007850 <__multiply+0xc6>
 8007816:	0015      	movs	r5, r2
 8007818:	2600      	movs	r6, #0
 800781a:	9f03      	ldr	r7, [sp, #12]
 800781c:	cf02      	ldmia	r7!, {r1}
 800781e:	682c      	ldr	r4, [r5, #0]
 8007820:	b28b      	uxth	r3, r1
 8007822:	4343      	muls	r3, r0
 8007824:	0c09      	lsrs	r1, r1, #16
 8007826:	4341      	muls	r1, r0
 8007828:	b2a4      	uxth	r4, r4
 800782a:	191b      	adds	r3, r3, r4
 800782c:	199b      	adds	r3, r3, r6
 800782e:	000e      	movs	r6, r1
 8007830:	6829      	ldr	r1, [r5, #0]
 8007832:	9506      	str	r5, [sp, #24]
 8007834:	0c09      	lsrs	r1, r1, #16
 8007836:	1871      	adds	r1, r6, r1
 8007838:	0c1e      	lsrs	r6, r3, #16
 800783a:	1989      	adds	r1, r1, r6
 800783c:	0c0e      	lsrs	r6, r1, #16
 800783e:	b29b      	uxth	r3, r3
 8007840:	0409      	lsls	r1, r1, #16
 8007842:	430b      	orrs	r3, r1
 8007844:	c508      	stmia	r5!, {r3}
 8007846:	9b05      	ldr	r3, [sp, #20]
 8007848:	42bb      	cmp	r3, r7
 800784a:	d8e7      	bhi.n	800781c <__multiply+0x92>
 800784c:	9b06      	ldr	r3, [sp, #24]
 800784e:	605e      	str	r6, [r3, #4]
 8007850:	9b01      	ldr	r3, [sp, #4]
 8007852:	681b      	ldr	r3, [r3, #0]
 8007854:	0c1d      	lsrs	r5, r3, #16
 8007856:	d01e      	beq.n	8007896 <__multiply+0x10c>
 8007858:	0010      	movs	r0, r2
 800785a:	2700      	movs	r7, #0
 800785c:	6813      	ldr	r3, [r2, #0]
 800785e:	9e03      	ldr	r6, [sp, #12]
 8007860:	6831      	ldr	r1, [r6, #0]
 8007862:	6804      	ldr	r4, [r0, #0]
 8007864:	b289      	uxth	r1, r1
 8007866:	4369      	muls	r1, r5
 8007868:	0c24      	lsrs	r4, r4, #16
 800786a:	1909      	adds	r1, r1, r4
 800786c:	19c9      	adds	r1, r1, r7
 800786e:	040f      	lsls	r7, r1, #16
 8007870:	b29b      	uxth	r3, r3
 8007872:	433b      	orrs	r3, r7
 8007874:	6003      	str	r3, [r0, #0]
 8007876:	ce80      	ldmia	r6!, {r7}
 8007878:	6843      	ldr	r3, [r0, #4]
 800787a:	0c3f      	lsrs	r7, r7, #16
 800787c:	436f      	muls	r7, r5
 800787e:	b29b      	uxth	r3, r3
 8007880:	18fb      	adds	r3, r7, r3
 8007882:	0c09      	lsrs	r1, r1, #16
 8007884:	185b      	adds	r3, r3, r1
 8007886:	9905      	ldr	r1, [sp, #20]
 8007888:	9006      	str	r0, [sp, #24]
 800788a:	0c1f      	lsrs	r7, r3, #16
 800788c:	3004      	adds	r0, #4
 800788e:	42b1      	cmp	r1, r6
 8007890:	d8e6      	bhi.n	8007860 <__multiply+0xd6>
 8007892:	9906      	ldr	r1, [sp, #24]
 8007894:	604b      	str	r3, [r1, #4]
 8007896:	9b01      	ldr	r3, [sp, #4]
 8007898:	3204      	adds	r2, #4
 800789a:	3304      	adds	r3, #4
 800789c:	9301      	str	r3, [sp, #4]
 800789e:	e79f      	b.n	80077e0 <__multiply+0x56>
 80078a0:	9b02      	ldr	r3, [sp, #8]
 80078a2:	3b01      	subs	r3, #1
 80078a4:	9302      	str	r3, [sp, #8]
 80078a6:	e79f      	b.n	80077e8 <__multiply+0x5e>

080078a8 <__pow5mult>:
 80078a8:	2303      	movs	r3, #3
 80078aa:	b5f7      	push	{r0, r1, r2, r4, r5, r6, r7, lr}
 80078ac:	4013      	ands	r3, r2
 80078ae:	0005      	movs	r5, r0
 80078b0:	000e      	movs	r6, r1
 80078b2:	0014      	movs	r4, r2
 80078b4:	2b00      	cmp	r3, #0
 80078b6:	d008      	beq.n	80078ca <__pow5mult+0x22>
 80078b8:	4922      	ldr	r1, [pc, #136]	; (8007944 <__pow5mult+0x9c>)
 80078ba:	3b01      	subs	r3, #1
 80078bc:	009a      	lsls	r2, r3, #2
 80078be:	5852      	ldr	r2, [r2, r1]
 80078c0:	2300      	movs	r3, #0
 80078c2:	0031      	movs	r1, r6
 80078c4:	f7ff fed1 	bl	800766a <__multadd>
 80078c8:	0006      	movs	r6, r0
 80078ca:	10a3      	asrs	r3, r4, #2
 80078cc:	9301      	str	r3, [sp, #4]
 80078ce:	d036      	beq.n	800793e <__pow5mult+0x96>
 80078d0:	6a6c      	ldr	r4, [r5, #36]	; 0x24
 80078d2:	2c00      	cmp	r4, #0
 80078d4:	d107      	bne.n	80078e6 <__pow5mult+0x3e>
 80078d6:	2010      	movs	r0, #16
 80078d8:	f7ff fe58 	bl	800758c <malloc>
 80078dc:	6268      	str	r0, [r5, #36]	; 0x24
 80078de:	6044      	str	r4, [r0, #4]
 80078e0:	6084      	str	r4, [r0, #8]
 80078e2:	6004      	str	r4, [r0, #0]
 80078e4:	60c4      	str	r4, [r0, #12]
 80078e6:	6a6f      	ldr	r7, [r5, #36]	; 0x24
 80078e8:	68bc      	ldr	r4, [r7, #8]
 80078ea:	2c00      	cmp	r4, #0
 80078ec:	d107      	bne.n	80078fe <__pow5mult+0x56>
 80078ee:	4916      	ldr	r1, [pc, #88]	; (8007948 <__pow5mult+0xa0>)
 80078f0:	0028      	movs	r0, r5
 80078f2:	f7ff ff41 	bl	8007778 <__i2b>
 80078f6:	2300      	movs	r3, #0
 80078f8:	0004      	movs	r4, r0
 80078fa:	60b8      	str	r0, [r7, #8]
 80078fc:	6003      	str	r3, [r0, #0]
 80078fe:	2201      	movs	r2, #1
 8007900:	9b01      	ldr	r3, [sp, #4]
 8007902:	4213      	tst	r3, r2
 8007904:	d00a      	beq.n	800791c <__pow5mult+0x74>
 8007906:	0031      	movs	r1, r6
 8007908:	0022      	movs	r2, r4
 800790a:	0028      	movs	r0, r5
 800790c:	f7ff ff3d 	bl	800778a <__multiply>
 8007910:	0007      	movs	r7, r0
 8007912:	0031      	movs	r1, r6
 8007914:	0028      	movs	r0, r5
 8007916:	f7ff fe8f 	bl	8007638 <_Bfree>
 800791a:	003e      	movs	r6, r7
 800791c:	9b01      	ldr	r3, [sp, #4]
 800791e:	105b      	asrs	r3, r3, #1
 8007920:	9301      	str	r3, [sp, #4]
 8007922:	d00c      	beq.n	800793e <__pow5mult+0x96>
 8007924:	6820      	ldr	r0, [r4, #0]
 8007926:	2800      	cmp	r0, #0
 8007928:	d107      	bne.n	800793a <__pow5mult+0x92>
 800792a:	0022      	movs	r2, r4
 800792c:	0021      	movs	r1, r4
 800792e:	0028      	movs	r0, r5
 8007930:	f7ff ff2b 	bl	800778a <__multiply>
 8007934:	2300      	movs	r3, #0
 8007936:	6020      	str	r0, [r4, #0]
 8007938:	6003      	str	r3, [r0, #0]
 800793a:	0004      	movs	r4, r0
 800793c:	e7df      	b.n	80078fe <__pow5mult+0x56>
 800793e:	0030      	movs	r0, r6
 8007940:	bdfe      	pop	{r1, r2, r3, r4, r5, r6, r7, pc}
 8007942:	46c0      	nop			; (mov r8, r8)
 8007944:	08008540 	.word	0x08008540
 8007948:	00000271 	.word	0x00000271

0800794c <__lshift>:
 800794c:	b5f0      	push	{r4, r5, r6, r7, lr}
 800794e:	000d      	movs	r5, r1
 8007950:	0017      	movs	r7, r2
 8007952:	692b      	ldr	r3, [r5, #16]
 8007954:	1154      	asrs	r4, r2, #5
 8007956:	b085      	sub	sp, #20
 8007958:	18e3      	adds	r3, r4, r3
 800795a:	9301      	str	r3, [sp, #4]
 800795c:	3301      	adds	r3, #1
 800795e:	9300      	str	r3, [sp, #0]
 8007960:	6849      	ldr	r1, [r1, #4]
 8007962:	68ab      	ldr	r3, [r5, #8]
 8007964:	9002      	str	r0, [sp, #8]
 8007966:	9a00      	ldr	r2, [sp, #0]
 8007968:	4293      	cmp	r3, r2
 800796a:	db35      	blt.n	80079d8 <__lshift+0x8c>
 800796c:	9802      	ldr	r0, [sp, #8]
 800796e:	f7ff fe2b 	bl	80075c8 <_Balloc>
 8007972:	2300      	movs	r3, #0
 8007974:	0002      	movs	r2, r0
 8007976:	0006      	movs	r6, r0
 8007978:	0019      	movs	r1, r3
 800797a:	3214      	adds	r2, #20
 800797c:	42a3      	cmp	r3, r4
 800797e:	db2e      	blt.n	80079de <__lshift+0x92>
 8007980:	43e3      	mvns	r3, r4
 8007982:	17db      	asrs	r3, r3, #31
 8007984:	401c      	ands	r4, r3
 8007986:	002b      	movs	r3, r5
 8007988:	00a4      	lsls	r4, r4, #2
 800798a:	1914      	adds	r4, r2, r4
 800798c:	692a      	ldr	r2, [r5, #16]
 800798e:	3314      	adds	r3, #20
 8007990:	0092      	lsls	r2, r2, #2
 8007992:	189a      	adds	r2, r3, r2
 8007994:	4694      	mov	ip, r2
 8007996:	221f      	movs	r2, #31
 8007998:	4017      	ands	r7, r2
 800799a:	d024      	beq.n	80079e6 <__lshift+0x9a>
 800799c:	3201      	adds	r2, #1
 800799e:	1bd2      	subs	r2, r2, r7
 80079a0:	9203      	str	r2, [sp, #12]
 80079a2:	2200      	movs	r2, #0
 80079a4:	6819      	ldr	r1, [r3, #0]
 80079a6:	0020      	movs	r0, r4
 80079a8:	40b9      	lsls	r1, r7
 80079aa:	430a      	orrs	r2, r1
 80079ac:	c404      	stmia	r4!, {r2}
 80079ae:	cb04      	ldmia	r3!, {r2}
 80079b0:	9903      	ldr	r1, [sp, #12]
 80079b2:	40ca      	lsrs	r2, r1
 80079b4:	459c      	cmp	ip, r3
 80079b6:	d8f5      	bhi.n	80079a4 <__lshift+0x58>
 80079b8:	6042      	str	r2, [r0, #4]
 80079ba:	2a00      	cmp	r2, #0
 80079bc:	d002      	beq.n	80079c4 <__lshift+0x78>
 80079be:	9b01      	ldr	r3, [sp, #4]
 80079c0:	3302      	adds	r3, #2
 80079c2:	9300      	str	r3, [sp, #0]
 80079c4:	9b00      	ldr	r3, [sp, #0]
 80079c6:	9802      	ldr	r0, [sp, #8]
 80079c8:	3b01      	subs	r3, #1
 80079ca:	6133      	str	r3, [r6, #16]
 80079cc:	0029      	movs	r1, r5
 80079ce:	f7ff fe33 	bl	8007638 <_Bfree>
 80079d2:	0030      	movs	r0, r6
 80079d4:	b005      	add	sp, #20
 80079d6:	bdf0      	pop	{r4, r5, r6, r7, pc}
 80079d8:	3101      	adds	r1, #1
 80079da:	005b      	lsls	r3, r3, #1
 80079dc:	e7c3      	b.n	8007966 <__lshift+0x1a>
 80079de:	0098      	lsls	r0, r3, #2
 80079e0:	5011      	str	r1, [r2, r0]
 80079e2:	3301      	adds	r3, #1
 80079e4:	e7ca      	b.n	800797c <__lshift+0x30>
 80079e6:	cb04      	ldmia	r3!, {r2}
 80079e8:	c404      	stmia	r4!, {r2}
 80079ea:	459c      	cmp	ip, r3
 80079ec:	d8fb      	bhi.n	80079e6 <__lshift+0x9a>
 80079ee:	e7e9      	b.n	80079c4 <__lshift+0x78>

080079f0 <__mcmp>:
 80079f0:	690a      	ldr	r2, [r1, #16]
 80079f2:	6903      	ldr	r3, [r0, #16]
 80079f4:	b530      	push	{r4, r5, lr}
 80079f6:	1a9b      	subs	r3, r3, r2
 80079f8:	d10d      	bne.n	8007a16 <__mcmp+0x26>
 80079fa:	0092      	lsls	r2, r2, #2
 80079fc:	3014      	adds	r0, #20
 80079fe:	3114      	adds	r1, #20
 8007a00:	1884      	adds	r4, r0, r2
 8007a02:	1889      	adds	r1, r1, r2
 8007a04:	3c04      	subs	r4, #4
 8007a06:	3904      	subs	r1, #4
 8007a08:	6825      	ldr	r5, [r4, #0]
 8007a0a:	680a      	ldr	r2, [r1, #0]
 8007a0c:	4295      	cmp	r5, r2
 8007a0e:	d004      	beq.n	8007a1a <__mcmp+0x2a>
 8007a10:	2301      	movs	r3, #1
 8007a12:	4295      	cmp	r5, r2
 8007a14:	d304      	bcc.n	8007a20 <__mcmp+0x30>
 8007a16:	0018      	movs	r0, r3
 8007a18:	bd30      	pop	{r4, r5, pc}
 8007a1a:	42a0      	cmp	r0, r4
 8007a1c:	d3f2      	bcc.n	8007a04 <__mcmp+0x14>
 8007a1e:	e7fa      	b.n	8007a16 <__mcmp+0x26>
 8007a20:	425b      	negs	r3, r3
 8007a22:	e7f8      	b.n	8007a16 <__mcmp+0x26>

08007a24 <__mdiff>:
 8007a24:	b5f0      	push	{r4, r5, r6, r7, lr}
 8007a26:	000d      	movs	r5, r1
 8007a28:	b085      	sub	sp, #20
 8007a2a:	0007      	movs	r7, r0
 8007a2c:	0011      	movs	r1, r2
 8007a2e:	0028      	movs	r0, r5
 8007a30:	0014      	movs	r4, r2
 8007a32:	f7ff ffdd 	bl	80079f0 <__mcmp>
 8007a36:	1e06      	subs	r6, r0, #0
 8007a38:	d108      	bne.n	8007a4c <__mdiff+0x28>
 8007a3a:	0001      	movs	r1, r0
 8007a3c:	0038      	movs	r0, r7
 8007a3e:	f7ff fdc3 	bl	80075c8 <_Balloc>
 8007a42:	2301      	movs	r3, #1
 8007a44:	6146      	str	r6, [r0, #20]
 8007a46:	6103      	str	r3, [r0, #16]
 8007a48:	b005      	add	sp, #20
 8007a4a:	bdf0      	pop	{r4, r5, r6, r7, pc}
 8007a4c:	2301      	movs	r3, #1
 8007a4e:	9301      	str	r3, [sp, #4]
 8007a50:	2800      	cmp	r0, #0
 8007a52:	db04      	blt.n	8007a5e <__mdiff+0x3a>
 8007a54:	0023      	movs	r3, r4
 8007a56:	002c      	movs	r4, r5
 8007a58:	001d      	movs	r5, r3
 8007a5a:	2300      	movs	r3, #0
 8007a5c:	9301      	str	r3, [sp, #4]
 8007a5e:	6861      	ldr	r1, [r4, #4]
 8007a60:	0038      	movs	r0, r7
 8007a62:	f7ff fdb1 	bl	80075c8 <_Balloc>
 8007a66:	002f      	movs	r7, r5
 8007a68:	2200      	movs	r2, #0
 8007a6a:	9b01      	ldr	r3, [sp, #4]
 8007a6c:	6926      	ldr	r6, [r4, #16]
 8007a6e:	60c3      	str	r3, [r0, #12]
 8007a70:	3414      	adds	r4, #20
 8007a72:	00b3      	lsls	r3, r6, #2
 8007a74:	18e3      	adds	r3, r4, r3
 8007a76:	9302      	str	r3, [sp, #8]
 8007a78:	692b      	ldr	r3, [r5, #16]
 8007a7a:	3714      	adds	r7, #20
 8007a7c:	009b      	lsls	r3, r3, #2
 8007a7e:	18fb      	adds	r3, r7, r3
 8007a80:	9303      	str	r3, [sp, #12]
 8007a82:	0003      	movs	r3, r0
 8007a84:	4694      	mov	ip, r2
 8007a86:	3314      	adds	r3, #20
 8007a88:	cc20      	ldmia	r4!, {r5}
 8007a8a:	cf04      	ldmia	r7!, {r2}
 8007a8c:	9201      	str	r2, [sp, #4]
 8007a8e:	b2aa      	uxth	r2, r5
 8007a90:	4494      	add	ip, r2
 8007a92:	466a      	mov	r2, sp
 8007a94:	4661      	mov	r1, ip
 8007a96:	8892      	ldrh	r2, [r2, #4]
 8007a98:	0c2d      	lsrs	r5, r5, #16
 8007a9a:	1a8a      	subs	r2, r1, r2
 8007a9c:	9901      	ldr	r1, [sp, #4]
 8007a9e:	0c09      	lsrs	r1, r1, #16
 8007aa0:	1a69      	subs	r1, r5, r1
 8007aa2:	1415      	asrs	r5, r2, #16
 8007aa4:	1949      	adds	r1, r1, r5
 8007aa6:	140d      	asrs	r5, r1, #16
 8007aa8:	b292      	uxth	r2, r2
 8007aaa:	0409      	lsls	r1, r1, #16
 8007aac:	430a      	orrs	r2, r1
 8007aae:	601a      	str	r2, [r3, #0]
 8007ab0:	9a03      	ldr	r2, [sp, #12]
 8007ab2:	46ac      	mov	ip, r5
 8007ab4:	3304      	adds	r3, #4
 8007ab6:	42ba      	cmp	r2, r7
 8007ab8:	d8e6      	bhi.n	8007a88 <__mdiff+0x64>
 8007aba:	9902      	ldr	r1, [sp, #8]
 8007abc:	001a      	movs	r2, r3
 8007abe:	428c      	cmp	r4, r1
 8007ac0:	d305      	bcc.n	8007ace <__mdiff+0xaa>
 8007ac2:	3a04      	subs	r2, #4
 8007ac4:	6813      	ldr	r3, [r2, #0]
 8007ac6:	2b00      	cmp	r3, #0
 8007ac8:	d00e      	beq.n	8007ae8 <__mdiff+0xc4>
 8007aca:	6106      	str	r6, [r0, #16]
 8007acc:	e7bc      	b.n	8007a48 <__mdiff+0x24>
 8007ace:	cc04      	ldmia	r4!, {r2}
 8007ad0:	b291      	uxth	r1, r2
 8007ad2:	4461      	add	r1, ip
 8007ad4:	140d      	asrs	r5, r1, #16
 8007ad6:	0c12      	lsrs	r2, r2, #16
 8007ad8:	1952      	adds	r2, r2, r5
 8007ada:	1415      	asrs	r5, r2, #16
 8007adc:	b289      	uxth	r1, r1
 8007ade:	0412      	lsls	r2, r2, #16
 8007ae0:	430a      	orrs	r2, r1
 8007ae2:	46ac      	mov	ip, r5
 8007ae4:	c304      	stmia	r3!, {r2}
 8007ae6:	e7e8      	b.n	8007aba <__mdiff+0x96>
 8007ae8:	3e01      	subs	r6, #1
 8007aea:	e7ea      	b.n	8007ac2 <__mdiff+0x9e>

08007aec <__d2b>:
 8007aec:	b5f7      	push	{r0, r1, r2, r4, r5, r6, r7, lr}
 8007aee:	001d      	movs	r5, r3
 8007af0:	2101      	movs	r1, #1
 8007af2:	0014      	movs	r4, r2
 8007af4:	9f08      	ldr	r7, [sp, #32]
 8007af6:	f7ff fd67 	bl	80075c8 <_Balloc>
 8007afa:	032b      	lsls	r3, r5, #12
 8007afc:	006d      	lsls	r5, r5, #1
 8007afe:	0006      	movs	r6, r0
 8007b00:	0b1b      	lsrs	r3, r3, #12
 8007b02:	0d6d      	lsrs	r5, r5, #21
 8007b04:	d124      	bne.n	8007b50 <__d2b+0x64>
 8007b06:	9301      	str	r3, [sp, #4]
 8007b08:	2c00      	cmp	r4, #0
 8007b0a:	d027      	beq.n	8007b5c <__d2b+0x70>
 8007b0c:	4668      	mov	r0, sp
 8007b0e:	9400      	str	r4, [sp, #0]
 8007b10:	f7ff fe03 	bl	800771a <__lo0bits>
 8007b14:	9c00      	ldr	r4, [sp, #0]
 8007b16:	2800      	cmp	r0, #0
 8007b18:	d01e      	beq.n	8007b58 <__d2b+0x6c>
 8007b1a:	9b01      	ldr	r3, [sp, #4]
 8007b1c:	2120      	movs	r1, #32
 8007b1e:	001a      	movs	r2, r3
 8007b20:	1a09      	subs	r1, r1, r0
 8007b22:	408a      	lsls	r2, r1
 8007b24:	40c3      	lsrs	r3, r0
 8007b26:	4322      	orrs	r2, r4
 8007b28:	6172      	str	r2, [r6, #20]
 8007b2a:	9301      	str	r3, [sp, #4]
 8007b2c:	9c01      	ldr	r4, [sp, #4]
 8007b2e:	61b4      	str	r4, [r6, #24]
 8007b30:	1e63      	subs	r3, r4, #1
 8007b32:	419c      	sbcs	r4, r3
 8007b34:	3401      	adds	r4, #1
 8007b36:	6134      	str	r4, [r6, #16]
 8007b38:	2d00      	cmp	r5, #0
 8007b3a:	d018      	beq.n	8007b6e <__d2b+0x82>
 8007b3c:	4b12      	ldr	r3, [pc, #72]	; (8007b88 <__d2b+0x9c>)
 8007b3e:	18ed      	adds	r5, r5, r3
 8007b40:	2335      	movs	r3, #53	; 0x35
 8007b42:	182d      	adds	r5, r5, r0
 8007b44:	603d      	str	r5, [r7, #0]
 8007b46:	1a18      	subs	r0, r3, r0
 8007b48:	9b09      	ldr	r3, [sp, #36]	; 0x24
 8007b4a:	6018      	str	r0, [r3, #0]
 8007b4c:	0030      	movs	r0, r6
 8007b4e:	bdfe      	pop	{r1, r2, r3, r4, r5, r6, r7, pc}
 8007b50:	2280      	movs	r2, #128	; 0x80
 8007b52:	0352      	lsls	r2, r2, #13
 8007b54:	4313      	orrs	r3, r2
 8007b56:	e7d6      	b.n	8007b06 <__d2b+0x1a>
 8007b58:	6174      	str	r4, [r6, #20]
 8007b5a:	e7e7      	b.n	8007b2c <__d2b+0x40>
 8007b5c:	a801      	add	r0, sp, #4
 8007b5e:	f7ff fddc 	bl	800771a <__lo0bits>
 8007b62:	2401      	movs	r4, #1
 8007b64:	9b01      	ldr	r3, [sp, #4]
 8007b66:	6134      	str	r4, [r6, #16]
 8007b68:	6173      	str	r3, [r6, #20]
 8007b6a:	3020      	adds	r0, #32
 8007b6c:	e7e4      	b.n	8007b38 <__d2b+0x4c>
 8007b6e:	4b07      	ldr	r3, [pc, #28]	; (8007b8c <__d2b+0xa0>)
 8007b70:	18c0      	adds	r0, r0, r3
 8007b72:	4b07      	ldr	r3, [pc, #28]	; (8007b90 <__d2b+0xa4>)
 8007b74:	6038      	str	r0, [r7, #0]
 8007b76:	18e3      	adds	r3, r4, r3
 8007b78:	009b      	lsls	r3, r3, #2
 8007b7a:	18f3      	adds	r3, r6, r3
 8007b7c:	6958      	ldr	r0, [r3, #20]
 8007b7e:	f7ff fdb2 	bl	80076e6 <__hi0bits>
 8007b82:	0164      	lsls	r4, r4, #5
 8007b84:	1a20      	subs	r0, r4, r0
 8007b86:	e7df      	b.n	8007b48 <__d2b+0x5c>
 8007b88:	fffffbcd 	.word	0xfffffbcd
 8007b8c:	fffffbce 	.word	0xfffffbce
 8007b90:	3fffffff 	.word	0x3fffffff

08007b94 <_calloc_r>:
 8007b94:	434a      	muls	r2, r1
 8007b96:	b570      	push	{r4, r5, r6, lr}
 8007b98:	0011      	movs	r1, r2
 8007b9a:	0014      	movs	r4, r2
 8007b9c:	f000 f852 	bl	8007c44 <_malloc_r>
 8007ba0:	1e05      	subs	r5, r0, #0
 8007ba2:	d003      	beq.n	8007bac <_calloc_r+0x18>
 8007ba4:	0022      	movs	r2, r4
 8007ba6:	2100      	movs	r1, #0
 8007ba8:	f7fe f9c6 	bl	8005f38 <memset>
 8007bac:	0028      	movs	r0, r5
 8007bae:	bd70      	pop	{r4, r5, r6, pc}

08007bb0 <_free_r>:
 8007bb0:	b570      	push	{r4, r5, r6, lr}
 8007bb2:	0005      	movs	r5, r0
 8007bb4:	2900      	cmp	r1, #0
 8007bb6:	d010      	beq.n	8007bda <_free_r+0x2a>
 8007bb8:	1f0c      	subs	r4, r1, #4
 8007bba:	6823      	ldr	r3, [r4, #0]
 8007bbc:	2b00      	cmp	r3, #0
 8007bbe:	da00      	bge.n	8007bc2 <_free_r+0x12>
 8007bc0:	18e4      	adds	r4, r4, r3
 8007bc2:	0028      	movs	r0, r5
 8007bc4:	f000 fa33 	bl	800802e <__malloc_lock>
 8007bc8:	4a1d      	ldr	r2, [pc, #116]	; (8007c40 <_free_r+0x90>)
 8007bca:	6813      	ldr	r3, [r2, #0]
 8007bcc:	2b00      	cmp	r3, #0
 8007bce:	d105      	bne.n	8007bdc <_free_r+0x2c>
 8007bd0:	6063      	str	r3, [r4, #4]
 8007bd2:	6014      	str	r4, [r2, #0]
 8007bd4:	0028      	movs	r0, r5
 8007bd6:	f000 fa2b 	bl	8008030 <__malloc_unlock>
 8007bda:	bd70      	pop	{r4, r5, r6, pc}
 8007bdc:	42a3      	cmp	r3, r4
 8007bde:	d909      	bls.n	8007bf4 <_free_r+0x44>
 8007be0:	6821      	ldr	r1, [r4, #0]
 8007be2:	1860      	adds	r0, r4, r1
 8007be4:	4283      	cmp	r3, r0
 8007be6:	d1f3      	bne.n	8007bd0 <_free_r+0x20>
 8007be8:	6818      	ldr	r0, [r3, #0]
 8007bea:	685b      	ldr	r3, [r3, #4]
 8007bec:	1841      	adds	r1, r0, r1
 8007bee:	6021      	str	r1, [r4, #0]
 8007bf0:	e7ee      	b.n	8007bd0 <_free_r+0x20>
 8007bf2:	0013      	movs	r3, r2
 8007bf4:	685a      	ldr	r2, [r3, #4]
 8007bf6:	2a00      	cmp	r2, #0
 8007bf8:	d001      	beq.n	8007bfe <_free_r+0x4e>
 8007bfa:	42a2      	cmp	r2, r4
 8007bfc:	d9f9      	bls.n	8007bf2 <_free_r+0x42>
 8007bfe:	6819      	ldr	r1, [r3, #0]
 8007c00:	1858      	adds	r0, r3, r1
 8007c02:	42a0      	cmp	r0, r4
 8007c04:	d10b      	bne.n	8007c1e <_free_r+0x6e>
 8007c06:	6820      	ldr	r0, [r4, #0]
 8007c08:	1809      	adds	r1, r1, r0
 8007c0a:	1858      	adds	r0, r3, r1
 8007c0c:	6019      	str	r1, [r3, #0]
 8007c0e:	4282      	cmp	r2, r0
 8007c10:	d1e0      	bne.n	8007bd4 <_free_r+0x24>
 8007c12:	6810      	ldr	r0, [r2, #0]
 8007c14:	6852      	ldr	r2, [r2, #4]
 8007c16:	1841      	adds	r1, r0, r1
 8007c18:	6019      	str	r1, [r3, #0]
 8007c1a:	605a      	str	r2, [r3, #4]
 8007c1c:	e7da      	b.n	8007bd4 <_free_r+0x24>
 8007c1e:	42a0      	cmp	r0, r4
 8007c20:	d902      	bls.n	8007c28 <_free_r+0x78>
 8007c22:	230c      	movs	r3, #12
 8007c24:	602b      	str	r3, [r5, #0]
 8007c26:	e7d5      	b.n	8007bd4 <_free_r+0x24>
 8007c28:	6821      	ldr	r1, [r4, #0]
 8007c2a:	1860      	adds	r0, r4, r1
 8007c2c:	4282      	cmp	r2, r0
 8007c2e:	d103      	bne.n	8007c38 <_free_r+0x88>
 8007c30:	6810      	ldr	r0, [r2, #0]
 8007c32:	6852      	ldr	r2, [r2, #4]
 8007c34:	1841      	adds	r1, r0, r1
 8007c36:	6021      	str	r1, [r4, #0]
 8007c38:	6062      	str	r2, [r4, #4]
 8007c3a:	605c      	str	r4, [r3, #4]
 8007c3c:	e7ca      	b.n	8007bd4 <_free_r+0x24>
 8007c3e:	46c0      	nop			; (mov r8, r8)
 8007c40:	2000020c 	.word	0x2000020c

08007c44 <_malloc_r>:
 8007c44:	2303      	movs	r3, #3
 8007c46:	b570      	push	{r4, r5, r6, lr}
 8007c48:	1ccd      	adds	r5, r1, #3
 8007c4a:	439d      	bics	r5, r3
 8007c4c:	3508      	adds	r5, #8
 8007c4e:	0006      	movs	r6, r0
 8007c50:	2d0c      	cmp	r5, #12
 8007c52:	d21e      	bcs.n	8007c92 <_malloc_r+0x4e>
 8007c54:	250c      	movs	r5, #12
 8007c56:	42a9      	cmp	r1, r5
 8007c58:	d81d      	bhi.n	8007c96 <_malloc_r+0x52>
 8007c5a:	0030      	movs	r0, r6
 8007c5c:	f000 f9e7 	bl	800802e <__malloc_lock>
 8007c60:	4a25      	ldr	r2, [pc, #148]	; (8007cf8 <_malloc_r+0xb4>)
 8007c62:	6814      	ldr	r4, [r2, #0]
 8007c64:	0021      	movs	r1, r4
 8007c66:	2900      	cmp	r1, #0
 8007c68:	d119      	bne.n	8007c9e <_malloc_r+0x5a>
 8007c6a:	4c24      	ldr	r4, [pc, #144]	; (8007cfc <_malloc_r+0xb8>)
 8007c6c:	6823      	ldr	r3, [r4, #0]
 8007c6e:	2b00      	cmp	r3, #0
 8007c70:	d103      	bne.n	8007c7a <_malloc_r+0x36>
 8007c72:	0030      	movs	r0, r6
 8007c74:	f000 f9a4 	bl	8007fc0 <_sbrk_r>
 8007c78:	6020      	str	r0, [r4, #0]
 8007c7a:	0029      	movs	r1, r5
 8007c7c:	0030      	movs	r0, r6
 8007c7e:	f000 f99f 	bl	8007fc0 <_sbrk_r>
 8007c82:	1c43      	adds	r3, r0, #1
 8007c84:	d12b      	bne.n	8007cde <_malloc_r+0x9a>
 8007c86:	230c      	movs	r3, #12
 8007c88:	0030      	movs	r0, r6
 8007c8a:	6033      	str	r3, [r6, #0]
 8007c8c:	f000 f9d0 	bl	8008030 <__malloc_unlock>
 8007c90:	e003      	b.n	8007c9a <_malloc_r+0x56>
 8007c92:	2d00      	cmp	r5, #0
 8007c94:	dadf      	bge.n	8007c56 <_malloc_r+0x12>
 8007c96:	230c      	movs	r3, #12
 8007c98:	6033      	str	r3, [r6, #0]
 8007c9a:	2000      	movs	r0, #0
 8007c9c:	bd70      	pop	{r4, r5, r6, pc}
 8007c9e:	680b      	ldr	r3, [r1, #0]
 8007ca0:	1b5b      	subs	r3, r3, r5
 8007ca2:	d419      	bmi.n	8007cd8 <_malloc_r+0x94>
 8007ca4:	2b0b      	cmp	r3, #11
 8007ca6:	d903      	bls.n	8007cb0 <_malloc_r+0x6c>
 8007ca8:	600b      	str	r3, [r1, #0]
 8007caa:	18cc      	adds	r4, r1, r3
 8007cac:	6025      	str	r5, [r4, #0]
 8007cae:	e003      	b.n	8007cb8 <_malloc_r+0x74>
 8007cb0:	684b      	ldr	r3, [r1, #4]
 8007cb2:	428c      	cmp	r4, r1
 8007cb4:	d10d      	bne.n	8007cd2 <_malloc_r+0x8e>
 8007cb6:	6013      	str	r3, [r2, #0]
 8007cb8:	0030      	movs	r0, r6
 8007cba:	f000 f9b9 	bl	8008030 <__malloc_unlock>
 8007cbe:	0020      	movs	r0, r4
 8007cc0:	2207      	movs	r2, #7
 8007cc2:	300b      	adds	r0, #11
 8007cc4:	1d23      	adds	r3, r4, #4
 8007cc6:	4390      	bics	r0, r2
 8007cc8:	1ac3      	subs	r3, r0, r3
 8007cca:	d0e7      	beq.n	8007c9c <_malloc_r+0x58>
 8007ccc:	425a      	negs	r2, r3
 8007cce:	50e2      	str	r2, [r4, r3]
 8007cd0:	e7e4      	b.n	8007c9c <_malloc_r+0x58>
 8007cd2:	6063      	str	r3, [r4, #4]
 8007cd4:	000c      	movs	r4, r1
 8007cd6:	e7ef      	b.n	8007cb8 <_malloc_r+0x74>
 8007cd8:	000c      	movs	r4, r1
 8007cda:	6849      	ldr	r1, [r1, #4]
 8007cdc:	e7c3      	b.n	8007c66 <_malloc_r+0x22>
 8007cde:	2303      	movs	r3, #3
 8007ce0:	1cc4      	adds	r4, r0, #3
 8007ce2:	439c      	bics	r4, r3
 8007ce4:	42a0      	cmp	r0, r4
 8007ce6:	d0e1      	beq.n	8007cac <_malloc_r+0x68>
 8007ce8:	1a21      	subs	r1, r4, r0
 8007cea:	0030      	movs	r0, r6
 8007cec:	f000 f968 	bl	8007fc0 <_sbrk_r>
 8007cf0:	1c43      	adds	r3, r0, #1
 8007cf2:	d1db      	bne.n	8007cac <_malloc_r+0x68>
 8007cf4:	e7c7      	b.n	8007c86 <_malloc_r+0x42>
 8007cf6:	46c0      	nop			; (mov r8, r8)
 8007cf8:	2000020c 	.word	0x2000020c
 8007cfc:	20000210 	.word	0x20000210

08007d00 <__ssputs_r>:
 8007d00:	b5f0      	push	{r4, r5, r6, r7, lr}
 8007d02:	688e      	ldr	r6, [r1, #8]
 8007d04:	b085      	sub	sp, #20
 8007d06:	0007      	movs	r7, r0
 8007d08:	000c      	movs	r4, r1
 8007d0a:	9203      	str	r2, [sp, #12]
 8007d0c:	9301      	str	r3, [sp, #4]
 8007d0e:	429e      	cmp	r6, r3
 8007d10:	d83c      	bhi.n	8007d8c <__ssputs_r+0x8c>
 8007d12:	2390      	movs	r3, #144	; 0x90
 8007d14:	898a      	ldrh	r2, [r1, #12]
 8007d16:	00db      	lsls	r3, r3, #3
 8007d18:	421a      	tst	r2, r3
 8007d1a:	d034      	beq.n	8007d86 <__ssputs_r+0x86>
 8007d1c:	2503      	movs	r5, #3
 8007d1e:	6909      	ldr	r1, [r1, #16]
 8007d20:	6823      	ldr	r3, [r4, #0]
 8007d22:	1a5b      	subs	r3, r3, r1
 8007d24:	9302      	str	r3, [sp, #8]
 8007d26:	6963      	ldr	r3, [r4, #20]
 8007d28:	9802      	ldr	r0, [sp, #8]
 8007d2a:	435d      	muls	r5, r3
 8007d2c:	0feb      	lsrs	r3, r5, #31
 8007d2e:	195d      	adds	r5, r3, r5
 8007d30:	9b01      	ldr	r3, [sp, #4]
 8007d32:	106d      	asrs	r5, r5, #1
 8007d34:	3301      	adds	r3, #1
 8007d36:	181b      	adds	r3, r3, r0
 8007d38:	42ab      	cmp	r3, r5
 8007d3a:	d900      	bls.n	8007d3e <__ssputs_r+0x3e>
 8007d3c:	001d      	movs	r5, r3
 8007d3e:	0553      	lsls	r3, r2, #21
 8007d40:	d532      	bpl.n	8007da8 <__ssputs_r+0xa8>
 8007d42:	0029      	movs	r1, r5
 8007d44:	0038      	movs	r0, r7
 8007d46:	f7ff ff7d 	bl	8007c44 <_malloc_r>
 8007d4a:	1e06      	subs	r6, r0, #0
 8007d4c:	d109      	bne.n	8007d62 <__ssputs_r+0x62>
 8007d4e:	230c      	movs	r3, #12
 8007d50:	603b      	str	r3, [r7, #0]
 8007d52:	2340      	movs	r3, #64	; 0x40
 8007d54:	2001      	movs	r0, #1
 8007d56:	89a2      	ldrh	r2, [r4, #12]
 8007d58:	4240      	negs	r0, r0
 8007d5a:	4313      	orrs	r3, r2
 8007d5c:	81a3      	strh	r3, [r4, #12]
 8007d5e:	b005      	add	sp, #20
 8007d60:	bdf0      	pop	{r4, r5, r6, r7, pc}
 8007d62:	9a02      	ldr	r2, [sp, #8]
 8007d64:	6921      	ldr	r1, [r4, #16]
 8007d66:	f7ff fc26 	bl	80075b6 <memcpy>
 8007d6a:	89a3      	ldrh	r3, [r4, #12]
 8007d6c:	4a14      	ldr	r2, [pc, #80]	; (8007dc0 <__ssputs_r+0xc0>)
 8007d6e:	401a      	ands	r2, r3
 8007d70:	2380      	movs	r3, #128	; 0x80
 8007d72:	4313      	orrs	r3, r2
 8007d74:	81a3      	strh	r3, [r4, #12]
 8007d76:	9b02      	ldr	r3, [sp, #8]
 8007d78:	6126      	str	r6, [r4, #16]
 8007d7a:	18f6      	adds	r6, r6, r3
 8007d7c:	6026      	str	r6, [r4, #0]
 8007d7e:	6165      	str	r5, [r4, #20]
 8007d80:	9e01      	ldr	r6, [sp, #4]
 8007d82:	1aed      	subs	r5, r5, r3
 8007d84:	60a5      	str	r5, [r4, #8]
 8007d86:	9b01      	ldr	r3, [sp, #4]
 8007d88:	429e      	cmp	r6, r3
 8007d8a:	d900      	bls.n	8007d8e <__ssputs_r+0x8e>
 8007d8c:	9e01      	ldr	r6, [sp, #4]
 8007d8e:	0032      	movs	r2, r6
 8007d90:	9903      	ldr	r1, [sp, #12]
 8007d92:	6820      	ldr	r0, [r4, #0]
 8007d94:	f000 f938 	bl	8008008 <memmove>
 8007d98:	68a3      	ldr	r3, [r4, #8]
 8007d9a:	2000      	movs	r0, #0
 8007d9c:	1b9b      	subs	r3, r3, r6
 8007d9e:	60a3      	str	r3, [r4, #8]
 8007da0:	6823      	ldr	r3, [r4, #0]
 8007da2:	199e      	adds	r6, r3, r6
 8007da4:	6026      	str	r6, [r4, #0]
 8007da6:	e7da      	b.n	8007d5e <__ssputs_r+0x5e>
 8007da8:	002a      	movs	r2, r5
 8007daa:	0038      	movs	r0, r7
 8007dac:	f000 f941 	bl	8008032 <_realloc_r>
 8007db0:	1e06      	subs	r6, r0, #0
 8007db2:	d1e0      	bne.n	8007d76 <__ssputs_r+0x76>
 8007db4:	6921      	ldr	r1, [r4, #16]
 8007db6:	0038      	movs	r0, r7
 8007db8:	f7ff fefa 	bl	8007bb0 <_free_r>
 8007dbc:	e7c7      	b.n	8007d4e <__ssputs_r+0x4e>
 8007dbe:	46c0      	nop			; (mov r8, r8)
 8007dc0:	fffffb7f 	.word	0xfffffb7f

08007dc4 <_svfiprintf_r>:
 8007dc4:	b5f0      	push	{r4, r5, r6, r7, lr}
 8007dc6:	b0a1      	sub	sp, #132	; 0x84
 8007dc8:	9003      	str	r0, [sp, #12]
 8007dca:	001d      	movs	r5, r3
 8007dcc:	898b      	ldrh	r3, [r1, #12]
 8007dce:	000f      	movs	r7, r1
 8007dd0:	0016      	movs	r6, r2
 8007dd2:	061b      	lsls	r3, r3, #24
 8007dd4:	d511      	bpl.n	8007dfa <_svfiprintf_r+0x36>
 8007dd6:	690b      	ldr	r3, [r1, #16]
 8007dd8:	2b00      	cmp	r3, #0
 8007dda:	d10e      	bne.n	8007dfa <_svfiprintf_r+0x36>
 8007ddc:	2140      	movs	r1, #64	; 0x40
 8007dde:	f7ff ff31 	bl	8007c44 <_malloc_r>
 8007de2:	6038      	str	r0, [r7, #0]
 8007de4:	6138      	str	r0, [r7, #16]
 8007de6:	2800      	cmp	r0, #0
 8007de8:	d105      	bne.n	8007df6 <_svfiprintf_r+0x32>
 8007dea:	230c      	movs	r3, #12
 8007dec:	9a03      	ldr	r2, [sp, #12]
 8007dee:	3801      	subs	r0, #1
 8007df0:	6013      	str	r3, [r2, #0]
 8007df2:	b021      	add	sp, #132	; 0x84
 8007df4:	bdf0      	pop	{r4, r5, r6, r7, pc}
 8007df6:	2340      	movs	r3, #64	; 0x40
 8007df8:	617b      	str	r3, [r7, #20]
 8007dfa:	2300      	movs	r3, #0
 8007dfc:	ac08      	add	r4, sp, #32
 8007dfe:	6163      	str	r3, [r4, #20]
 8007e00:	3320      	adds	r3, #32
 8007e02:	7663      	strb	r3, [r4, #25]
 8007e04:	3310      	adds	r3, #16
 8007e06:	76a3      	strb	r3, [r4, #26]
 8007e08:	9507      	str	r5, [sp, #28]
 8007e0a:	0035      	movs	r5, r6
 8007e0c:	782b      	ldrb	r3, [r5, #0]
 8007e0e:	2b00      	cmp	r3, #0
 8007e10:	d001      	beq.n	8007e16 <_svfiprintf_r+0x52>
 8007e12:	2b25      	cmp	r3, #37	; 0x25
 8007e14:	d146      	bne.n	8007ea4 <_svfiprintf_r+0xe0>
 8007e16:	1bab      	subs	r3, r5, r6
 8007e18:	9305      	str	r3, [sp, #20]
 8007e1a:	d00c      	beq.n	8007e36 <_svfiprintf_r+0x72>
 8007e1c:	0032      	movs	r2, r6
 8007e1e:	0039      	movs	r1, r7
 8007e20:	9803      	ldr	r0, [sp, #12]
 8007e22:	f7ff ff6d 	bl	8007d00 <__ssputs_r>
 8007e26:	1c43      	adds	r3, r0, #1
 8007e28:	d100      	bne.n	8007e2c <_svfiprintf_r+0x68>
 8007e2a:	e0ae      	b.n	8007f8a <_svfiprintf_r+0x1c6>
 8007e2c:	6962      	ldr	r2, [r4, #20]
 8007e2e:	9b05      	ldr	r3, [sp, #20]
 8007e30:	4694      	mov	ip, r2
 8007e32:	4463      	add	r3, ip
 8007e34:	6163      	str	r3, [r4, #20]
 8007e36:	782b      	ldrb	r3, [r5, #0]
 8007e38:	2b00      	cmp	r3, #0
 8007e3a:	d100      	bne.n	8007e3e <_svfiprintf_r+0x7a>
 8007e3c:	e0a5      	b.n	8007f8a <_svfiprintf_r+0x1c6>
 8007e3e:	2201      	movs	r2, #1
 8007e40:	2300      	movs	r3, #0
 8007e42:	4252      	negs	r2, r2
 8007e44:	6062      	str	r2, [r4, #4]
 8007e46:	a904      	add	r1, sp, #16
 8007e48:	3254      	adds	r2, #84	; 0x54
 8007e4a:	1852      	adds	r2, r2, r1
 8007e4c:	1c6e      	adds	r6, r5, #1
 8007e4e:	6023      	str	r3, [r4, #0]
 8007e50:	60e3      	str	r3, [r4, #12]
 8007e52:	60a3      	str	r3, [r4, #8]
 8007e54:	7013      	strb	r3, [r2, #0]
 8007e56:	65a3      	str	r3, [r4, #88]	; 0x58
 8007e58:	7831      	ldrb	r1, [r6, #0]
 8007e5a:	2205      	movs	r2, #5
 8007e5c:	4853      	ldr	r0, [pc, #332]	; (8007fac <_svfiprintf_r+0x1e8>)
 8007e5e:	f7ff fb9f 	bl	80075a0 <memchr>
 8007e62:	1c75      	adds	r5, r6, #1
 8007e64:	2800      	cmp	r0, #0
 8007e66:	d11f      	bne.n	8007ea8 <_svfiprintf_r+0xe4>
 8007e68:	6822      	ldr	r2, [r4, #0]
 8007e6a:	06d3      	lsls	r3, r2, #27
 8007e6c:	d504      	bpl.n	8007e78 <_svfiprintf_r+0xb4>
 8007e6e:	2353      	movs	r3, #83	; 0x53
 8007e70:	a904      	add	r1, sp, #16
 8007e72:	185b      	adds	r3, r3, r1
 8007e74:	2120      	movs	r1, #32
 8007e76:	7019      	strb	r1, [r3, #0]
 8007e78:	0713      	lsls	r3, r2, #28
 8007e7a:	d504      	bpl.n	8007e86 <_svfiprintf_r+0xc2>
 8007e7c:	2353      	movs	r3, #83	; 0x53
 8007e7e:	a904      	add	r1, sp, #16
 8007e80:	185b      	adds	r3, r3, r1
 8007e82:	212b      	movs	r1, #43	; 0x2b
 8007e84:	7019      	strb	r1, [r3, #0]
 8007e86:	7833      	ldrb	r3, [r6, #0]
 8007e88:	2b2a      	cmp	r3, #42	; 0x2a
 8007e8a:	d016      	beq.n	8007eba <_svfiprintf_r+0xf6>
 8007e8c:	0035      	movs	r5, r6
 8007e8e:	2100      	movs	r1, #0
 8007e90:	200a      	movs	r0, #10
 8007e92:	68e3      	ldr	r3, [r4, #12]
 8007e94:	782a      	ldrb	r2, [r5, #0]
 8007e96:	1c6e      	adds	r6, r5, #1
 8007e98:	3a30      	subs	r2, #48	; 0x30
 8007e9a:	2a09      	cmp	r2, #9
 8007e9c:	d94e      	bls.n	8007f3c <_svfiprintf_r+0x178>
 8007e9e:	2900      	cmp	r1, #0
 8007ea0:	d018      	beq.n	8007ed4 <_svfiprintf_r+0x110>
 8007ea2:	e010      	b.n	8007ec6 <_svfiprintf_r+0x102>
 8007ea4:	3501      	adds	r5, #1
 8007ea6:	e7b1      	b.n	8007e0c <_svfiprintf_r+0x48>
 8007ea8:	4b40      	ldr	r3, [pc, #256]	; (8007fac <_svfiprintf_r+0x1e8>)
 8007eaa:	6822      	ldr	r2, [r4, #0]
 8007eac:	1ac0      	subs	r0, r0, r3
 8007eae:	2301      	movs	r3, #1
 8007eb0:	4083      	lsls	r3, r0
 8007eb2:	4313      	orrs	r3, r2
 8007eb4:	6023      	str	r3, [r4, #0]
 8007eb6:	002e      	movs	r6, r5
 8007eb8:	e7ce      	b.n	8007e58 <_svfiprintf_r+0x94>
 8007eba:	9b07      	ldr	r3, [sp, #28]
 8007ebc:	1d19      	adds	r1, r3, #4
 8007ebe:	681b      	ldr	r3, [r3, #0]
 8007ec0:	9107      	str	r1, [sp, #28]
 8007ec2:	2b00      	cmp	r3, #0
 8007ec4:	db01      	blt.n	8007eca <_svfiprintf_r+0x106>
 8007ec6:	930b      	str	r3, [sp, #44]	; 0x2c
 8007ec8:	e004      	b.n	8007ed4 <_svfiprintf_r+0x110>
 8007eca:	425b      	negs	r3, r3
 8007ecc:	60e3      	str	r3, [r4, #12]
 8007ece:	2302      	movs	r3, #2
 8007ed0:	4313      	orrs	r3, r2
 8007ed2:	6023      	str	r3, [r4, #0]
 8007ed4:	782b      	ldrb	r3, [r5, #0]
 8007ed6:	2b2e      	cmp	r3, #46	; 0x2e
 8007ed8:	d10a      	bne.n	8007ef0 <_svfiprintf_r+0x12c>
 8007eda:	786b      	ldrb	r3, [r5, #1]
 8007edc:	2b2a      	cmp	r3, #42	; 0x2a
 8007ede:	d135      	bne.n	8007f4c <_svfiprintf_r+0x188>
 8007ee0:	9b07      	ldr	r3, [sp, #28]
 8007ee2:	3502      	adds	r5, #2
 8007ee4:	1d1a      	adds	r2, r3, #4
 8007ee6:	681b      	ldr	r3, [r3, #0]
 8007ee8:	9207      	str	r2, [sp, #28]
 8007eea:	2b00      	cmp	r3, #0
 8007eec:	db2b      	blt.n	8007f46 <_svfiprintf_r+0x182>
 8007eee:	9309      	str	r3, [sp, #36]	; 0x24
 8007ef0:	4e2f      	ldr	r6, [pc, #188]	; (8007fb0 <_svfiprintf_r+0x1ec>)
 8007ef2:	7829      	ldrb	r1, [r5, #0]
 8007ef4:	2203      	movs	r2, #3
 8007ef6:	0030      	movs	r0, r6
 8007ef8:	f7ff fb52 	bl	80075a0 <memchr>
 8007efc:	2800      	cmp	r0, #0
 8007efe:	d006      	beq.n	8007f0e <_svfiprintf_r+0x14a>
 8007f00:	2340      	movs	r3, #64	; 0x40
 8007f02:	1b80      	subs	r0, r0, r6
 8007f04:	4083      	lsls	r3, r0
 8007f06:	6822      	ldr	r2, [r4, #0]
 8007f08:	3501      	adds	r5, #1
 8007f0a:	4313      	orrs	r3, r2
 8007f0c:	6023      	str	r3, [r4, #0]
 8007f0e:	7829      	ldrb	r1, [r5, #0]
 8007f10:	2206      	movs	r2, #6
 8007f12:	4828      	ldr	r0, [pc, #160]	; (8007fb4 <_svfiprintf_r+0x1f0>)
 8007f14:	1c6e      	adds	r6, r5, #1
 8007f16:	7621      	strb	r1, [r4, #24]
 8007f18:	f7ff fb42 	bl	80075a0 <memchr>
 8007f1c:	2800      	cmp	r0, #0
 8007f1e:	d03c      	beq.n	8007f9a <_svfiprintf_r+0x1d6>
 8007f20:	4b25      	ldr	r3, [pc, #148]	; (8007fb8 <_svfiprintf_r+0x1f4>)
 8007f22:	2b00      	cmp	r3, #0
 8007f24:	d125      	bne.n	8007f72 <_svfiprintf_r+0x1ae>
 8007f26:	2207      	movs	r2, #7
 8007f28:	9b07      	ldr	r3, [sp, #28]
 8007f2a:	3307      	adds	r3, #7
 8007f2c:	4393      	bics	r3, r2
 8007f2e:	3308      	adds	r3, #8
 8007f30:	9307      	str	r3, [sp, #28]
 8007f32:	6963      	ldr	r3, [r4, #20]
 8007f34:	9a04      	ldr	r2, [sp, #16]
 8007f36:	189b      	adds	r3, r3, r2
 8007f38:	6163      	str	r3, [r4, #20]
 8007f3a:	e766      	b.n	8007e0a <_svfiprintf_r+0x46>
 8007f3c:	4343      	muls	r3, r0
 8007f3e:	2101      	movs	r1, #1
 8007f40:	189b      	adds	r3, r3, r2
 8007f42:	0035      	movs	r5, r6
 8007f44:	e7a6      	b.n	8007e94 <_svfiprintf_r+0xd0>
 8007f46:	2301      	movs	r3, #1
 8007f48:	425b      	negs	r3, r3
 8007f4a:	e7d0      	b.n	8007eee <_svfiprintf_r+0x12a>
 8007f4c:	2300      	movs	r3, #0
 8007f4e:	200a      	movs	r0, #10
 8007f50:	001a      	movs	r2, r3
 8007f52:	3501      	adds	r5, #1
 8007f54:	6063      	str	r3, [r4, #4]
 8007f56:	7829      	ldrb	r1, [r5, #0]
 8007f58:	1c6e      	adds	r6, r5, #1
 8007f5a:	3930      	subs	r1, #48	; 0x30
 8007f5c:	2909      	cmp	r1, #9
 8007f5e:	d903      	bls.n	8007f68 <_svfiprintf_r+0x1a4>
 8007f60:	2b00      	cmp	r3, #0
 8007f62:	d0c5      	beq.n	8007ef0 <_svfiprintf_r+0x12c>
 8007f64:	9209      	str	r2, [sp, #36]	; 0x24
 8007f66:	e7c3      	b.n	8007ef0 <_svfiprintf_r+0x12c>
 8007f68:	4342      	muls	r2, r0
 8007f6a:	2301      	movs	r3, #1
 8007f6c:	1852      	adds	r2, r2, r1
 8007f6e:	0035      	movs	r5, r6
 8007f70:	e7f1      	b.n	8007f56 <_svfiprintf_r+0x192>
 8007f72:	ab07      	add	r3, sp, #28
 8007f74:	9300      	str	r3, [sp, #0]
 8007f76:	003a      	movs	r2, r7
 8007f78:	4b10      	ldr	r3, [pc, #64]	; (8007fbc <_svfiprintf_r+0x1f8>)
 8007f7a:	0021      	movs	r1, r4
 8007f7c:	9803      	ldr	r0, [sp, #12]
 8007f7e:	f7fe f87f 	bl	8006080 <_printf_float>
 8007f82:	9004      	str	r0, [sp, #16]
 8007f84:	9b04      	ldr	r3, [sp, #16]
 8007f86:	3301      	adds	r3, #1
 8007f88:	d1d3      	bne.n	8007f32 <_svfiprintf_r+0x16e>
 8007f8a:	89bb      	ldrh	r3, [r7, #12]
 8007f8c:	980d      	ldr	r0, [sp, #52]	; 0x34
 8007f8e:	065b      	lsls	r3, r3, #25
 8007f90:	d400      	bmi.n	8007f94 <_svfiprintf_r+0x1d0>
 8007f92:	e72e      	b.n	8007df2 <_svfiprintf_r+0x2e>
 8007f94:	2001      	movs	r0, #1
 8007f96:	4240      	negs	r0, r0
 8007f98:	e72b      	b.n	8007df2 <_svfiprintf_r+0x2e>
 8007f9a:	ab07      	add	r3, sp, #28
 8007f9c:	9300      	str	r3, [sp, #0]
 8007f9e:	003a      	movs	r2, r7
 8007fa0:	4b06      	ldr	r3, [pc, #24]	; (8007fbc <_svfiprintf_r+0x1f8>)
 8007fa2:	0021      	movs	r1, r4
 8007fa4:	9803      	ldr	r0, [sp, #12]
 8007fa6:	f7fe fb25 	bl	80065f4 <_printf_i>
 8007faa:	e7ea      	b.n	8007f82 <_svfiprintf_r+0x1be>
 8007fac:	0800854c 	.word	0x0800854c
 8007fb0:	08008552 	.word	0x08008552
 8007fb4:	08008556 	.word	0x08008556
 8007fb8:	08006081 	.word	0x08006081
 8007fbc:	08007d01 	.word	0x08007d01

08007fc0 <_sbrk_r>:
 8007fc0:	2300      	movs	r3, #0
 8007fc2:	b570      	push	{r4, r5, r6, lr}
 8007fc4:	4c06      	ldr	r4, [pc, #24]	; (8007fe0 <_sbrk_r+0x20>)
 8007fc6:	0005      	movs	r5, r0
 8007fc8:	0008      	movs	r0, r1
 8007fca:	6023      	str	r3, [r4, #0]
 8007fcc:	f000 f86c 	bl	80080a8 <_sbrk>
 8007fd0:	1c43      	adds	r3, r0, #1
 8007fd2:	d103      	bne.n	8007fdc <_sbrk_r+0x1c>
 8007fd4:	6823      	ldr	r3, [r4, #0]
 8007fd6:	2b00      	cmp	r3, #0
 8007fd8:	d000      	beq.n	8007fdc <_sbrk_r+0x1c>
 8007fda:	602b      	str	r3, [r5, #0]
 8007fdc:	bd70      	pop	{r4, r5, r6, pc}
 8007fde:	46c0      	nop			; (mov r8, r8)
 8007fe0:	20000368 	.word	0x20000368

08007fe4 <__ascii_mbtowc>:
 8007fe4:	b082      	sub	sp, #8
 8007fe6:	2900      	cmp	r1, #0
 8007fe8:	d100      	bne.n	8007fec <__ascii_mbtowc+0x8>
 8007fea:	a901      	add	r1, sp, #4
 8007fec:	1e10      	subs	r0, r2, #0
 8007fee:	d006      	beq.n	8007ffe <__ascii_mbtowc+0x1a>
 8007ff0:	2b00      	cmp	r3, #0
 8007ff2:	d006      	beq.n	8008002 <__ascii_mbtowc+0x1e>
 8007ff4:	7813      	ldrb	r3, [r2, #0]
 8007ff6:	600b      	str	r3, [r1, #0]
 8007ff8:	7810      	ldrb	r0, [r2, #0]
 8007ffa:	1e43      	subs	r3, r0, #1
 8007ffc:	4198      	sbcs	r0, r3
 8007ffe:	b002      	add	sp, #8
 8008000:	4770      	bx	lr
 8008002:	2002      	movs	r0, #2
 8008004:	4240      	negs	r0, r0
 8008006:	e7fa      	b.n	8007ffe <__ascii_mbtowc+0x1a>

08008008 <memmove>:
 8008008:	b510      	push	{r4, lr}
 800800a:	4288      	cmp	r0, r1
 800800c:	d902      	bls.n	8008014 <memmove+0xc>
 800800e:	188b      	adds	r3, r1, r2
 8008010:	4298      	cmp	r0, r3
 8008012:	d303      	bcc.n	800801c <memmove+0x14>
 8008014:	2300      	movs	r3, #0
 8008016:	e007      	b.n	8008028 <memmove+0x20>
 8008018:	5c8b      	ldrb	r3, [r1, r2]
 800801a:	5483      	strb	r3, [r0, r2]
 800801c:	3a01      	subs	r2, #1
 800801e:	d2fb      	bcs.n	8008018 <memmove+0x10>
 8008020:	bd10      	pop	{r4, pc}
 8008022:	5ccc      	ldrb	r4, [r1, r3]
 8008024:	54c4      	strb	r4, [r0, r3]
 8008026:	3301      	adds	r3, #1
 8008028:	429a      	cmp	r2, r3
 800802a:	d1fa      	bne.n	8008022 <memmove+0x1a>
 800802c:	e7f8      	b.n	8008020 <memmove+0x18>

0800802e <__malloc_lock>:
 800802e:	4770      	bx	lr

08008030 <__malloc_unlock>:
 8008030:	4770      	bx	lr

08008032 <_realloc_r>:
 8008032:	b5f8      	push	{r3, r4, r5, r6, r7, lr}
 8008034:	0007      	movs	r7, r0
 8008036:	000d      	movs	r5, r1
 8008038:	0016      	movs	r6, r2
 800803a:	2900      	cmp	r1, #0
 800803c:	d105      	bne.n	800804a <_realloc_r+0x18>
 800803e:	0011      	movs	r1, r2
 8008040:	f7ff fe00 	bl	8007c44 <_malloc_r>
 8008044:	0004      	movs	r4, r0
 8008046:	0020      	movs	r0, r4
 8008048:	bdf8      	pop	{r3, r4, r5, r6, r7, pc}
 800804a:	2a00      	cmp	r2, #0
 800804c:	d103      	bne.n	8008056 <_realloc_r+0x24>
 800804e:	f7ff fdaf 	bl	8007bb0 <_free_r>
 8008052:	0034      	movs	r4, r6
 8008054:	e7f7      	b.n	8008046 <_realloc_r+0x14>
 8008056:	f000 f81e 	bl	8008096 <_malloc_usable_size_r>
 800805a:	002c      	movs	r4, r5
 800805c:	42b0      	cmp	r0, r6
 800805e:	d2f2      	bcs.n	8008046 <_realloc_r+0x14>
 8008060:	0031      	movs	r1, r6
 8008062:	0038      	movs	r0, r7
 8008064:	f7ff fdee 	bl	8007c44 <_malloc_r>
 8008068:	1e04      	subs	r4, r0, #0
 800806a:	d0ec      	beq.n	8008046 <_realloc_r+0x14>
 800806c:	0029      	movs	r1, r5
 800806e:	0032      	movs	r2, r6
 8008070:	f7ff faa1 	bl	80075b6 <memcpy>
 8008074:	0029      	movs	r1, r5
 8008076:	0038      	movs	r0, r7
 8008078:	f7ff fd9a 	bl	8007bb0 <_free_r>
 800807c:	e7e3      	b.n	8008046 <_realloc_r+0x14>

0800807e <__ascii_wctomb>:
 800807e:	1e0b      	subs	r3, r1, #0
 8008080:	d004      	beq.n	800808c <__ascii_wctomb+0xe>
 8008082:	2aff      	cmp	r2, #255	; 0xff
 8008084:	d904      	bls.n	8008090 <__ascii_wctomb+0x12>
 8008086:	238a      	movs	r3, #138	; 0x8a
 8008088:	6003      	str	r3, [r0, #0]
 800808a:	3b8b      	subs	r3, #139	; 0x8b
 800808c:	0018      	movs	r0, r3
 800808e:	4770      	bx	lr
 8008090:	700a      	strb	r2, [r1, #0]
 8008092:	2301      	movs	r3, #1
 8008094:	e7fa      	b.n	800808c <__ascii_wctomb+0xe>

08008096 <_malloc_usable_size_r>:
 8008096:	1f0b      	subs	r3, r1, #4
 8008098:	681b      	ldr	r3, [r3, #0]
 800809a:	1f18      	subs	r0, r3, #4
 800809c:	2b00      	cmp	r3, #0
 800809e:	da01      	bge.n	80080a4 <_malloc_usable_size_r+0xe>
 80080a0:	580b      	ldr	r3, [r1, r0]
 80080a2:	18c0      	adds	r0, r0, r3
 80080a4:	4770      	bx	lr
	...

080080a8 <_sbrk>:
 80080a8:	4b05      	ldr	r3, [pc, #20]	; (80080c0 <_sbrk+0x18>)
 80080aa:	0002      	movs	r2, r0
 80080ac:	6819      	ldr	r1, [r3, #0]
 80080ae:	2900      	cmp	r1, #0
 80080b0:	d101      	bne.n	80080b6 <_sbrk+0xe>
 80080b2:	4904      	ldr	r1, [pc, #16]	; (80080c4 <_sbrk+0x1c>)
 80080b4:	6019      	str	r1, [r3, #0]
 80080b6:	6818      	ldr	r0, [r3, #0]
 80080b8:	1882      	adds	r2, r0, r2
 80080ba:	601a      	str	r2, [r3, #0]
 80080bc:	4770      	bx	lr
 80080be:	46c0      	nop			; (mov r8, r8)
 80080c0:	20000214 	.word	0x20000214
 80080c4:	20000370 	.word	0x20000370

080080c8 <_init>:
 80080c8:	b5f8      	push	{r3, r4, r5, r6, r7, lr}
 80080ca:	46c0      	nop			; (mov r8, r8)
 80080cc:	bcf8      	pop	{r3, r4, r5, r6, r7}
 80080ce:	bc08      	pop	{r3}
 80080d0:	469e      	mov	lr, r3
 80080d2:	4770      	bx	lr

080080d4 <_fini>:
 80080d4:	b5f8      	push	{r3, r4, r5, r6, r7, lr}
 80080d6:	46c0      	nop			; (mov r8, r8)
 80080d8:	bcf8      	pop	{r3, r4, r5, r6, r7}
 80080da:	bc08      	pop	{r3}
 80080dc:	469e      	mov	lr, r3
 80080de:	4770      	bx	lr
